---
triple:          'arm64-apple-darwin'
binary-path:     a.out
relocations:
  - { offsetInCU: 0x5C, offset: 0x5C, size: 0x8, addend: 0x0, symName: __ZNSt3__119piecewise_constructE, symObjAddr: 0x21010, symBinAddr: 0x100022838, symSize: 0x0 }
  - { offsetInCU: 0x59FB, offset: 0x59FB, size: 0x8, addend: 0x0, symName: __ZNSt3__17advanceB8ue170006IPNS_10unique_ptrI12virtual_nodeNS_14default_deleteIS2_EEEEllvEEvRT_T0_, symObjAddr: 0x6870, symBinAddr: 0x100007E24, symSize: 0x38 }
  - { offsetInCU: 0x5C7B, offset: 0x5C7B, size: 0x8, addend: 0x0, symName: __ZNSt3__17advanceB8ue170006INS_16reverse_iteratorIPNS_10unique_ptrI12virtual_nodeNS_14default_deleteIS3_EEEEEEllvEEvRT_T0_, symObjAddr: 0x6CAC, symBinAddr: 0x100008260, symSize: 0x38 }
  - { offsetInCU: 0x79FA, offset: 0x79FA, size: 0x8, addend: 0x0, symName: __ZNSt3__17advanceB8ue170006IP12virtual_nodellvEEvRT_T0_, symObjAddr: 0x904C, symBinAddr: 0x10000A600, symSize: 0x38 }
  - { offsetInCU: 0x7C7A, offset: 0x7C7A, size: 0x8, addend: 0x0, symName: __ZNSt3__17advanceB8ue170006INS_16reverse_iteratorIP12virtual_nodeEEllvEEvRT_T0_, symObjAddr: 0x9460, symBinAddr: 0x10000AA14, symSize: 0x38 }
  - { offsetInCU: 0x7CE5, offset: 0x7CE5, size: 0x8, addend: 0x0, symName: __ZNSt3__111__introsortINS_17_ClassicAlgPolicyERNS_6__lessIvvEEP12virtual_nodeLb0EEEvT1_S7_T0_NS_15iterator_traitsIS7_E15difference_typeEb, symObjAddr: 0x99C0, symBinAddr: 0x10000AF74, symSize: 0x434 }
  - { offsetInCU: 0x7E10, offset: 0x7E10, size: 0x8, addend: 0x0, symName: __ZNSt3__126__insertion_sort_unguardedB8ue170006INS_17_ClassicAlgPolicyERNS_6__lessIvvEEP12virtual_nodeEEvT1_S7_T0_, symObjAddr: 0xA0E8, symBinAddr: 0x10000B69C, symSize: 0x15C }
  - { offsetInCU: 0x7F00, offset: 0x7F00, size: 0x8, addend: 0x0, symName: __ZNSt3__111__sift_downB8ue170006INS_17_ClassicAlgPolicyERNS_6__lessIvvEEP12virtual_nodeEEvT1_OT0_NS_15iterator_traitsIS7_E15difference_typeES7_, symObjAddr: 0xB4D8, symBinAddr: 0x10000CA8C, symSize: 0x248 }
  - { offsetInCU: 0x7FAD, offset: 0x7FAD, size: 0x8, addend: 0x0, symName: __ZNSt3__117__floyd_sift_downB8ue170006INS_17_ClassicAlgPolicyERNS_6__lessIvvEEP12virtual_nodeEET1_S7_OT0_NS_15iterator_traitsIS7_E15difference_typeE, symObjAddr: 0xB8F8, symBinAddr: 0x10000CEAC, symSize: 0x100 }
  - { offsetInCU: 0x8045, offset: 0x8045, size: 0x8, addend: 0x0, symName: __ZNSt3__131__partition_with_equals_on_leftB8ue170006INS_17_ClassicAlgPolicyEP12virtual_nodeRNS_6__lessIvvEEEET0_S7_S7_T1_, symObjAddr: 0xA450, symBinAddr: 0x10000BA04, symSize: 0x250 }
  - { offsetInCU: 0x8100, offset: 0x8100, size: 0x8, addend: 0x0, symName: __ZNSt3__118__bitset_partitionB8ue170006INS_17_ClassicAlgPolicyEP12virtual_nodeRNS_6__lessIvvEEEENS_4pairIT0_bEES8_S8_T1_, symObjAddr: 0xA6A0, symBinAddr: 0x10000BC54, symSize: 0x378 }
  - { offsetInCU: 0x8201, offset: 0x8201, size: 0x8, addend: 0x0, symName: __ZNSt3__124__swap_bitmap_pos_withinB8ue170006INS_17_ClassicAlgPolicyEP12virtual_nodeEEvRT0_S5_RyS6_, symObjAddr: 0xC080, symBinAddr: 0x10000D634, symSize: 0x1E0 }
  - { offsetInCU: 0x82CE, offset: 0x82CE, size: 0x8, addend: 0x0, symName: __ZNSt3__132__partition_with_equals_on_rightB8ue170006INS_17_ClassicAlgPolicyEP12virtual_nodeRNS_6__lessIvvEEEENS_4pairIT0_bEES8_S8_T1_, symObjAddr: 0xAA18, symBinAddr: 0x10000BFCC, symSize: 0x270 }
  - { offsetInCU: 0x839C, offset: 0x839C, size: 0x8, addend: 0x0, symName: __ZNSt3__127__insertion_sort_incompleteB8ue170006INS_17_ClassicAlgPolicyERNS_6__lessIvvEEP12virtual_nodeEEbT1_S7_T0_, symObjAddr: 0xAC88, symBinAddr: 0x10000C23C, symSize: 0x348 }
  - { offsetInCU: 0x12FC0, offset: 0x12FC0, size: 0x8, addend: 0x0, symName: __ZNSt3__17advanceB8ue170006IPNS_4pairINS_12basic_stringIcNS_11char_traitsIcEENS_9allocatorIcEEEES7_EEllvEEvRT_T0_, symObjAddr: 0x11840, symBinAddr: 0x100012DF4, symSize: 0x38 }
  - { offsetInCU: 0x1634F, offset: 0x1634F, size: 0x8, addend: 0x0, symName: __ZNSt3__17advanceB8ue170006IPNS_12basic_stringIcNS_11char_traitsIcEENS_9allocatorIcEEEEllvEEvRT_T0_, symObjAddr: 0x18F94, symBinAddr: 0x10001A548, symSize: 0x38 }
  - { offsetInCU: 0x165CF, offset: 0x165CF, size: 0x8, addend: 0x0, symName: __ZNSt3__17advanceB8ue170006INS_16reverse_iteratorIPNS_12basic_stringIcNS_11char_traitsIcEENS_9allocatorIcEEEEEEllvEEvRT_T0_, symObjAddr: 0x193C4, symBinAddr: 0x10001A978, symSize: 0x38 }
  - { offsetInCU: 0x16A5C, offset: 0x16A5C, size: 0x8, addend: 0x0, symName: __ZNSt3__16chronomiB8ue170006IxNS_5ratioILl1ELl1000000000EEExS3_EENS_11common_typeIJNS0_8durationIT_T0_EENS5_IT1_T2_EEEE4typeERKS8_RKSB_, symObjAddr: 0x198DC, symBinAddr: 0x10001AE90, symSize: 0x70 }
  - { offsetInCU: 0x16AD1, offset: 0x16AD1, size: 0x8, addend: 0x0, symName: __ZNSt3__16chrono13duration_castB8ue170006INS0_8durationIxNS_5ratioILl1ELl1000EEEEExNS3_ILl1ELl1000000000EEEEENS_9enable_ifIXsr13__is_durationIT_EE5valueES8_E4typeERKNS2_IT0_T1_EE, symObjAddr: 0x3984, symBinAddr: 0x100004F38, symSize: 0x30 }
  - { offsetInCU: 0x16B18, offset: 0x16B18, size: 0x8, addend: 0x0, symName: __ZNSt3__16chronomiB8ue170006INS0_12steady_clockENS0_8durationIxNS_5ratioILl1ELl1000000000EEEEES6_EENS_11common_typeIJT0_T1_EE4typeERKNS0_10time_pointIT_S8_EERKNSC_ISD_S9_EE, symObjAddr: 0x39B4, symBinAddr: 0x100004F68, symSize: 0x58 }
  - { offsetInCU: 0x17160, offset: 0x17160, size: 0x8, addend: 0x0, symName: __ZNSt3__17advanceB8ue170006IPNS_10unique_ptrI4NodeNS_14default_deleteIS2_EEEEllvEEvRT_T0_, symObjAddr: 0x1ACBC, symBinAddr: 0x10001C270, symSize: 0x38 }
  - { offsetInCU: 0x173E0, offset: 0x173E0, size: 0x8, addend: 0x0, symName: __ZNSt3__17advanceB8ue170006INS_16reverse_iteratorIPNS_10unique_ptrI4NodeNS_14default_deleteIS3_EEEEEEllvEEvRT_T0_, symObjAddr: 0x1B074, symBinAddr: 0x10001C628, symSize: 0x38 }
  - { offsetInCU: 0x1768C, offset: 0x1768C, size: 0x8, addend: 0x0, symName: __ZNSt3__124__put_character_sequenceB8ue170006IcNS_11char_traitsIcEEEERNS_13basic_ostreamIT_T0_EES7_PKS4_m, symObjAddr: 0x1C9EC, symBinAddr: 0x10001DFA0, symSize: 0x1EC }
  - { offsetInCU: 0x1CD0E, offset: 0x1CD0E, size: 0x8, addend: 0x0, symName: __ZNSt3__1lsB8ue170006INS_11char_traitsIcEEEERNS_13basic_ostreamIcT_EES6_RKNS_8__iom_t4IcEE, symObjAddr: 0x3BC, symBinAddr: 0x100001970, symSize: 0x40 }
  - { offsetInCU: 0x1CD51, offset: 0x1CD51, size: 0x8, addend: 0x0, symName: __ZNSt3__1lsB8ue170006IcNS_11char_traitsIcEEEERNS_13basic_ostreamIT_T0_EES7_RKNS_8__iom_t6E, symObjAddr: 0x3FC, symBinAddr: 0x1000019B0, symSize: 0x40 }
  - { offsetInCU: 0x1CDA0, offset: 0x1CDA0, size: 0x8, addend: 0x0, symName: __ZNSt3__13hexB8ue170006ERNS_8ios_baseE, symObjAddr: 0x47C, symBinAddr: 0x100001A30, symSize: 0x30 }
  - { offsetInCU: 0x1CDCE, offset: 0x1CDCE, size: 0x8, addend: 0x0, symName: __ZNSt3__14setwB8ue170006Ei, symObjAddr: 0x4AC, symBinAddr: 0x100001A60, symSize: 0x2C }
  - { offsetInCU: 0x1CDFC, offset: 0x1CDFC, size: 0x8, addend: 0x0, symName: __ZNSt3__17setfillB8ue170006IcEENS_8__iom_t4IT_EES2_, symObjAddr: 0x4D8, symBinAddr: 0x100001A8C, symSize: 0x2C }
  - { offsetInCU: 0x1CE3C, offset: 0x1CE3C, size: 0x8, addend: 0x0, symName: __ZNSt3__1ltB8ue170006ENS_15strong_orderingENS_20_CmpUnspecifiedParamE, symObjAddr: 0x6C8, symBinAddr: 0x100001C7C, symSize: 0x24 }
  - { offsetInCU: 0x1CE75, offset: 0x1CE75, size: 0x8, addend: 0x0, symName: __ZNSt3__1ssB8ue170006IhLm16EEEDTclsr3stdE17__synth_three_wayclsr3stdE7declvalIRT_EEclsr3stdE7declvalIS2_EEEERKNS_5arrayIS1_XT0_EEES7_, symObjAddr: 0x6EC, symBinAddr: 0x100001CA0, symSize: 0x70 }
  - { offsetInCU: 0x1CEE1, offset: 0x1CEE1, size: 0x8, addend: 0x0, symName: __ZNSt3__1leB8ue170006ENS_15strong_orderingENS_20_CmpUnspecifiedParamE, symObjAddr: 0x790, symBinAddr: 0x100001D44, symSize: 0x24 }
  - { offsetInCU: 0x1CF1A, offset: 0x1CF1A, size: 0x8, addend: 0x0, symName: __ZNSt3__1gtB8ue170006ENS_15strong_orderingENS_20_CmpUnspecifiedParamE, symObjAddr: 0x7B4, symBinAddr: 0x100001D68, symSize: 0x24 }
  - { offsetInCU: 0x1CF53, offset: 0x1CF53, size: 0x8, addend: 0x0, symName: __ZNSt3__13decB8ue170006ERNS_8ios_baseE, symObjAddr: 0x8CC, symBinAddr: 0x100001E80, symSize: 0x30 }
  - { offsetInCU: 0x1CF81, offset: 0x1CF81, size: 0x8, addend: 0x0, symName: __ZNSt3__14endlB8ue170006IcNS_11char_traitsIcEEEERNS_13basic_ostreamIT_T0_EES7_, symObjAddr: 0x928, symBinAddr: 0x100001EDC, symSize: 0x58 }
  - { offsetInCU: 0x1CFC1, offset: 0x1CFC1, size: 0x8, addend: 0x0, symName: __ZNSt3__1lsB8ue170006INS_11char_traitsIcEEEERNS_13basic_ostreamIcT_EES6_PKc, symObjAddr: 0x2870, symBinAddr: 0x100003E24, symSize: 0x48 }
  - { offsetInCU: 0x1D007, offset: 0x1D007, size: 0x8, addend: 0x0, symName: __ZNSt3__1neB8ue170006IPNS_10unique_ptrI12virtual_nodeNS_14default_deleteIS2_EEEEEEbRKNS_11__wrap_iterIT_EESB_, symObjAddr: 0x2AC0, symBinAddr: 0x100004074, symSize: 0x34 }
  - { offsetInCU: 0x1D04A, offset: 0x1D04A, size: 0x8, addend: 0x0, symName: __ZNSt3__14sortB8ue170006INS_11__wrap_iterIP12virtual_nodeEEEEvT_S5_, symObjAddr: 0x2BC0, symBinAddr: 0x100004174, symSize: 0x3C }
  - { offsetInCU: 0x1D08C, offset: 0x1D08C, size: 0x8, addend: 0x0, symName: __ZNSt3__1neB8ue170006IP12virtual_nodeEEbRKNS_11__wrap_iterIT_EES7_, symObjAddr: 0x2C84, symBinAddr: 0x100004238, symSize: 0x34 }
  - { offsetInCU: 0x1D0CF, offset: 0x1D0CF, size: 0x8, addend: 0x0, symName: __ZNSt3__1neB8ue170006ERKNS_14__map_iteratorINS_15__tree_iteratorINS_12__value_typeINS_5arrayIhLm16EEEP4NodeEEPNS_11__tree_nodeIS7_PvEElEEEESF_, symObjAddr: 0x2E50, symBinAddr: 0x100004404, symSize: 0x30 }
  - { offsetInCU: 0x1D10C, offset: 0x1D10C, size: 0x8, addend: 0x0, symName: __ZNSt3__13getB8ue170006ILm0EKNS_5arrayIhLm16EEEP4NodeEERNS_13tuple_elementIXT_ENS_4pairIT0_T1_EEE4typeERSA_, symObjAddr: 0x2EA8, symBinAddr: 0x10000445C, symSize: 0x24 }
  - { offsetInCU: 0x1D156, offset: 0x1D156, size: 0x8, addend: 0x0, symName: __ZNSt3__13getB8ue170006ILm1EKNS_5arrayIhLm16EEEP4NodeEERNS_13tuple_elementIXT_ENS_4pairIT0_T1_EEE4typeERSA_, symObjAddr: 0x2ECC, symBinAddr: 0x100004480, symSize: 0x24 }
  - { offsetInCU: 0x1D1A0, offset: 0x1D1A0, size: 0x8, addend: 0x0, symName: __ZNSt3__1lsB8ue170006IcNS_11char_traitsIcEENS_9allocatorIcEEEERNS_13basic_ostreamIT_T0_EES9_RKNS_12basic_stringIS6_S7_T1_EE, symObjAddr: 0x2EF0, symBinAddr: 0x1000044A4, symSize: 0x4C }
  - { offsetInCU: 0x1D1F8, offset: 0x1D1F8, size: 0x8, addend: 0x0, symName: __ZNSt3__1neB8ue170006IPNS_4pairINS_12basic_stringIcNS_11char_traitsIcEENS_9allocatorIcEEEES7_EEEEbRKNS_11__wrap_iterIT_EESE_, symObjAddr: 0x315C, symBinAddr: 0x100004710, symSize: 0x34 }
  - { offsetInCU: 0x1D23B, offset: 0x1D23B, size: 0x8, addend: 0x0, symName: __ZNSt3__13getB8ue170006ILm0ENS_12basic_stringIcNS_11char_traitsIcEENS_9allocatorIcEEEES6_EERNS_13tuple_elementIXT_ENS_4pairIT0_T1_EEE4typeERSB_, symObjAddr: 0x31A8, symBinAddr: 0x10000475C, symSize: 0x24 }
  - { offsetInCU: 0x1D285, offset: 0x1D285, size: 0x8, addend: 0x0, symName: __ZNSt3__13getB8ue170006ILm1ENS_12basic_stringIcNS_11char_traitsIcEENS_9allocatorIcEEEES6_EERNS_13tuple_elementIXT_ENS_4pairIT0_T1_EEE4typeERSB_, symObjAddr: 0x31CC, symBinAddr: 0x100004780, symSize: 0x24 }
  - { offsetInCU: 0x1D2CF, offset: 0x1D2CF, size: 0x8, addend: 0x0, symName: __ZNSt3__1eqB8ue170006INS_9allocatorIcEEEEbRKNS_12basic_stringIcNS_11char_traitsIcEET_EES9_, symObjAddr: 0x3518, symBinAddr: 0x100004ACC, symSize: 0x148 }
  - { offsetInCU: 0x1D427, offset: 0x1D427, size: 0x8, addend: 0x0, symName: __ZNSt3__1plB8ue170006IcNS_11char_traitsIcEENS_9allocatorIcEEEENS_12basic_stringIT_T0_T1_EEPKS6_OS9_, symObjAddr: 0x3844, symBinAddr: 0x100004DF8, symSize: 0x44 }
  - { offsetInCU: 0x1D47F, offset: 0x1D47F, size: 0x8, addend: 0x0, symName: __ZNSt3__1neB8ue170006IPNS_12basic_stringIcNS_11char_traitsIcEENS_9allocatorIcEEEEEEbRKNS_11__wrap_iterIT_EESC_, symObjAddr: 0x3918, symBinAddr: 0x100004ECC, symSize: 0x34 }
  - { offsetInCU: 0x1DDEA, offset: 0x1DDEA, size: 0x8, addend: 0x0, symName: __ZNSt3__112__to_addressB8ue170006IKcEEPT_S3_, symObjAddr: 0x3D7C, symBinAddr: 0x100005330, symSize: 0x14 }
  - { offsetInCU: 0x1DE51, offset: 0x1DE51, size: 0x8, addend: 0x0, symName: __ZNSt3__133lexicographical_compare_three_wayB8ue170006IPKhS2_PFNS_15strong_orderingERS1_S4_EEEDTclfp3_defp_defp1_EET_S8_T0_S9_T1_, symObjAddr: 0x4100, symBinAddr: 0x1000056B4, symSize: 0x54 }
  - { offsetInCU: 0x1DEDF, offset: 0x1DEDF, size: 0x8, addend: 0x0, symName: __ZNSt3__117__synth_three_wayB8ue170006IhhEEDaRKT_RKT0_, symObjAddr: 0x4154, symBinAddr: 0x100005708, symSize: 0x5C }
  - { offsetInCU: 0x1DF2A, offset: 0x1DF2A, size: 0x8, addend: 0x0, symName: __ZNSt3__145__lexicographical_compare_three_way_fast_pathB8ue170006IPKhS2_PFNS_15strong_orderingERS1_S4_EEEDTclfp3_defp_defp1_EET_S8_T0_S9_RT1_, symObjAddr: 0x41B0, symBinAddr: 0x100005764, symSize: 0x134 }
  - { offsetInCU: 0x1E02C, offset: 0x1E02C, size: 0x8, addend: 0x0, symName: __ZNSt3__13minB8ue170006IlEERKT_S3_S3_, symObjAddr: 0x42E4, symBinAddr: 0x100005898, symSize: 0x2C }
  - { offsetInCU: 0x1E070, offset: 0x1E070, size: 0x8, addend: 0x0, symName: __ZNSt3__1eqB8ue170006ENS_15strong_orderingENS_20_CmpUnspecifiedParamE, symObjAddr: 0x4310, symBinAddr: 0x1000058C4, symSize: 0x24 }
  - { offsetInCU: 0x1E0A5, offset: 0x1E0A5, size: 0x8, addend: 0x0, symName: __ZNSt3__13minB8ue170006IlNS_6__lessIvvEEEERKT_S5_S5_T0_, symObjAddr: 0x4334, symBinAddr: 0x1000058E8, symSize: 0x54 }
  - { offsetInCU: 0x1E1D7, offset: 0x1E1D7, size: 0x8, addend: 0x0, symName: __ZNSt3__118__constexpr_strlenB8ue170006EPKc, symObjAddr: 0x4558, symBinAddr: 0x100005B0C, symSize: 0x24 }
  - { offsetInCU: 0x1E203, offset: 0x1E203, size: 0x8, addend: 0x0, symName: __ZNSt3__111make_uniqueB8ue170006I12virtual_nodeJNS_12basic_stringIcNS_11char_traitsIcEENS_9allocatorIcEEEERNS_5arrayIhLm16EEEEEENS_11__unique_ifIT_E15__unique_singleEDpOT0_, symObjAddr: 0x4890, symBinAddr: 0x100005E44, symSize: 0x108 }
  - { offsetInCU: 0x1E259, offset: 0x1E259, size: 0x8, addend: 0x0, symName: __ZNSt3__1plB8ue170006IcNS_11char_traitsIcEENS_9allocatorIcEEEENS_12basic_stringIT_T0_T1_EERKS9_OS9_, symObjAddr: 0x4998, symBinAddr: 0x100005F4C, symSize: 0x44 }
  - { offsetInCU: 0x1E2B2, offset: 0x1E2B2, size: 0x8, addend: 0x0, symName: __ZNSt3__112__to_addressB8ue170006INS_10unique_ptrI12virtual_nodeNS_14default_deleteIS2_EEEEEEPT_S7_, symObjAddr: 0x5518, symBinAddr: 0x100006ACC, symSize: 0x14 }
  - { offsetInCU: 0x1E30B, offset: 0x1E30B, size: 0x8, addend: 0x0, symName: __ZNSt3__112construct_atB8ue170006INS_10unique_ptrI12virtual_nodeNS_14default_deleteIS2_EEEEJS5_EPS5_EEPT_S8_DpOT0_, symObjAddr: 0x559C, symBinAddr: 0x100006B50, symSize: 0x3C }
  - { offsetInCU: 0x1E37D, offset: 0x1E37D, size: 0x8, addend: 0x0, symName: __ZNSt3__13maxB8ue170006ImEERKT_S3_S3_, symObjAddr: 0x5B48, symBinAddr: 0x1000070FC, symSize: 0x2C }
  - { offsetInCU: 0x1E3C0, offset: 0x1E3C0, size: 0x8, addend: 0x0, symName: __ZNSt3__13minB8ue170006ImEERKT_S3_S3_, symObjAddr: 0x5B74, symBinAddr: 0x100007128, symSize: 0x2C }
  - { offsetInCU: 0x1E5ED, offset: 0x1E5ED, size: 0x8, addend: 0x0, symName: __ZNSt3__13minB8ue170006ImNS_6__lessIvvEEEERKT_S5_S5_T0_, symObjAddr: 0x5C04, symBinAddr: 0x1000071B8, symSize: 0x54 }
  - { offsetInCU: 0x1E648, offset: 0x1E648, size: 0x8, addend: 0x0, symName: __ZNSt3__120__throw_length_errorB8ue170006EPKc, symObjAddr: 0x5CE8, symBinAddr: 0x10000729C, symSize: 0x64 }
  - { offsetInCU: 0x1E672, offset: 0x1E672, size: 0x8, addend: 0x0, symName: __ZNSt3__13maxB8ue170006ImNS_6__lessIvvEEEERKT_S5_S5_T0_, symObjAddr: 0x5E2C, symBinAddr: 0x1000073E0, symSize: 0x54 }
  - { offsetInCU: 0x1E6CC, offset: 0x1E6CC, size: 0x8, addend: 0x0, symName: __ZNSt3__119__allocate_at_leastB8ue170006INS_9allocatorINS_10unique_ptrI12virtual_nodeNS_14default_deleteIS3_EEEEEEEENS_19__allocation_resultINS_16allocator_traitsIT_E7pointerEEERSA_m, symObjAddr: 0x5F90, symBinAddr: 0x100007544, symSize: 0x40 }
  - { offsetInCU: 0x1E70F, offset: 0x1E70F, size: 0x8, addend: 0x0, symName: __ZNSt3__117__libcpp_allocateB8ue170006Emm, symObjAddr: 0x6114, symBinAddr: 0x1000076C8, symSize: 0x60 }
  - { offsetInCU: 0x1E769, offset: 0x1E769, size: 0x8, addend: 0x0, symName: __ZNSt3__124__is_overaligned_for_newB8ue170006Em, symObjAddr: 0x6174, symBinAddr: 0x100007728, symSize: 0x20 }
  - { offsetInCU: 0x1E797, offset: 0x1E797, size: 0x8, addend: 0x0, symName: __ZNSt3__121__libcpp_operator_newB8ue170006IJmSt11align_val_tEEEPvDpT_, symObjAddr: 0x6194, symBinAddr: 0x100007748, symSize: 0x2C }
  - { offsetInCU: 0x1E7E4, offset: 0x1E7E4, size: 0x8, addend: 0x0, symName: __ZNSt3__121__libcpp_operator_newB8ue170006IJmEEEPvDpT_, symObjAddr: 0x61C0, symBinAddr: 0x100007774, symSize: 0x24 }
  - { offsetInCU: 0x1E81D, offset: 0x1E81D, size: 0x8, addend: 0x0, symName: __ZNSt3__142__uninitialized_allocator_move_if_noexceptB8ue170006INS_9allocatorINS_10unique_ptrI12virtual_nodeNS_14default_deleteIS3_EEEEEENS_16reverse_iteratorIPS6_EESA_SA_EET2_RT_T0_T1_SB_, symObjAddr: 0x6300, symBinAddr: 0x1000078B4, symSize: 0x12C }
  - { offsetInCU: 0x1E8BE, offset: 0x1E8BE, size: 0x8, addend: 0x0, symName: __ZNSt3__14swapB8ue170006IPNS_10unique_ptrI12virtual_nodeNS_14default_deleteIS2_EEEEEENS_9enable_ifIXaasr21is_move_constructibleIT_EE5valuesr18is_move_assignableIS8_EE5valueEvE4typeERS8_SB_, symObjAddr: 0x6478, symBinAddr: 0x100007A2C, symSize: 0x3C }
  - { offsetInCU: 0x1E90E, offset: 0x1E90E, size: 0x8, addend: 0x0, symName: __ZNSt3__122__make_exception_guardB8ue170006INS_29_AllocatorDestroyRangeReverseINS_9allocatorINS_10unique_ptrI12virtual_nodeNS_14default_deleteIS4_EEEEEENS_16reverse_iteratorIPS7_EEEEEENS_28__exception_guard_exceptionsIT_EESE_, symObjAddr: 0x65A8, symBinAddr: 0x100007B5C, symSize: 0x4C }
  - { offsetInCU: 0x1E944, offset: 0x1E944, size: 0x8, addend: 0x0, symName: __ZNSt3__1neB8ue170006IPNS_10unique_ptrI12virtual_nodeNS_14default_deleteIS2_EEEES6_EEbRKNS_16reverse_iteratorIT_EERKNS7_IT0_EE, symObjAddr: 0x6638, symBinAddr: 0x100007BEC, symSize: 0x48 }
  - { offsetInCU: 0x1E990, offset: 0x1E990, size: 0x8, addend: 0x0, symName: __ZNSt3__112__to_addressB8ue170006INS_16reverse_iteratorIPNS_10unique_ptrI12virtual_nodeNS_14default_deleteIS3_EEEEEEvEEu7__decayIDTclsr19__to_address_helperIT_EE6__callclsr3stdE7declvalIRKS9_EEEEESB_, symObjAddr: 0x6680, symBinAddr: 0x100007C34, symSize: 0x24 }
  - { offsetInCU: 0x1E9EF, offset: 0x1E9EF, size: 0x8, addend: 0x0, symName: __ZNSt3__14prevB8ue170006IPNS_10unique_ptrI12virtual_nodeNS_14default_deleteIS2_EEEEEENS_9enable_ifIXsr29__has_input_iterator_categoryIT_EE5valueES8_E4typeES8_NS_15iterator_traitsIS8_E15difference_typeE, symObjAddr: 0x6834, symBinAddr: 0x100007DE8, symSize: 0x3C }
  - { offsetInCU: 0x1EA33, offset: 0x1EA33, size: 0x8, addend: 0x0, symName: __ZNSt3__121__convert_to_integralB8ue170006El, symObjAddr: 0x68A8, symBinAddr: 0x100007E5C, symSize: 0x14 }
  - { offsetInCU: 0x1EA5F, offset: 0x1EA5F, size: 0x8, addend: 0x0, symName: __ZNSt3__19__advanceB8ue170006IPNS_10unique_ptrI12virtual_nodeNS_14default_deleteIS2_EEEEEEvRT_NS_15iterator_traitsIS7_E15difference_typeENS_26random_access_iterator_tagE, symObjAddr: 0x68BC, symBinAddr: 0x100007E70, symSize: 0x28 }
  - { offsetInCU: 0x1EAA8, offset: 0x1EAA8, size: 0x8, addend: 0x0, symName: __ZNSt3__119__allocator_destroyB8ue170006INS_9allocatorINS_10unique_ptrI12virtual_nodeNS_14default_deleteIS3_EEEEEENS_16reverse_iteratorINS8_IPS6_EEEESB_EEvRT_T0_T1_, symObjAddr: 0x69E8, symBinAddr: 0x100007F9C, symSize: 0x70 }
  - { offsetInCU: 0x1EB0D, offset: 0x1EB0D, size: 0x8, addend: 0x0, symName: __ZNSt3__1neB8ue170006INS_16reverse_iteratorIPNS_10unique_ptrI12virtual_nodeNS_14default_deleteIS3_EEEEEES8_EEbRKNS1_IT_EERKNS1_IT0_EE, symObjAddr: 0x6A94, symBinAddr: 0x100008048, symSize: 0x60 }
  - { offsetInCU: 0x1EB59, offset: 0x1EB59, size: 0x8, addend: 0x0, symName: __ZNSt3__112__to_addressB8ue170006INS_16reverse_iteratorINS1_IPNS_10unique_ptrI12virtual_nodeNS_14default_deleteIS3_EEEEEEEEvEEu7__decayIDTclsr19__to_address_helperIT_EE6__callclsr3stdE7declvalIRKSA_EEEEESC_, symObjAddr: 0x6B1C, symBinAddr: 0x1000080D0, symSize: 0x24 }
  - { offsetInCU: 0x1EB8F, offset: 0x1EB8F, size: 0x8, addend: 0x0, symName: __ZNSt3__110destroy_atB8ue170006INS_10unique_ptrI12virtual_nodeNS_14default_deleteIS2_EEEELi0EEEvPT_, symObjAddr: 0x6B94, symBinAddr: 0x100008148, symSize: 0x24 }
  - { offsetInCU: 0x1EBC6, offset: 0x1EBC6, size: 0x8, addend: 0x0, symName: __ZNSt3__112__destroy_atB8ue170006INS_10unique_ptrI12virtual_nodeNS_14default_deleteIS2_EEEELi0EEEvPT_, symObjAddr: 0x6BB8, symBinAddr: 0x10000816C, symSize: 0x24 }
  - { offsetInCU: 0x1EC26, offset: 0x1EC26, size: 0x8, addend: 0x0, symName: __ZNSt3__14prevB8ue170006INS_16reverse_iteratorIPNS_10unique_ptrI12virtual_nodeNS_14default_deleteIS3_EEEEEEEENS_9enable_ifIXsr29__has_input_iterator_categoryIT_EE5valueESA_E4typeESA_NS_15iterator_traitsISA_E15difference_typeE, symObjAddr: 0x6C60, symBinAddr: 0x100008214, symSize: 0x4C }
  - { offsetInCU: 0x1EC69, offset: 0x1EC69, size: 0x8, addend: 0x0, symName: __ZNSt3__19__advanceB8ue170006INS_16reverse_iteratorIPNS_10unique_ptrI12virtual_nodeNS_14default_deleteIS3_EEEEEEEEvRT_NS_15iterator_traitsIS9_E15difference_typeENS_26random_access_iterator_tagE, symObjAddr: 0x6CE4, symBinAddr: 0x100008298, symSize: 0x2C }
  - { offsetInCU: 0x1ECB2, offset: 0x1ECB2, size: 0x8, addend: 0x0, symName: __ZNSt3__119__libcpp_deallocateB8ue170006EPvmm, symObjAddr: 0x6FC8, symBinAddr: 0x10000857C, symSize: 0x60 }
  - { offsetInCU: 0x1ED17, offset: 0x1ED17, size: 0x8, addend: 0x0, symName: __ZNSt3__127__do_deallocate_handle_sizeB8ue170006IJSt11align_val_tEEEvPvmDpT_, symObjAddr: 0x7028, symBinAddr: 0x1000085DC, symSize: 0x30 }
  - { offsetInCU: 0x1ED6A, offset: 0x1ED6A, size: 0x8, addend: 0x0, symName: __ZNSt3__127__do_deallocate_handle_sizeB8ue170006IJEEEvPvmDpT_, symObjAddr: 0x7058, symBinAddr: 0x10000860C, symSize: 0x28 }
  - { offsetInCU: 0x1EDA8, offset: 0x1EDA8, size: 0x8, addend: 0x0, symName: __ZNSt3__124__libcpp_operator_deleteB8ue170006IJPvSt11align_val_tEEEvDpT_, symObjAddr: 0x7080, symBinAddr: 0x100008634, symSize: 0x2C }
  - { offsetInCU: 0x1EDF1, offset: 0x1EDF1, size: 0x8, addend: 0x0, symName: __ZNSt3__124__libcpp_operator_deleteB8ue170006IJPvEEEvDpT_, symObjAddr: 0x70AC, symBinAddr: 0x100008660, symSize: 0x24 }
  - { offsetInCU: 0x1EE59, offset: 0x1EE59, size: 0x8, addend: 0x0, symName: __ZNSt3__110destroy_atB8ue170006INS_4pairIKNS_12basic_stringIcNS_11char_traitsIcEENS_9allocatorIcEEEE9data_nodeEELi0EEEvPT_, symObjAddr: 0x77C8, symBinAddr: 0x100008D7C, symSize: 0x24 }
  - { offsetInCU: 0x1EE90, offset: 0x1EE90, size: 0x8, addend: 0x0, symName: __ZNSt3__112__destroy_atB8ue170006INS_4pairIKNS_12basic_stringIcNS_11char_traitsIcEENS_9allocatorIcEEEE9data_nodeEELi0EEEvPT_, symObjAddr: 0x77EC, symBinAddr: 0x100008DA0, symSize: 0x24 }
  - { offsetInCU: 0x1EEC7, offset: 0x1EEC7, size: 0x8, addend: 0x0, symName: __ZNSt3__17launderB8ue170006INS_4pairIKNS_12basic_stringIcNS_11char_traitsIcEENS_9allocatorIcEEEE9data_nodeEEEEPT_SC_, symObjAddr: 0x7898, symBinAddr: 0x100008E4C, symSize: 0x24 }
  - { offsetInCU: 0x1EEFE, offset: 0x1EEFE, size: 0x8, addend: 0x0, symName: __ZNSt3__19__launderB8ue170006INS_4pairIKNS_12basic_stringIcNS_11char_traitsIcEENS_9allocatorIcEEEE9data_nodeEEEEPT_SC_, symObjAddr: 0x78BC, symBinAddr: 0x100008E70, symSize: 0x14 }
  - { offsetInCU: 0x1EF35, offset: 0x1EF35, size: 0x8, addend: 0x0, symName: __ZNSt3__1eqB8ue170006IPNS_10unique_ptrI12virtual_nodeNS_14default_deleteIS2_EEEEEEbRKNS_11__wrap_iterIT_EESB_, symObjAddr: 0x7F6C, symBinAddr: 0x100009520, symSize: 0x48 }
  - { offsetInCU: 0x1EF79, offset: 0x1EF79, size: 0x8, addend: 0x0, symName: __ZNSt3__112__to_addressB8ue170006I12virtual_nodeEEPT_S3_, symObjAddr: 0x8214, symBinAddr: 0x1000097C8, symSize: 0x14 }
  - { offsetInCU: 0x1EFD3, offset: 0x1EFD3, size: 0x8, addend: 0x0, symName: __ZNSt3__112construct_atB8ue170006I12virtual_nodeJRKS1_EPS1_EEPT_S6_DpOT0_, symObjAddr: 0x8298, symBinAddr: 0x10000984C, symSize: 0x34 }
  - { offsetInCU: 0x1F044, offset: 0x1F044, size: 0x8, addend: 0x0, symName: __ZNSt3__119__allocate_at_leastB8ue170006INS_9allocatorI12virtual_nodeEEEENS_19__allocation_resultINS_16allocator_traitsIT_E7pointerEEERS6_m, symObjAddr: 0x880C, symBinAddr: 0x100009DC0, symSize: 0x40 }
  - { offsetInCU: 0x1F087, offset: 0x1F087, size: 0x8, addend: 0x0, symName: __ZNSt3__142__uninitialized_allocator_move_if_noexceptB8ue170006INS_9allocatorI12virtual_nodeEENS_16reverse_iteratorIPS2_EES6_S6_EET2_RT_T0_T1_S7_, symObjAddr: 0x8A78, symBinAddr: 0x10000A02C, symSize: 0x12C }
  - { offsetInCU: 0x1F128, offset: 0x1F128, size: 0x8, addend: 0x0, symName: __ZNSt3__14swapB8ue170006IP12virtual_nodeEENS_9enable_ifIXaasr21is_move_constructibleIT_EE5valuesr18is_move_assignableIS4_EE5valueEvE4typeERS4_S7_, symObjAddr: 0x8BF0, symBinAddr: 0x10000A1A4, symSize: 0x3C }
  - { offsetInCU: 0x1F178, offset: 0x1F178, size: 0x8, addend: 0x0, symName: __ZNSt3__122__make_exception_guardB8ue170006INS_29_AllocatorDestroyRangeReverseINS_9allocatorI12virtual_nodeEENS_16reverse_iteratorIPS3_EEEEEENS_28__exception_guard_exceptionsIT_EESA_, symObjAddr: 0x8D20, symBinAddr: 0x10000A2D4, symSize: 0x4C }
  - { offsetInCU: 0x1F1AE, offset: 0x1F1AE, size: 0x8, addend: 0x0, symName: __ZNSt3__1neB8ue170006IP12virtual_nodeS2_EEbRKNS_16reverse_iteratorIT_EERKNS3_IT0_EE, symObjAddr: 0x8DB0, symBinAddr: 0x10000A364, symSize: 0x48 }
  - { offsetInCU: 0x1F1FA, offset: 0x1F1FA, size: 0x8, addend: 0x0, symName: __ZNSt3__112__to_addressB8ue170006INS_16reverse_iteratorIP12virtual_nodeEEvEEu7__decayIDTclsr19__to_address_helperIT_EE6__callclsr3stdE7declvalIRKS5_EEEEES7_, symObjAddr: 0x8E28, symBinAddr: 0x10000A3DC, symSize: 0x24 }
  - { offsetInCU: 0x1F231, offset: 0x1F231, size: 0x8, addend: 0x0, symName: __ZNSt3__112construct_atB8ue170006I12virtual_nodeJS1_EPS1_EEPT_S4_DpOT0_, symObjAddr: 0x8F78, symBinAddr: 0x10000A52C, symSize: 0x34 }
  - { offsetInCU: 0x1F2CB, offset: 0x1F2CB, size: 0x8, addend: 0x0, symName: __ZNSt3__14prevB8ue170006IP12virtual_nodeEENS_9enable_ifIXsr29__has_input_iterator_categoryIT_EE5valueES4_E4typeES4_NS_15iterator_traitsIS4_E15difference_typeE, symObjAddr: 0x9010, symBinAddr: 0x10000A5C4, symSize: 0x3C }
  - { offsetInCU: 0x1F30F, offset: 0x1F30F, size: 0x8, addend: 0x0, symName: __ZNSt3__19__advanceB8ue170006IP12virtual_nodeEEvRT_NS_15iterator_traitsIS3_E15difference_typeENS_26random_access_iterator_tagE, symObjAddr: 0x9084, symBinAddr: 0x10000A638, symSize: 0x28 }
  - { offsetInCU: 0x1F358, offset: 0x1F358, size: 0x8, addend: 0x0, symName: __ZNSt3__119__allocator_destroyB8ue170006INS_9allocatorI12virtual_nodeEENS_16reverse_iteratorINS4_IPS2_EEEES7_EEvRT_T0_T1_, symObjAddr: 0x91B0, symBinAddr: 0x10000A764, symSize: 0x70 }
  - { offsetInCU: 0x1F3BD, offset: 0x1F3BD, size: 0x8, addend: 0x0, symName: __ZNSt3__1neB8ue170006INS_16reverse_iteratorIP12virtual_nodeEES4_EEbRKNS1_IT_EERKNS1_IT0_EE, symObjAddr: 0x925C, symBinAddr: 0x10000A810, symSize: 0x60 }
  - { offsetInCU: 0x1F409, offset: 0x1F409, size: 0x8, addend: 0x0, symName: __ZNSt3__112__to_addressB8ue170006INS_16reverse_iteratorINS1_IP12virtual_nodeEEEEvEEu7__decayIDTclsr19__to_address_helperIT_EE6__callclsr3stdE7declvalIRKS6_EEEEES8_, symObjAddr: 0x92E4, symBinAddr: 0x10000A898, symSize: 0x24 }
  - { offsetInCU: 0x1F43F, offset: 0x1F43F, size: 0x8, addend: 0x0, symName: __ZNSt3__110destroy_atB8ue170006I12virtual_nodeLi0EEEvPT_, symObjAddr: 0x935C, symBinAddr: 0x10000A910, symSize: 0x24 }
  - { offsetInCU: 0x1F477, offset: 0x1F477, size: 0x8, addend: 0x0, symName: __ZNSt3__112__destroy_atB8ue170006I12virtual_nodeLi0EEEvPT_, symObjAddr: 0x9380, symBinAddr: 0x10000A934, symSize: 0x10 }
  - { offsetInCU: 0x1F4D7, offset: 0x1F4D7, size: 0x8, addend: 0x0, symName: __ZNSt3__14prevB8ue170006INS_16reverse_iteratorIP12virtual_nodeEEEENS_9enable_ifIXsr29__has_input_iterator_categoryIT_EE5valueES6_E4typeES6_NS_15iterator_traitsIS6_E15difference_typeE, symObjAddr: 0x9414, symBinAddr: 0x10000A9C8, symSize: 0x4C }
  - { offsetInCU: 0x1F51A, offset: 0x1F51A, size: 0x8, addend: 0x0, symName: __ZNSt3__19__advanceB8ue170006INS_16reverse_iteratorIP12virtual_nodeEEEEvRT_NS_15iterator_traitsIS5_E15difference_typeENS_26random_access_iterator_tagE, symObjAddr: 0x9498, symBinAddr: 0x10000AA4C, symSize: 0x2C }
  - { offsetInCU: 0x1F563, offset: 0x1F563, size: 0x8, addend: 0x0, symName: __ZNSt3__14sortB8ue170006INS_11__wrap_iterIP12virtual_nodeEENS_6__lessIvvEEEEvT_S7_T0_, symObjAddr: 0x97C8, symBinAddr: 0x10000AD7C, symSize: 0x40 }
  - { offsetInCU: 0x1F5BD, offset: 0x1F5BD, size: 0x8, addend: 0x0, symName: __ZNSt3__111__sort_implB8ue170006INS_17_ClassicAlgPolicyENS_11__wrap_iterIP12virtual_nodeEENS_6__lessIvvEEEEvT0_S8_RT1_, symObjAddr: 0x9808, symBinAddr: 0x10000ADBC, symSize: 0xA8 }
  - { offsetInCU: 0x1F621, offset: 0x1F621, size: 0x8, addend: 0x0, symName: __ZNSt3__123__debug_randomize_rangeB8ue170006INS_17_ClassicAlgPolicyENS_11__wrap_iterIP12virtual_nodeEES5_EEvT0_T1_, symObjAddr: 0x98B0, symBinAddr: 0x10000AE64, symSize: 0x14 }
  - { offsetInCU: 0x1F672, offset: 0x1F672, size: 0x8, addend: 0x0, symName: __ZNSt3__115__sort_dispatchB8ue170006INS_17_ClassicAlgPolicyEP12virtual_nodeNS_6__lessIvvEEEEvT0_S6_RT1_, symObjAddr: 0x98C4, symBinAddr: 0x10000AE78, symSize: 0x64 }
  - { offsetInCU: 0x1F6F0, offset: 0x1F6F0, size: 0x8, addend: 0x0, symName: __ZNSt3__113__unwrap_iterB8ue170006INS_11__wrap_iterIP12virtual_nodeEENS_18__unwrap_iter_implIS4_Lb1EEELi0EEEDTclsrT0_8__unwrapclsr3stdE7declvalIT_EEEES8_, symObjAddr: 0x9928, symBinAddr: 0x10000AEDC, symSize: 0x2C }
  - { offsetInCU: 0x1F735, offset: 0x1F735, size: 0x8, addend: 0x0, symName: __ZNSt3__135__check_strict_weak_ordering_sortedB8ue170006IP12virtual_nodeNS_6__lessIvvEEEEvT_S5_RT0_, symObjAddr: 0x9954, symBinAddr: 0x10000AF08, symSize: 0x18 }
  - { offsetInCU: 0x1F78B, offset: 0x1F78B, size: 0x8, addend: 0x0, symName: __ZNSt3__17__log2iB8ue170006IlEET_S1_, symObjAddr: 0x996C, symBinAddr: 0x10000AF20, symSize: 0x54 }
  - { offsetInCU: 0x1F7C3, offset: 0x1F7C3, size: 0x8, addend: 0x0, symName: __ZNSt3__112__libcpp_clzB8ue170006Em, symObjAddr: 0x9E0C, symBinAddr: 0x10000B3C0, symSize: 0x1C }
  - { offsetInCU: 0x1F90B, offset: 0x1F90B, size: 0x8, addend: 0x0, symName: __ZNSt3__124__sort3_maybe_branchlessB8ue170006INS_17_ClassicAlgPolicyERNS_6__lessIvvEEP12virtual_nodeEENS_9enable_ifIXntsr21__use_branchless_sortIT0_T1_EE5valueEvE4typeES9_S9_S9_S8_, symObjAddr: 0x9E90, symBinAddr: 0x10000B444, symSize: 0x3C }
  - { offsetInCU: 0x1F97C, offset: 0x1F97C, size: 0x8, addend: 0x0, symName: __ZNSt3__124__sort4_maybe_branchlessB8ue170006INS_17_ClassicAlgPolicyERNS_6__lessIvvEEP12virtual_nodeEENS_9enable_ifIXntsr21__use_branchless_sortIT0_T1_EE5valueEvE4typeES9_S9_S9_S9_S8_, symObjAddr: 0x9ECC, symBinAddr: 0x10000B480, symSize: 0x44 }
  - { offsetInCU: 0x1F9FB, offset: 0x1F9FB, size: 0x8, addend: 0x0, symName: __ZNSt3__124__sort5_maybe_branchlessB8ue170006INS_17_ClassicAlgPolicyERNS_6__lessIvvEEP12virtual_nodeEENS_9enable_ifIXntsr21__use_branchless_sortIT0_T1_EE5valueEvE4typeES9_S9_S9_S9_S9_S8_, symObjAddr: 0x9F10, symBinAddr: 0x10000B4C4, symSize: 0x4C }
  - { offsetInCU: 0x1FA88, offset: 0x1FA88, size: 0x8, addend: 0x0, symName: __ZNSt3__116__insertion_sortB8ue170006INS_17_ClassicAlgPolicyERNS_6__lessIvvEEP12virtual_nodeEEvT1_S7_T0_, symObjAddr: 0x9F5C, symBinAddr: 0x10000B510, symSize: 0x18C }
  - { offsetInCU: 0x1FB4B, offset: 0x1FB4B, size: 0x8, addend: 0x0, symName: __ZNSt3__114__partial_sortB8ue170006INS_17_ClassicAlgPolicyERNS_6__lessIvvEEP12virtual_nodeS6_EET1_S7_S7_T2_RT0_, symObjAddr: 0xA244, symBinAddr: 0x10000B7F8, symSize: 0x94 }
  - { offsetInCU: 0x1FBD3, offset: 0x1FBD3, size: 0x8, addend: 0x0, symName: __ZNSt3__17__sort3B8ue170006INS_17_ClassicAlgPolicyERNS_6__lessIvvEEP12virtual_nodeEEjT1_S7_S7_T0_, symObjAddr: 0xA2D8, symBinAddr: 0x10000B88C, symSize: 0x144 }
  - { offsetInCU: 0x1FC52, offset: 0x1FC52, size: 0x8, addend: 0x0, symName: __ZNSt3__19iter_swapB8ue170006IP12virtual_nodeS2_EEvT_T0_, symObjAddr: 0xB034, symBinAddr: 0x10000C5E8, symSize: 0x2C }
  - { offsetInCU: 0x1FC9A, offset: 0x1FC9A, size: 0x8, addend: 0x0, symName: __ZNSt3__14swapB8ue170006I12virtual_nodeEENS_9enable_ifIXaasr21is_move_constructibleIT_EE5valuesr18is_move_assignableIS3_EE5valueEvE4typeERS3_S6_, symObjAddr: 0xB060, symBinAddr: 0x10000C614, symSize: 0x88 }
  - { offsetInCU: 0x1FCEB, offset: 0x1FCEB, size: 0x8, addend: 0x0, symName: __ZNSt3__17__sort4B8ue170006INS_17_ClassicAlgPolicyERNS_6__lessIvvEEP12virtual_nodeEEvT1_S7_S7_S7_T0_, symObjAddr: 0xB118, symBinAddr: 0x10000C6CC, symSize: 0xB8 }
  - { offsetInCU: 0x1FD66, offset: 0x1FD66, size: 0x8, addend: 0x0, symName: __ZNSt3__17__sort5B8ue170006INS_17_ClassicAlgPolicyERNS_6__lessIvvEEP12virtual_nodeEEvT1_S7_S7_S7_S7_T0_, symObjAddr: 0xB1D0, symBinAddr: 0x10000C784, symSize: 0xE8 }
  - { offsetInCU: 0x1FE14, offset: 0x1FE14, size: 0x8, addend: 0x0, symName: __ZNSt3__123__debug_randomize_rangeB8ue170006INS_17_ClassicAlgPolicyEP12virtual_nodeS3_EEvT0_T1_, symObjAddr: 0xB2FC, symBinAddr: 0x10000C8B0, symSize: 0x14 }
  - { offsetInCU: 0x1FE65, offset: 0x1FE65, size: 0x8, addend: 0x0, symName: __ZNSt3__119__partial_sort_implB8ue170006INS_17_ClassicAlgPolicyERNS_6__lessIvvEEP12virtual_nodeS6_EET1_S7_S7_T2_OT0_, symObjAddr: 0xB310, symBinAddr: 0x10000C8C4, symSize: 0x110 }
  - { offsetInCU: 0x1FEFB, offset: 0x1FEFB, size: 0x8, addend: 0x0, symName: __ZNSt3__111__make_heapB8ue170006INS_17_ClassicAlgPolicyERNS_6__lessIvvEEP12virtual_nodeEEvT1_S7_OT0_, symObjAddr: 0xB420, symBinAddr: 0x10000C9D4, symSize: 0xB8 }
  - { offsetInCU: 0x1FF9D, offset: 0x1FF9D, size: 0x8, addend: 0x0, symName: __ZNSt3__111__sort_heapB8ue170006INS_17_ClassicAlgPolicyERNS_6__lessIvvEEP12virtual_nodeEEvT1_S7_OT0_, symObjAddr: 0xB720, symBinAddr: 0x10000CCD4, symSize: 0xA8 }
  - { offsetInCU: 0x2003F, offset: 0x2003F, size: 0x8, addend: 0x0, symName: __ZNSt3__110__pop_heapB8ue170006INS_17_ClassicAlgPolicyENS_6__lessIvvEEP12virtual_nodeEEvT1_S6_RT0_NS_15iterator_traitsIS6_E15difference_typeE, symObjAddr: 0xB7C8, symBinAddr: 0x10000CD7C, symSize: 0x130 }
  - { offsetInCU: 0x200EF, offset: 0x200EF, size: 0x8, addend: 0x0, symName: __ZNSt3__19__sift_upB8ue170006INS_17_ClassicAlgPolicyERNS_6__lessIvvEEP12virtual_nodeEEvT1_S7_OT0_NS_15iterator_traitsIS7_E15difference_typeE, symObjAddr: 0xB9F8, symBinAddr: 0x10000CFAC, symSize: 0x158 }
  - { offsetInCU: 0x2019F, offset: 0x2019F, size: 0x8, addend: 0x0, symName: __ZNSt3__122__populate_left_bitsetB8ue170006IRNS_6__lessIvvEEP12virtual_nodeS4_EEvT0_T_RT1_Ry, symObjAddr: 0xBB50, symBinAddr: 0x10000D104, symSize: 0xA8 }
  - { offsetInCU: 0x2025A, offset: 0x2025A, size: 0x8, addend: 0x0, symName: __ZNSt3__123__populate_right_bitsetB8ue170006IRNS_6__lessIvvEEP12virtual_nodeS4_EEvT0_T_RT1_Ry, symObjAddr: 0xBBF8, symBinAddr: 0x10000D1AC, symSize: 0xA0 }
  - { offsetInCU: 0x20315, offset: 0x20315, size: 0x8, addend: 0x0, symName: __ZNSt3__117__swap_bitmap_posB8ue170006INS_17_ClassicAlgPolicyEP12virtual_nodeEEvT0_S4_RyS5_, symObjAddr: 0xBC98, symBinAddr: 0x10000D24C, symSize: 0x100 }
  - { offsetInCU: 0x203B6, offset: 0x203B6, size: 0x8, addend: 0x0, symName: __ZNSt3__133__bitset_partition_partial_blocksB8ue170006INS_17_ClassicAlgPolicyERNS_6__lessIvvEEP12virtual_nodeS5_EEvRT1_S8_T0_RT2_RySC_, symObjAddr: 0xBD98, symBinAddr: 0x10000D34C, symSize: 0x2E8 }
  - { offsetInCU: 0x20537, offset: 0x20537, size: 0x8, addend: 0x0, symName: __ZNSt3__19make_pairB8ue170006IRP12virtual_nodeRbEENS_4pairINS_18__unwrap_ref_decayIT_E4typeENS6_IT0_E4typeEEEOS7_OSA_, symObjAddr: 0xC260, symBinAddr: 0x10000D814, symSize: 0x38 }
  - { offsetInCU: 0x20587, offset: 0x20587, size: 0x8, addend: 0x0, symName: __ZNSt3__112__libcpp_ctzB8ue170006Ey, symObjAddr: 0xC298, symBinAddr: 0x10000D84C, symSize: 0x20 }
  - { offsetInCU: 0x205B3, offset: 0x205B3, size: 0x8, addend: 0x0, symName: __ZNSt3__113__libcpp_blsrB8ue170006Ey, symObjAddr: 0xC2B8, symBinAddr: 0x10000D86C, symSize: 0x2C }
  - { offsetInCU: 0x205DF, offset: 0x205DF, size: 0x8, addend: 0x0, symName: __ZNSt3__112__libcpp_clzB8ue170006Ey, symObjAddr: 0xC318, symBinAddr: 0x10000D8CC, symSize: 0x1C }
  - { offsetInCU: 0x20731, offset: 0x20731, size: 0x8, addend: 0x0, symName: __ZNSt3__112__to_addressB8ue170006INS_11__wrap_iterIP12virtual_nodeEEvEEu7__decayIDTclsr19__to_address_helperIT_EE6__callclsr3stdE7declvalIRKS5_EEEEES7_, symObjAddr: 0xC3D0, symBinAddr: 0x10000D984, symSize: 0x24 }
  - { offsetInCU: 0x207CE, offset: 0x207CE, size: 0x8, addend: 0x0, symName: __ZNSt3__1eqB8ue170006IP12virtual_nodeEEbRKNS_11__wrap_iterIT_EES7_, symObjAddr: 0xC4EC, symBinAddr: 0x10000DAA0, symSize: 0x48 }
  - { offsetInCU: 0x20811, offset: 0x20811, size: 0x8, addend: 0x0, symName: __ZNSt3__122__make_exception_guardB8ue170006INS_6vectorIP4NodeNS_9allocatorIS3_EEE16__destroy_vectorEEENS_28__exception_guard_exceptionsIT_EES9_, symObjAddr: 0xC86C, symBinAddr: 0x10000DE20, symSize: 0x40 }
  - { offsetInCU: 0x20846, offset: 0x20846, size: 0x8, addend: 0x0, symName: __ZNSt3__119__allocate_at_leastB8ue170006INS_9allocatorIP4NodeEEEENS_19__allocation_resultINS_16allocator_traitsIT_E7pointerEEERS7_m, symObjAddr: 0xCC6C, symBinAddr: 0x10000E220, symSize: 0x40 }
  - { offsetInCU: 0x2088A, offset: 0x2088A, size: 0x8, addend: 0x0, symName: __ZNSt3__112__to_addressB8ue170006IP4NodeEEPT_S4_, symObjAddr: 0xCF80, symBinAddr: 0x10000E534, symSize: 0x14 }
  - { offsetInCU: 0x208BE, offset: 0x208BE, size: 0x8, addend: 0x0, symName: __ZNSt3__130__uninitialized_allocator_copyB8ue170006INS_9allocatorIP4NodeEEPKS3_S6_PS3_EET2_RT_T0_T1_S8_, symObjAddr: 0xD030, symBinAddr: 0x10000E5E4, symSize: 0x80 }
  - { offsetInCU: 0x2095B, offset: 0x2095B, size: 0x8, addend: 0x0, symName: __ZNSt3__114__unwrap_rangeB8ue170006IPKP4NodeS4_EEDaT_T0_, symObjAddr: 0xD120, symBinAddr: 0x10000E6D4, symSize: 0x3C }
  - { offsetInCU: 0x209A7, offset: 0x209A7, size: 0x8, addend: 0x0, symName: __ZNSt3__135__uninitialized_allocator_copy_implB8ue170006INS_9allocatorIP4NodeEEKS3_S3_S3_LPv0EEEPT2_RT_PT0_SC_S8_, symObjAddr: 0xD15C, symBinAddr: 0x10000E710, symSize: 0x38 }
  - { offsetInCU: 0x20A28, offset: 0x20A28, size: 0x8, addend: 0x0, symName: __ZNSt3__113__unwrap_iterB8ue170006IPP4NodeNS_18__unwrap_iter_implIS3_Lb1EEELi0EEEDTclsrT0_8__unwrapclsr3stdE7declvalIT_EEEES7_, symObjAddr: 0xD194, symBinAddr: 0x10000E748, symSize: 0x24 }
  - { offsetInCU: 0x20A6C, offset: 0x20A6C, size: 0x8, addend: 0x0, symName: __ZNSt3__113__rewrap_iterB8ue170006IPP4NodeS3_NS_18__unwrap_iter_implIS3_Lb1EEEEET_S6_T0_, symObjAddr: 0xD1B8, symBinAddr: 0x10000E76C, symSize: 0x3C }
  - { offsetInCU: 0x20BDD, offset: 0x20BDD, size: 0x8, addend: 0x0, symName: __ZNSt3__113__unwrap_iterB8ue170006IPKP4NodeNS_18__unwrap_iter_implIS4_Lb1EEELi0EEEDTclsrT0_8__unwrapclsr3stdE7declvalIT_EEEES8_, symObjAddr: 0xD24C, symBinAddr: 0x10000E800, symSize: 0x24 }
  - { offsetInCU: 0x20C75, offset: 0x20C75, size: 0x8, addend: 0x0, symName: __ZNSt3__112__to_addressB8ue170006IKP4NodeEEPT_S5_, symObjAddr: 0xD2D0, symBinAddr: 0x10000E884, symSize: 0x14 }
  - { offsetInCU: 0x20CA9, offset: 0x20CA9, size: 0x8, addend: 0x0, symName: __ZNSt3__14copyB8ue170006IPKP4NodePS2_EET0_T_S7_S6_, symObjAddr: 0xD318, symBinAddr: 0x10000E8CC, symSize: 0x40 }
  - { offsetInCU: 0x20D03, offset: 0x20D03, size: 0x8, addend: 0x0, symName: __ZNSt3__16__copyB8ue170006INS_17_ClassicAlgPolicyEPKP4NodeS5_PS3_EENS_4pairIT0_T2_EES8_T1_S9_, symObjAddr: 0xD358, symBinAddr: 0x10000E90C, symSize: 0x44 }
  - { offsetInCU: 0x20D6F, offset: 0x20D6F, size: 0x8, addend: 0x0, symName: __ZNSt3__123__dispatch_copy_or_moveB8ue170006INS_17_ClassicAlgPolicyENS_11__copy_loopIS1_EENS_14__copy_trivialEPKP4NodeS8_PS6_EENS_4pairIT2_T4_EESB_T3_SC_, symObjAddr: 0xD39C, symBinAddr: 0x10000E950, symSize: 0x44 }
  - { offsetInCU: 0x20DED, offset: 0x20DED, size: 0x8, addend: 0x0, symName: __ZNSt3__121__unwrap_and_dispatchB8ue170006INS_10__overloadINS_11__copy_loopINS_17_ClassicAlgPolicyEEENS_14__copy_trivialEEEPKP4NodeSA_PS8_Li0EEENS_4pairIT0_T2_EESD_T1_SE_, symObjAddr: 0xD3E0, symBinAddr: 0x10000E994, symSize: 0xB4 }
  - { offsetInCU: 0x20FC4, offset: 0x20FC4, size: 0x8, addend: 0x0, symName: __ZNSt3__19make_pairB8ue170006IPKP4NodePS2_EENS_4pairINS_18__unwrap_ref_decayIT_E4typeENS7_IT0_E4typeEEEOS8_OSB_, symObjAddr: 0xD4DC, symBinAddr: 0x10000EA90, symSize: 0x38 }
  - { offsetInCU: 0x21013, offset: 0x21013, size: 0x8, addend: 0x0, symName: __ZNSt3__114__rewrap_rangeB8ue170006IPKP4NodeS4_S4_EET0_S5_T1_, symObjAddr: 0xD514, symBinAddr: 0x10000EAC8, symSize: 0x2C }
  - { offsetInCU: 0x21068, offset: 0x21068, size: 0x8, addend: 0x0, symName: __ZNSt3__119__copy_trivial_implB8ue170006IKP4NodeS2_EENS_4pairIPT_PT0_EES6_S6_S8_, symObjAddr: 0xD540, symBinAddr: 0x10000EAF4, symSize: 0x80 }
  - { offsetInCU: 0x210D0, offset: 0x210D0, size: 0x8, addend: 0x0, symName: __ZNSt3__119__constexpr_memmoveB8ue170006IP4NodeKS2_Li0EEEPT_S5_PT0_NS_15__element_countE, symObjAddr: 0xD5C0, symBinAddr: 0x10000EB74, symSize: 0x64 }
  - { offsetInCU: 0x2113E, offset: 0x2113E, size: 0x8, addend: 0x0, symName: __ZNSt3__19make_pairB8ue170006IRPKP4NodePS2_EENS_4pairINS_18__unwrap_ref_decayIT_E4typeENS8_IT0_E4typeEEEOS9_OSC_, symObjAddr: 0xD624, symBinAddr: 0x10000EBD8, symSize: 0x38 }
  - { offsetInCU: 0x2118D, offset: 0x2118D, size: 0x8, addend: 0x0, symName: __ZNSt3__113__rewrap_iterB8ue170006IPKP4NodeS4_NS_18__unwrap_iter_implIS4_Lb1EEEEET_S7_T0_, symObjAddr: 0xD768, symBinAddr: 0x10000ED1C, symSize: 0x3C }
  - { offsetInCU: 0x21235, offset: 0x21235, size: 0x8, addend: 0x0, symName: __ZNSt3__110destroy_atB8ue170006IP4NodeLi0EEEvPT_, symObjAddr: 0xDB30, symBinAddr: 0x10000F0E4, symSize: 0x24 }
  - { offsetInCU: 0x2126D, offset: 0x2126D, size: 0x8, addend: 0x0, symName: __ZNSt3__112__destroy_atB8ue170006IP4NodeLi0EEEvPT_, symObjAddr: 0xDB54, symBinAddr: 0x10000F108, symSize: 0x10 }
  - { offsetInCU: 0x212A4, offset: 0x212A4, size: 0x8, addend: 0x0, symName: __ZNSt3__1neB8ue170006IPP4NodeEEbRKNS_11__wrap_iterIT_EES8_, symObjAddr: 0xDE40, symBinAddr: 0x10000F3F4, symSize: 0x34 }
  - { offsetInCU: 0x2131A, offset: 0x2131A, size: 0x8, addend: 0x0, symName: __ZNSt3__1eqB8ue170006IPP4NodeEEbRKNS_11__wrap_iterIT_EES8_, symObjAddr: 0xE4F0, symBinAddr: 0x10000FAA4, symSize: 0x48 }
  - { offsetInCU: 0x21381, offset: 0x21381, size: 0x8, addend: 0x0, symName: __ZNSt3__17launderB8ue170006IKNS_4pairIKNS_5arrayIhLm16EEEP4NodeEEEEPT_SA_, symObjAddr: 0xED5C, symBinAddr: 0x100010310, symSize: 0x24 }
  - { offsetInCU: 0x213B8, offset: 0x213B8, size: 0x8, addend: 0x0, symName: __ZNSt3__19__launderB8ue170006IKNS_4pairIKNS_5arrayIhLm16EEEP4NodeEEEEPT_SA_, symObjAddr: 0xED80, symBinAddr: 0x100010334, symSize: 0x14 }
  - { offsetInCU: 0x21433, offset: 0x21433, size: 0x8, addend: 0x0, symName: __ZNSt3__112construct_atB8ue170006INS_4pairIKNS_5arrayIhLm16EEEP4NodeEEJS7_EPS7_EEPT_SA_DpOT0_, symObjAddr: 0xF114, symBinAddr: 0x1000106C8, symSize: 0x34 }
  - { offsetInCU: 0x214A4, offset: 0x214A4, size: 0x8, addend: 0x0, symName: __ZNSt3__17launderB8ue170006INS_4pairIKNS_5arrayIhLm16EEEP4NodeEEEEPT_S9_, symObjAddr: 0xF16C, symBinAddr: 0x100010720, symSize: 0x24 }
  - { offsetInCU: 0x214DB, offset: 0x214DB, size: 0x8, addend: 0x0, symName: __ZNSt3__19__launderB8ue170006INS_4pairIKNS_5arrayIhLm16EEEP4NodeEEEEPT_S9_, symObjAddr: 0xF190, symBinAddr: 0x100010744, symSize: 0x14 }
  - { offsetInCU: 0x21512, offset: 0x21512, size: 0x8, addend: 0x0, symName: __ZNSt3__127__tree_balance_after_insertB8ue170006IPNS_16__tree_node_baseIPvEEEEvT_S5_, symObjAddr: 0xF218, symBinAddr: 0x1000107CC, symSize: 0x32C }
  - { offsetInCU: 0x2158F, offset: 0x2158F, size: 0x8, addend: 0x0, symName: __ZNSt3__120__tree_is_left_childB8ue170006IPNS_16__tree_node_baseIPvEEEEbT_, symObjAddr: 0xF584, symBinAddr: 0x100010B38, symSize: 0x2C }
  - { offsetInCU: 0x215C3, offset: 0x215C3, size: 0x8, addend: 0x0, symName: __ZNSt3__118__tree_left_rotateB8ue170006IPNS_16__tree_node_baseIPvEEEEvT_, symObjAddr: 0xF5B0, symBinAddr: 0x100010B64, symSize: 0xD8 }
  - { offsetInCU: 0x21605, offset: 0x21605, size: 0x8, addend: 0x0, symName: __ZNSt3__119__tree_right_rotateB8ue170006IPNS_16__tree_node_baseIPvEEEEvT_, symObjAddr: 0xF688, symBinAddr: 0x100010C3C, symSize: 0xCC }
  - { offsetInCU: 0x21647, offset: 0x21647, size: 0x8, addend: 0x0, symName: __ZNSt3__110destroy_atB8ue170006INS_4pairIKNS_5arrayIhLm16EEEP4NodeEELi0EEEvPT_, symObjAddr: 0xF96C, symBinAddr: 0x100010F20, symSize: 0x24 }
  - { offsetInCU: 0x2167F, offset: 0x2167F, size: 0x8, addend: 0x0, symName: __ZNSt3__112__destroy_atB8ue170006INS_4pairIKNS_5arrayIhLm16EEEP4NodeEELi0EEEvPT_, symObjAddr: 0xF990, symBinAddr: 0x100010F44, symSize: 0x10 }
  - { offsetInCU: 0x216B7, offset: 0x216B7, size: 0x8, addend: 0x0, symName: __ZNSt3__112__to_addressB8ue170006INS_10unique_ptrI4NodeNS_14default_deleteIS2_EEEEEEPT_S7_, symObjAddr: 0xFE6C, symBinAddr: 0x100011420, symSize: 0x14 }
  - { offsetInCU: 0x216EB, offset: 0x216EB, size: 0x8, addend: 0x0, symName: __ZNSt3__110destroy_atB8ue170006INS_10unique_ptrI4NodeNS_14default_deleteIS2_EEEELi0EEEvPT_, symObjAddr: 0xFE80, symBinAddr: 0x100011434, symSize: 0x24 }
  - { offsetInCU: 0x21722, offset: 0x21722, size: 0x8, addend: 0x0, symName: __ZNSt3__112__destroy_atB8ue170006INS_10unique_ptrI4NodeNS_14default_deleteIS2_EEEELi0EEEvPT_, symObjAddr: 0xFEA4, symBinAddr: 0x100011458, symSize: 0x24 }
  - { offsetInCU: 0x21823, offset: 0x21823, size: 0x8, addend: 0x0, symName: __ZNSt3__122__make_exception_guardB8ue170006INS_6vectorINS_4pairINS_12basic_stringIcNS_11char_traitsIcEENS_9allocatorIcEEEES8_EENS6_IS9_EEE16__destroy_vectorEEENS_28__exception_guard_exceptionsIT_EESE_, symObjAddr: 0x1070C, symBinAddr: 0x100011CC0, symSize: 0x40 }
  - { offsetInCU: 0x21858, offset: 0x21858, size: 0x8, addend: 0x0, symName: __ZNSt3__119__allocate_at_leastB8ue170006INS_9allocatorINS_4pairINS_12basic_stringIcNS_11char_traitsIcEENS1_IcEEEES7_EEEEEENS_19__allocation_resultINS_16allocator_traitsIT_E7pointerEEERSC_m, symObjAddr: 0x10B1C, symBinAddr: 0x1000120D0, symSize: 0x40 }
  - { offsetInCU: 0x2189C, offset: 0x2189C, size: 0x8, addend: 0x0, symName: __ZNSt3__112__to_addressB8ue170006INS_4pairINS_12basic_stringIcNS_11char_traitsIcEENS_9allocatorIcEEEES7_EEEEPT_SA_, symObjAddr: 0x10E50, symBinAddr: 0x100012404, symSize: 0x14 }
  - { offsetInCU: 0x218D0, offset: 0x218D0, size: 0x8, addend: 0x0, symName: __ZNSt3__130__uninitialized_allocator_copyB8ue170006INS_9allocatorINS_4pairINS_12basic_stringIcNS_11char_traitsIcEENS1_IcEEEES7_EEEEPKS8_SB_PS8_EET2_RT_T0_T1_SD_, symObjAddr: 0x10F00, symBinAddr: 0x1000124B4, symSize: 0x80 }
  - { offsetInCU: 0x2196D, offset: 0x2196D, size: 0x8, addend: 0x0, symName: __ZNSt3__114__unwrap_rangeB8ue170006IPKNS_4pairINS_12basic_stringIcNS_11char_traitsIcEENS_9allocatorIcEEEES7_EESA_EEDaT_T0_, symObjAddr: 0x10FF8, symBinAddr: 0x1000125AC, symSize: 0x3C }
  - { offsetInCU: 0x219B9, offset: 0x219B9, size: 0x8, addend: 0x0, symName: __ZNSt3__135__uninitialized_allocator_copy_implB8ue170006INS_9allocatorINS_4pairINS_12basic_stringIcNS_11char_traitsIcEENS1_IcEEEES7_EEEEPKS8_SB_PS8_EET2_RT_T0_T1_SD_, symObjAddr: 0x11034, symBinAddr: 0x1000125E8, symSize: 0xF4 }
  - { offsetInCU: 0x21A57, offset: 0x21A57, size: 0x8, addend: 0x0, symName: __ZNSt3__113__unwrap_iterB8ue170006IPNS_4pairINS_12basic_stringIcNS_11char_traitsIcEENS_9allocatorIcEEEES7_EENS_18__unwrap_iter_implIS9_Lb1EEELi0EEEDTclsrT0_8__unwrapclsr3stdE7declvalIT_EEEESD_, symObjAddr: 0x11128, symBinAddr: 0x1000126DC, symSize: 0x24 }
  - { offsetInCU: 0x21A9B, offset: 0x21A9B, size: 0x8, addend: 0x0, symName: __ZNSt3__113__rewrap_iterB8ue170006IPNS_4pairINS_12basic_stringIcNS_11char_traitsIcEENS_9allocatorIcEEEES7_EES9_NS_18__unwrap_iter_implIS9_Lb1EEEEET_SC_T0_, symObjAddr: 0x1114C, symBinAddr: 0x100012700, symSize: 0x3C }
  - { offsetInCU: 0x21BF2, offset: 0x21BF2, size: 0x8, addend: 0x0, symName: __ZNSt3__113__unwrap_iterB8ue170006IPKNS_4pairINS_12basic_stringIcNS_11char_traitsIcEENS_9allocatorIcEEEES7_EENS_18__unwrap_iter_implISA_Lb1EEELi0EEEDTclsrT0_8__unwrapclsr3stdE7declvalIT_EEEESE_, symObjAddr: 0x111E0, symBinAddr: 0x100012794, symSize: 0x24 }
  - { offsetInCU: 0x21C8A, offset: 0x21C8A, size: 0x8, addend: 0x0, symName: __ZNSt3__112__to_addressB8ue170006IKNS_4pairINS_12basic_stringIcNS_11char_traitsIcEENS_9allocatorIcEEEES7_EEEEPT_SB_, symObjAddr: 0x11264, symBinAddr: 0x100012818, symSize: 0x14 }
  - { offsetInCU: 0x21CBE, offset: 0x21CBE, size: 0x8, addend: 0x0, symName: __ZNSt3__122__make_exception_guardB8ue170006INS_29_AllocatorDestroyRangeReverseINS_9allocatorINS_4pairINS_12basic_stringIcNS_11char_traitsIcEENS2_IcEEEES8_EEEEPS9_EEEENS_28__exception_guard_exceptionsIT_EESE_, symObjAddr: 0x112AC, symBinAddr: 0x100012860, symSize: 0x4C }
  - { offsetInCU: 0x21D19, offset: 0x21D19, size: 0x8, addend: 0x0, symName: __ZNSt3__112construct_atB8ue170006INS_4pairINS_12basic_stringIcNS_11char_traitsIcEENS_9allocatorIcEEEES7_EEJRKS8_EPS8_EEPT_SD_DpOT0_, symObjAddr: 0x11450, symBinAddr: 0x100012A04, symSize: 0x3C }
  - { offsetInCU: 0x21D8B, offset: 0x21D8B, size: 0x8, addend: 0x0, symName: __ZNSt3__119__allocator_destroyB8ue170006INS_9allocatorINS_4pairINS_12basic_stringIcNS_11char_traitsIcEENS1_IcEEEES7_EEEENS_16reverse_iteratorIPS8_EESC_EEvRT_T0_T1_, symObjAddr: 0x115E8, symBinAddr: 0x100012B9C, symSize: 0x70 }
  - { offsetInCU: 0x21DEE, offset: 0x21DEE, size: 0x8, addend: 0x0, symName: __ZNSt3__1neB8ue170006IPNS_4pairINS_12basic_stringIcNS_11char_traitsIcEENS_9allocatorIcEEEES7_EES9_EEbRKNS_16reverse_iteratorIT_EERKNSA_IT0_EE, symObjAddr: 0x1168C, symBinAddr: 0x100012C40, symSize: 0x48 }
  - { offsetInCU: 0x21E3A, offset: 0x21E3A, size: 0x8, addend: 0x0, symName: __ZNSt3__112__to_addressB8ue170006INS_16reverse_iteratorIPNS_4pairINS_12basic_stringIcNS_11char_traitsIcEENS_9allocatorIcEEEES8_EEEEvEEu7__decayIDTclsr19__to_address_helperIT_EE6__callclsr3stdE7declvalIRKSC_EEEEESE_, symObjAddr: 0x116FC, symBinAddr: 0x100012CB0, symSize: 0x24 }
  - { offsetInCU: 0x21E70, offset: 0x21E70, size: 0x8, addend: 0x0, symName: __ZNSt3__110destroy_atB8ue170006INS_4pairINS_12basic_stringIcNS_11char_traitsIcEENS_9allocatorIcEEEES7_EELi0EEEvPT_, symObjAddr: 0x11758, symBinAddr: 0x100012D0C, symSize: 0x24 }
  - { offsetInCU: 0x21EA7, offset: 0x21EA7, size: 0x8, addend: 0x0, symName: __ZNSt3__112__destroy_atB8ue170006INS_4pairINS_12basic_stringIcNS_11char_traitsIcEENS_9allocatorIcEEEES7_EELi0EEEvPT_, symObjAddr: 0x1177C, symBinAddr: 0x100012D30, symSize: 0x24 }
  - { offsetInCU: 0x21F07, offset: 0x21F07, size: 0x8, addend: 0x0, symName: __ZNSt3__14prevB8ue170006IPNS_4pairINS_12basic_stringIcNS_11char_traitsIcEENS_9allocatorIcEEEES7_EEEENS_9enable_ifIXsr29__has_input_iterator_categoryIT_EE5valueESB_E4typeESB_NS_15iterator_traitsISB_E15difference_typeE, symObjAddr: 0x11804, symBinAddr: 0x100012DB8, symSize: 0x3C }
  - { offsetInCU: 0x21F4B, offset: 0x21F4B, size: 0x8, addend: 0x0, symName: __ZNSt3__19__advanceB8ue170006IPNS_4pairINS_12basic_stringIcNS_11char_traitsIcEENS_9allocatorIcEEEES7_EEEEvRT_NS_15iterator_traitsISA_E15difference_typeENS_26random_access_iterator_tagE, symObjAddr: 0x11878, symBinAddr: 0x100012E2C, symSize: 0x30 }
  - { offsetInCU: 0x21FE7, offset: 0x21FE7, size: 0x8, addend: 0x0, symName: __ZNSt3__1eqB8ue170006IPNS_4pairINS_12basic_stringIcNS_11char_traitsIcEENS_9allocatorIcEEEES7_EEEEbRKNS_11__wrap_iterIT_EESE_, symObjAddr: 0x11CF8, symBinAddr: 0x1000132AC, symSize: 0x48 }
  - { offsetInCU: 0x22CEB, offset: 0x22CEB, size: 0x8, addend: 0x0, symName: __ZNSt3__13minB8ue170006IiEERKT_S3_S3_, symObjAddr: 0x125A8, symBinAddr: 0x100013B5C, symSize: 0x2C }
  - { offsetInCU: 0x22D2E, offset: 0x22D2E, size: 0x8, addend: 0x0, symName: __ZNSt3__1eqB8ue170006ERKNS_14__map_iteratorINS_15__tree_iteratorINS_12__value_typeINS_5arrayIhLm16EEEP4NodeEEPNS_11__tree_nodeIS7_PvEElEEEESF_, symObjAddr: 0x12648, symBinAddr: 0x100013BFC, symSize: 0x30 }
  - { offsetInCU: 0x22D6B, offset: 0x22D6B, size: 0x8, addend: 0x0, symName: __ZNSt3__13minB8ue170006IiNS_6__lessIvvEEEERKT_S5_S5_T0_, symObjAddr: 0x12B38, symBinAddr: 0x1000140EC, symSize: 0x54 }
  - { offsetInCU: 0x22DC5, offset: 0x22DC5, size: 0x8, addend: 0x0, symName: __ZNSt3__1eqB8ue170006ERKNS_15__tree_iteratorINS_12__value_typeINS_5arrayIhLm16EEEP4NodeEEPNS_11__tree_nodeIS6_PvEElEESD_, symObjAddr: 0x12D78, symBinAddr: 0x10001432C, symSize: 0x30 }
  - { offsetInCU: 0x22E68, offset: 0x22E68, size: 0x8, addend: 0x0, symName: __ZNSt3__1neB8ue170006ERKNS_21__tree_const_iteratorIP4NodePNS_11__tree_nodeIS2_PvEElEES9_, symObjAddr: 0x12E60, symBinAddr: 0x100014414, symSize: 0x34 }
  - { offsetInCU: 0x22EA5, offset: 0x22EA5, size: 0x8, addend: 0x0, symName: __ZNSt3__1eqB8ue170006ERKNS_21__tree_const_iteratorIP4NodePNS_11__tree_nodeIS2_PvEElEES9_, symObjAddr: 0x12EF4, symBinAddr: 0x1000144A8, symSize: 0x30 }
  - { offsetInCU: 0x22F08, offset: 0x22F08, size: 0x8, addend: 0x0, symName: __ZNSt3__112construct_atB8ue170006IP4NodeJRKS2_EPS2_EEPT_S7_DpOT0_, symObjAddr: 0x1342C, symBinAddr: 0x1000149E0, symSize: 0x2C }
  - { offsetInCU: 0x22F79, offset: 0x22F79, size: 0x8, addend: 0x0, symName: __ZNSt3__142__uninitialized_allocator_move_if_noexceptB8ue170006INS_9allocatorIP4NodeEENS_16reverse_iteratorIPS3_EES7_S3_vEET1_RT_T0_SB_S8_, symObjAddr: 0x138B8, symBinAddr: 0x100014E6C, symSize: 0x78 }
  - { offsetInCU: 0x22FF7, offset: 0x22FF7, size: 0x8, addend: 0x0, symName: __ZNSt3__14swapB8ue170006IPP4NodeEENS_9enable_ifIXaasr21is_move_constructibleIT_EE5valuesr18is_move_assignableIS5_EE5valueEvE4typeERS5_S8_, symObjAddr: 0x1397C, symBinAddr: 0x100014F30, symSize: 0x3C }
  - { offsetInCU: 0x23047, offset: 0x23047, size: 0x8, addend: 0x0, symName: __ZNSt3__14moveB8ue170006INS_16reverse_iteratorIPP4NodeEES5_EET0_T_S7_S6_, symObjAddr: 0x139B8, symBinAddr: 0x100014F6C, symSize: 0x78 }
  - { offsetInCU: 0x230A1, offset: 0x230A1, size: 0x8, addend: 0x0, symName: __ZNSt3__16__moveB8ue170006INS_17_ClassicAlgPolicyENS_16reverse_iteratorIPP4NodeEES6_S6_EENS_4pairIT0_T2_EES8_T1_S9_, symObjAddr: 0x13A30, symBinAddr: 0x100014FE4, symSize: 0x64 }
  - { offsetInCU: 0x2310D, offset: 0x2310D, size: 0x8, addend: 0x0, symName: __ZNSt3__123__dispatch_copy_or_moveB8ue170006INS_17_ClassicAlgPolicyENS_11__move_loopIS1_EENS_14__move_trivialENS_16reverse_iteratorIPP4NodeEES9_S9_EENS_4pairIT2_T4_EESB_T3_SC_, symObjAddr: 0x13A94, symBinAddr: 0x100015048, symSize: 0x64 }
  - { offsetInCU: 0x2318B, offset: 0x2318B, size: 0x8, addend: 0x0, symName: __ZNSt3__121__unwrap_and_dispatchB8ue170006INS_10__overloadINS_11__move_loopINS_17_ClassicAlgPolicyEEENS_14__move_trivialEEENS_16reverse_iteratorIPP4NodeEESB_SB_Li0EEENS_4pairIT0_T2_EESD_T1_SE_, symObjAddr: 0x13AF8, symBinAddr: 0x1000150AC, symSize: 0x12C }
  - { offsetInCU: 0x2321B, offset: 0x2321B, size: 0x8, addend: 0x0, symName: __ZNSt3__114__unwrap_rangeB8ue170006INS_16reverse_iteratorIPP4NodeEES5_EEDaT_T0_, symObjAddr: 0x13C24, symBinAddr: 0x1000151D8, symSize: 0x4C }
  - { offsetInCU: 0x2338D, offset: 0x2338D, size: 0x8, addend: 0x0, symName: __ZNSt3__113__unwrap_iterB8ue170006INS_16reverse_iteratorIPP4NodeEENS_18__unwrap_iter_implIS5_Lb0EEELi0EEEDTclsrT0_8__unwrapclsr3stdE7declvalIT_EEEES9_, symObjAddr: 0x13D10, symBinAddr: 0x1000152C4, symSize: 0x44 }
  - { offsetInCU: 0x233D1, offset: 0x233D1, size: 0x8, addend: 0x0, symName: __ZNSt3__19make_pairB8ue170006INS_16reverse_iteratorIPP4NodeEES5_EENS_4pairINS_18__unwrap_ref_decayIT_E4typeENS7_IT0_E4typeEEEOS8_OSB_, symObjAddr: 0x13D54, symBinAddr: 0x100015308, symSize: 0x38 }
  - { offsetInCU: 0x23420, offset: 0x23420, size: 0x8, addend: 0x0, symName: __ZNSt3__114__rewrap_rangeB8ue170006INS_16reverse_iteratorIPP4NodeEES5_S5_EET0_S6_T1_, symObjAddr: 0x13D8C, symBinAddr: 0x100015340, symSize: 0x5C }
  - { offsetInCU: 0x23475, offset: 0x23475, size: 0x8, addend: 0x0, symName: __ZNSt3__113__rewrap_iterB8ue170006INS_16reverse_iteratorIPP4NodeEES5_NS_18__unwrap_iter_implIS5_Lb0EEEEET_S8_T0_, symObjAddr: 0x13DE8, symBinAddr: 0x10001539C, symSize: 0x74 }
  - { offsetInCU: 0x2351A, offset: 0x2351A, size: 0x8, addend: 0x0, symName: __ZNSt3__1neB8ue170006IPP4NodeS3_EEbRKNS_16reverse_iteratorIT_EERKNS4_IT0_EE, symObjAddr: 0x13F50, symBinAddr: 0x100015504, symSize: 0x48 }
  - { offsetInCU: 0x23615, offset: 0x23615, size: 0x8, addend: 0x0, symName: __ZNSt3__116__constrain_hashB8ue170006Emm, symObjAddr: 0x15788, symBinAddr: 0x100016D3C, symSize: 0x98 }
  - { offsetInCU: 0x2364F, offset: 0x2364F, size: 0x8, addend: 0x0, symName: __ZNSt3__116__is_hash_power2B8ue170006Em, symObjAddr: 0x15AA0, symBinAddr: 0x100017054, symSize: 0x50 }
  - { offsetInCU: 0x2367A, offset: 0x2367A, size: 0x8, addend: 0x0, symName: __ZNSt3__116__do_string_hashB8ue170006IPKcEEmT_S3_, symObjAddr: 0x15CF8, symBinAddr: 0x1000172AC, symSize: 0x3C }
  - { offsetInCU: 0x236C1, offset: 0x236C1, size: 0x8, addend: 0x0, symName: __ZNSt3__110__loadwordB8ue170006ImEET_PKv, symObjAddr: 0x166EC, symBinAddr: 0x100017CA0, symSize: 0x20 }
  - { offsetInCU: 0x23704, offset: 0x23704, size: 0x8, addend: 0x0, symName: __ZNSt3__14swapB8ue170006ImEENS_9enable_ifIXaasr21is_move_constructibleIT_EE5valuesr18is_move_assignableIS2_EE5valueEvE4typeERS2_S5_, symObjAddr: 0x168A8, symBinAddr: 0x100017E5C, symSize: 0x3C }
  - { offsetInCU: 0x23755, offset: 0x23755, size: 0x8, addend: 0x0, symName: __ZNSt3__110__loadwordB8ue170006IjEET_PKv, symObjAddr: 0x16938, symBinAddr: 0x100017EEC, symSize: 0x20 }
  - { offsetInCU: 0x23797, offset: 0x23797, size: 0x8, addend: 0x0, symName: __ZNSt3__17launderB8ue170006IKNS_4pairIKNS_12basic_stringIcNS_11char_traitsIcEENS_9allocatorIcEEEE9data_nodeEEEEPT_SD_, symObjAddr: 0x16C14, symBinAddr: 0x1000181C8, symSize: 0x24 }
  - { offsetInCU: 0x237CE, offset: 0x237CE, size: 0x8, addend: 0x0, symName: __ZNSt3__19__launderB8ue170006IKNS_4pairIKNS_12basic_stringIcNS_11char_traitsIcEENS_9allocatorIcEEEE9data_nodeEEEEPT_SD_, symObjAddr: 0x16C38, symBinAddr: 0x1000181EC, symSize: 0x14 }
  - { offsetInCU: 0x23848, offset: 0x23848, size: 0x8, addend: 0x0, symName: __ZNSt3__112construct_atB8ue170006INS_4pairIKNS_12basic_stringIcNS_11char_traitsIcEENS_9allocatorIcEEEE9data_nodeEEJRS7_RS9_EPSA_EEPT_SF_DpOT0_, symObjAddr: 0x16F28, symBinAddr: 0x1000184DC, symSize: 0x44 }
  - { offsetInCU: 0x238CD, offset: 0x238CD, size: 0x8, addend: 0x0, symName: __ZNSt3__116__next_hash_pow2B8ue170006Em, symObjAddr: 0x17590, symBinAddr: 0x100018B44, symSize: 0x6C }
  - { offsetInCU: 0x23916, offset: 0x23916, size: 0x8, addend: 0x0, symName: __ZNSt3__1eqB8ue170006ERKNS_19__hash_map_iteratorINS_15__hash_iteratorIPNS_11__hash_nodeINS_17__hash_value_typeINS_12basic_stringIcNS_11char_traitsIcEENS_9allocatorIcEEEE9data_nodeEEPvEEEEEESI_, symObjAddr: 0x17A68, symBinAddr: 0x10001901C, symSize: 0x30 }
  - { offsetInCU: 0x23953, offset: 0x23953, size: 0x8, addend: 0x0, symName: __ZNSt3__1eqB8ue170006ERKNS_15__hash_iteratorIPNS_11__hash_nodeINS_17__hash_value_typeINS_12basic_stringIcNS_11char_traitsIcEENS_9allocatorIcEEEE9data_nodeEEPvEEEESG_, symObjAddr: 0x17CD8, symBinAddr: 0x10001928C, symSize: 0x30 }
  - { offsetInCU: 0x239F7, offset: 0x239F7, size: 0x8, addend: 0x0, symName: __ZNSt3__112__to_addressB8ue170006INS_12basic_stringIcNS_11char_traitsIcEENS_9allocatorIcEEEEEEPT_S8_, symObjAddr: 0x18140, symBinAddr: 0x1000196F4, symSize: 0x14 }
  - { offsetInCU: 0x23A50, offset: 0x23A50, size: 0x8, addend: 0x0, symName: __ZNSt3__112construct_atB8ue170006INS_12basic_stringIcNS_11char_traitsIcEENS_9allocatorIcEEEEJS6_EPS6_EEPT_S9_DpOT0_, symObjAddr: 0x181CC, symBinAddr: 0x100019780, symSize: 0x3C }
  - { offsetInCU: 0x23AC2, offset: 0x23AC2, size: 0x8, addend: 0x0, symName: __ZNSt3__119__allocate_at_leastB8ue170006INS_9allocatorINS_12basic_stringIcNS_11char_traitsIcEENS1_IcEEEEEEEENS_19__allocation_resultINS_16allocator_traitsIT_E7pointerEEERSA_m, symObjAddr: 0x1877C, symBinAddr: 0x100019D30, symSize: 0x40 }
  - { offsetInCU: 0x23B05, offset: 0x23B05, size: 0x8, addend: 0x0, symName: __ZNSt3__142__uninitialized_allocator_move_if_noexceptB8ue170006INS_9allocatorINS_12basic_stringIcNS_11char_traitsIcEENS1_IcEEEEEENS_16reverse_iteratorIPS6_EESA_SA_EET2_RT_T0_T1_SB_, symObjAddr: 0x18A08, symBinAddr: 0x100019FBC, symSize: 0x12C }
  - { offsetInCU: 0x23BA6, offset: 0x23BA6, size: 0x8, addend: 0x0, symName: __ZNSt3__14swapB8ue170006IPNS_12basic_stringIcNS_11char_traitsIcEENS_9allocatorIcEEEEEENS_9enable_ifIXaasr21is_move_constructibleIT_EE5valuesr18is_move_assignableIS9_EE5valueEvE4typeERS9_SC_, symObjAddr: 0x18B80, symBinAddr: 0x10001A134, symSize: 0x3C }
  - { offsetInCU: 0x23BF6, offset: 0x23BF6, size: 0x8, addend: 0x0, symName: __ZNSt3__122__make_exception_guardB8ue170006INS_29_AllocatorDestroyRangeReverseINS_9allocatorINS_12basic_stringIcNS_11char_traitsIcEENS2_IcEEEEEENS_16reverse_iteratorIPS7_EEEEEENS_28__exception_guard_exceptionsIT_EESE_, symObjAddr: 0x18CCC, symBinAddr: 0x10001A280, symSize: 0x4C }
  - { offsetInCU: 0x23C2C, offset: 0x23C2C, size: 0x8, addend: 0x0, symName: __ZNSt3__1neB8ue170006IPNS_12basic_stringIcNS_11char_traitsIcEENS_9allocatorIcEEEES7_EEbRKNS_16reverse_iteratorIT_EERKNS8_IT0_EE, symObjAddr: 0x18D5C, symBinAddr: 0x10001A310, symSize: 0x48 }
  - { offsetInCU: 0x23C78, offset: 0x23C78, size: 0x8, addend: 0x0, symName: __ZNSt3__112__to_addressB8ue170006INS_16reverse_iteratorIPNS_12basic_stringIcNS_11char_traitsIcEENS_9allocatorIcEEEEEEvEEu7__decayIDTclsr19__to_address_helperIT_EE6__callclsr3stdE7declvalIRKSA_EEEEESC_, symObjAddr: 0x18DA4, symBinAddr: 0x10001A358, symSize: 0x24 }
  - { offsetInCU: 0x23CD7, offset: 0x23CD7, size: 0x8, addend: 0x0, symName: __ZNSt3__14prevB8ue170006IPNS_12basic_stringIcNS_11char_traitsIcEENS_9allocatorIcEEEEEENS_9enable_ifIXsr29__has_input_iterator_categoryIT_EE5valueES9_E4typeES9_NS_15iterator_traitsIS9_E15difference_typeE, symObjAddr: 0x18F58, symBinAddr: 0x10001A50C, symSize: 0x3C }
  - { offsetInCU: 0x23D1B, offset: 0x23D1B, size: 0x8, addend: 0x0, symName: __ZNSt3__19__advanceB8ue170006IPNS_12basic_stringIcNS_11char_traitsIcEENS_9allocatorIcEEEEEEvRT_NS_15iterator_traitsIS8_E15difference_typeENS_26random_access_iterator_tagE, symObjAddr: 0x18FCC, symBinAddr: 0x10001A580, symSize: 0x30 }
  - { offsetInCU: 0x23D64, offset: 0x23D64, size: 0x8, addend: 0x0, symName: __ZNSt3__119__allocator_destroyB8ue170006INS_9allocatorINS_12basic_stringIcNS_11char_traitsIcEENS1_IcEEEEEENS_16reverse_iteratorINS8_IPS6_EEEESB_EEvRT_T0_T1_, symObjAddr: 0x19100, symBinAddr: 0x10001A6B4, symSize: 0x70 }
  - { offsetInCU: 0x23DC9, offset: 0x23DC9, size: 0x8, addend: 0x0, symName: __ZNSt3__1neB8ue170006INS_16reverse_iteratorIPNS_12basic_stringIcNS_11char_traitsIcEENS_9allocatorIcEEEEEES9_EEbRKNS1_IT_EERKNS1_IT0_EE, symObjAddr: 0x191AC, symBinAddr: 0x10001A760, symSize: 0x60 }
  - { offsetInCU: 0x23E15, offset: 0x23E15, size: 0x8, addend: 0x0, symName: __ZNSt3__112__to_addressB8ue170006INS_16reverse_iteratorINS1_IPNS_12basic_stringIcNS_11char_traitsIcEENS_9allocatorIcEEEEEEEEvEEu7__decayIDTclsr19__to_address_helperIT_EE6__callclsr3stdE7declvalIRKSB_EEEEESD_, symObjAddr: 0x19234, symBinAddr: 0x10001A7E8, symSize: 0x24 }
  - { offsetInCU: 0x23E4B, offset: 0x23E4B, size: 0x8, addend: 0x0, symName: __ZNSt3__110destroy_atB8ue170006INS_12basic_stringIcNS_11char_traitsIcEENS_9allocatorIcEEEELi0EEEvPT_, symObjAddr: 0x192AC, symBinAddr: 0x10001A860, symSize: 0x24 }
  - { offsetInCU: 0x23E82, offset: 0x23E82, size: 0x8, addend: 0x0, symName: __ZNSt3__112__destroy_atB8ue170006INS_12basic_stringIcNS_11char_traitsIcEENS_9allocatorIcEEEELi0EEEvPT_, symObjAddr: 0x192D0, symBinAddr: 0x10001A884, symSize: 0x24 }
  - { offsetInCU: 0x23EE2, offset: 0x23EE2, size: 0x8, addend: 0x0, symName: __ZNSt3__14prevB8ue170006INS_16reverse_iteratorIPNS_12basic_stringIcNS_11char_traitsIcEENS_9allocatorIcEEEEEEEENS_9enable_ifIXsr29__has_input_iterator_categoryIT_EE5valueESB_E4typeESB_NS_15iterator_traitsISB_E15difference_typeE, symObjAddr: 0x19378, symBinAddr: 0x10001A92C, symSize: 0x4C }
  - { offsetInCU: 0x23F25, offset: 0x23F25, size: 0x8, addend: 0x0, symName: __ZNSt3__19__advanceB8ue170006INS_16reverse_iteratorIPNS_12basic_stringIcNS_11char_traitsIcEENS_9allocatorIcEEEEEEEEvRT_NS_15iterator_traitsISA_E15difference_typeENS_26random_access_iterator_tagE, symObjAddr: 0x193FC, symBinAddr: 0x10001A9B0, symSize: 0x2C }
  - { offsetInCU: 0x23F6E, offset: 0x23F6E, size: 0x8, addend: 0x0, symName: __ZNSt3__1eqB8ue170006IPNS_12basic_stringIcNS_11char_traitsIcEENS_9allocatorIcEEEEEEbRKNS_11__wrap_iterIT_EESC_, symObjAddr: 0x197B4, symBinAddr: 0x10001AD68, symSize: 0x48 }
  - { offsetInCU: 0x23FB1, offset: 0x23FB1, size: 0x8, addend: 0x0, symName: __ZNSt3__111make_uniqueB8ue170006I4NodeJRKNS_12basic_stringIcNS_11char_traitsIcEENS_9allocatorIcEEEERiEEENS_11__unique_ifIT_E15__unique_singleEDpOT0_, symObjAddr: 0x19A0C, symBinAddr: 0x10001AFC0, symSize: 0xDC }
  - { offsetInCU: 0x2402C, offset: 0x2402C, size: 0x8, addend: 0x0, symName: __ZNSt3__112construct_atB8ue170006INS_10unique_ptrI4NodeNS_14default_deleteIS2_EEEEJS5_EPS5_EEPT_S8_DpOT0_, symObjAddr: 0x19F84, symBinAddr: 0x10001B538, symSize: 0x3C }
  - { offsetInCU: 0x2409E, offset: 0x2409E, size: 0x8, addend: 0x0, symName: __ZNSt3__119__allocate_at_leastB8ue170006INS_9allocatorINS_10unique_ptrI4NodeNS_14default_deleteIS3_EEEEEEEENS_19__allocation_resultINS_16allocator_traitsIT_E7pointerEEERSA_m, symObjAddr: 0x1A5E0, symBinAddr: 0x10001BB94, symSize: 0x40 }
  - { offsetInCU: 0x240E1, offset: 0x240E1, size: 0x8, addend: 0x0, symName: __ZNSt3__142__uninitialized_allocator_move_if_noexceptB8ue170006INS_9allocatorINS_10unique_ptrI4NodeNS_14default_deleteIS3_EEEEEENS_16reverse_iteratorIPS6_EESA_SA_EET2_RT_T0_T1_SB_, symObjAddr: 0x1A794, symBinAddr: 0x10001BD48, symSize: 0x12C }
  - { offsetInCU: 0x24182, offset: 0x24182, size: 0x8, addend: 0x0, symName: __ZNSt3__14swapB8ue170006IPNS_10unique_ptrI4NodeNS_14default_deleteIS2_EEEEEENS_9enable_ifIXaasr21is_move_constructibleIT_EE5valuesr18is_move_assignableIS8_EE5valueEvE4typeERS8_SB_, symObjAddr: 0x1A90C, symBinAddr: 0x10001BEC0, symSize: 0x3C }
  - { offsetInCU: 0x241D2, offset: 0x241D2, size: 0x8, addend: 0x0, symName: __ZNSt3__122__make_exception_guardB8ue170006INS_29_AllocatorDestroyRangeReverseINS_9allocatorINS_10unique_ptrI4NodeNS_14default_deleteIS4_EEEEEENS_16reverse_iteratorIPS7_EEEEEENS_28__exception_guard_exceptionsIT_EESE_, symObjAddr: 0x1A9F4, symBinAddr: 0x10001BFA8, symSize: 0x4C }
  - { offsetInCU: 0x24208, offset: 0x24208, size: 0x8, addend: 0x0, symName: __ZNSt3__1neB8ue170006IPNS_10unique_ptrI4NodeNS_14default_deleteIS2_EEEES6_EEbRKNS_16reverse_iteratorIT_EERKNS7_IT0_EE, symObjAddr: 0x1AA84, symBinAddr: 0x10001C038, symSize: 0x48 }
  - { offsetInCU: 0x24254, offset: 0x24254, size: 0x8, addend: 0x0, symName: __ZNSt3__112__to_addressB8ue170006INS_16reverse_iteratorIPNS_10unique_ptrI4NodeNS_14default_deleteIS3_EEEEEEvEEu7__decayIDTclsr19__to_address_helperIT_EE6__callclsr3stdE7declvalIRKS9_EEEEESB_, symObjAddr: 0x1AACC, symBinAddr: 0x10001C080, symSize: 0x24 }
  - { offsetInCU: 0x242B3, offset: 0x242B3, size: 0x8, addend: 0x0, symName: __ZNSt3__14prevB8ue170006IPNS_10unique_ptrI4NodeNS_14default_deleteIS2_EEEEEENS_9enable_ifIXsr29__has_input_iterator_categoryIT_EE5valueES8_E4typeES8_NS_15iterator_traitsIS8_E15difference_typeE, symObjAddr: 0x1AC80, symBinAddr: 0x10001C234, symSize: 0x3C }
  - { offsetInCU: 0x242F7, offset: 0x242F7, size: 0x8, addend: 0x0, symName: __ZNSt3__19__advanceB8ue170006IPNS_10unique_ptrI4NodeNS_14default_deleteIS2_EEEEEEvRT_NS_15iterator_traitsIS7_E15difference_typeENS_26random_access_iterator_tagE, symObjAddr: 0x1ACF4, symBinAddr: 0x10001C2A8, symSize: 0x28 }
  - { offsetInCU: 0x24340, offset: 0x24340, size: 0x8, addend: 0x0, symName: __ZNSt3__119__allocator_destroyB8ue170006INS_9allocatorINS_10unique_ptrI4NodeNS_14default_deleteIS3_EEEEEENS_16reverse_iteratorINS8_IPS6_EEEESB_EEvRT_T0_T1_, symObjAddr: 0x1AE20, symBinAddr: 0x10001C3D4, symSize: 0x70 }
  - { offsetInCU: 0x243A5, offset: 0x243A5, size: 0x8, addend: 0x0, symName: __ZNSt3__1neB8ue170006INS_16reverse_iteratorIPNS_10unique_ptrI4NodeNS_14default_deleteIS3_EEEEEES8_EEbRKNS1_IT_EERKNS1_IT0_EE, symObjAddr: 0x1AECC, symBinAddr: 0x10001C480, symSize: 0x60 }
  - { offsetInCU: 0x243F1, offset: 0x243F1, size: 0x8, addend: 0x0, symName: __ZNSt3__112__to_addressB8ue170006INS_16reverse_iteratorINS1_IPNS_10unique_ptrI4NodeNS_14default_deleteIS3_EEEEEEEEvEEu7__decayIDTclsr19__to_address_helperIT_EE6__callclsr3stdE7declvalIRKSA_EEEEESC_, symObjAddr: 0x1AF2C, symBinAddr: 0x10001C4E0, symSize: 0x24 }
  - { offsetInCU: 0x24450, offset: 0x24450, size: 0x8, addend: 0x0, symName: __ZNSt3__14prevB8ue170006INS_16reverse_iteratorIPNS_10unique_ptrI4NodeNS_14default_deleteIS3_EEEEEEEENS_9enable_ifIXsr29__has_input_iterator_categoryIT_EE5valueESA_E4typeESA_NS_15iterator_traitsISA_E15difference_typeE, symObjAddr: 0x1B028, symBinAddr: 0x10001C5DC, symSize: 0x4C }
  - { offsetInCU: 0x24493, offset: 0x24493, size: 0x8, addend: 0x0, symName: __ZNSt3__19__advanceB8ue170006INS_16reverse_iteratorIPNS_10unique_ptrI4NodeNS_14default_deleteIS3_EEEEEEEEvRT_NS_15iterator_traitsIS9_E15difference_typeENS_26random_access_iterator_tagE, symObjAddr: 0x1B0AC, symBinAddr: 0x10001C660, symSize: 0x2C }
  - { offsetInCU: 0x244DC, offset: 0x244DC, size: 0x8, addend: 0x0, symName: __ZNSt3__122__make_exception_guardB8ue170006INS_6vectorINS_12basic_stringIcNS_11char_traitsIcEENS_9allocatorIcEEEENS5_IS7_EEE16__destroy_vectorEEENS_28__exception_guard_exceptionsIT_EESC_, symObjAddr: 0x1B488, symBinAddr: 0x10001CA3C, symSize: 0x40 }
  - { offsetInCU: 0x24511, offset: 0x24511, size: 0x8, addend: 0x0, symName: __ZNSt3__130__uninitialized_allocator_copyB8ue170006INS_9allocatorINS_12basic_stringIcNS_11char_traitsIcEENS1_IcEEEEEEPKS6_S9_PS6_EET2_RT_T0_T1_SB_, symObjAddr: 0x1B754, symBinAddr: 0x10001CD08, symSize: 0x80 }
  - { offsetInCU: 0x245AE, offset: 0x245AE, size: 0x8, addend: 0x0, symName: __ZNSt3__114__unwrap_rangeB8ue170006IPKNS_12basic_stringIcNS_11char_traitsIcEENS_9allocatorIcEEEES8_EEDaT_T0_, symObjAddr: 0x1B7D4, symBinAddr: 0x10001CD88, symSize: 0x3C }
  - { offsetInCU: 0x245FA, offset: 0x245FA, size: 0x8, addend: 0x0, symName: __ZNSt3__135__uninitialized_allocator_copy_implB8ue170006INS_9allocatorINS_12basic_stringIcNS_11char_traitsIcEENS1_IcEEEEEEPKS6_S9_PS6_EET2_RT_T0_T1_SB_, symObjAddr: 0x1B810, symBinAddr: 0x10001CDC4, symSize: 0xF4 }
  - { offsetInCU: 0x24698, offset: 0x24698, size: 0x8, addend: 0x0, symName: __ZNSt3__113__unwrap_iterB8ue170006IPNS_12basic_stringIcNS_11char_traitsIcEENS_9allocatorIcEEEENS_18__unwrap_iter_implIS7_Lb1EEELi0EEEDTclsrT0_8__unwrapclsr3stdE7declvalIT_EEEESB_, symObjAddr: 0x1B904, symBinAddr: 0x10001CEB8, symSize: 0x24 }
  - { offsetInCU: 0x246DC, offset: 0x246DC, size: 0x8, addend: 0x0, symName: __ZNSt3__113__rewrap_iterB8ue170006IPNS_12basic_stringIcNS_11char_traitsIcEENS_9allocatorIcEEEES7_NS_18__unwrap_iter_implIS7_Lb1EEEEET_SA_T0_, symObjAddr: 0x1B928, symBinAddr: 0x10001CEDC, symSize: 0x3C }
  - { offsetInCU: 0x24833, offset: 0x24833, size: 0x8, addend: 0x0, symName: __ZNSt3__113__unwrap_iterB8ue170006IPKNS_12basic_stringIcNS_11char_traitsIcEENS_9allocatorIcEEEENS_18__unwrap_iter_implIS8_Lb1EEELi0EEEDTclsrT0_8__unwrapclsr3stdE7declvalIT_EEEESC_, symObjAddr: 0x1B9BC, symBinAddr: 0x10001CF70, symSize: 0x24 }
  - { offsetInCU: 0x248CB, offset: 0x248CB, size: 0x8, addend: 0x0, symName: __ZNSt3__112__to_addressB8ue170006IKNS_12basic_stringIcNS_11char_traitsIcEENS_9allocatorIcEEEEEEPT_S9_, symObjAddr: 0x1BA40, symBinAddr: 0x10001CFF4, symSize: 0x14 }
  - { offsetInCU: 0x248FF, offset: 0x248FF, size: 0x8, addend: 0x0, symName: __ZNSt3__122__make_exception_guardB8ue170006INS_29_AllocatorDestroyRangeReverseINS_9allocatorINS_12basic_stringIcNS_11char_traitsIcEENS2_IcEEEEEEPS7_EEEENS_28__exception_guard_exceptionsIT_EESC_, symObjAddr: 0x1BA88, symBinAddr: 0x10001D03C, symSize: 0x4C }
  - { offsetInCU: 0x24935, offset: 0x24935, size: 0x8, addend: 0x0, symName: __ZNSt3__112construct_atB8ue170006INS_12basic_stringIcNS_11char_traitsIcEENS_9allocatorIcEEEEJRKS6_EPS6_EEPT_SB_DpOT0_, symObjAddr: 0x1BC2C, symBinAddr: 0x10001D1E0, symSize: 0x3C }
  - { offsetInCU: 0x249A7, offset: 0x249A7, size: 0x8, addend: 0x0, symName: __ZNSt3__119__allocator_destroyB8ue170006INS_9allocatorINS_12basic_stringIcNS_11char_traitsIcEENS1_IcEEEEEENS_16reverse_iteratorIPS6_EESA_EEvRT_T0_T1_, symObjAddr: 0x1BD20, symBinAddr: 0x10001D2D4, symSize: 0x70 }
  - { offsetInCU: 0x24A5D, offset: 0x24A5D, size: 0x8, addend: 0x0, symName: __ZNSt3__19use_facetB8ue170006INS_5ctypeIcEEEERKT_RKNS_6localeE, symObjAddr: 0x1C3E8, symBinAddr: 0x10001D99C, symSize: 0x2C }
  - { offsetInCU: 0x24F2A, offset: 0x24F2A, size: 0x8, addend: 0x0, symName: __ZNSt3__110to_addressB8ue170006IcEEDaPT_, symObjAddr: 0x1C778, symBinAddr: 0x10001DD2C, symSize: 0x24 }
  - { offsetInCU: 0x24F60, offset: 0x24F60, size: 0x8, addend: 0x0, symName: __ZNSt3__112__to_addressB8ue170006IcEEPT_S2_, symObjAddr: 0x1C79C, symBinAddr: 0x10001DD50, symSize: 0x14 }
  - { offsetInCU: 0x24F94, offset: 0x24F94, size: 0x8, addend: 0x0, symName: __ZNSt3__116__pad_and_outputB8ue170006IcNS_11char_traitsIcEEEENS_19ostreambuf_iteratorIT_T0_EES6_PKS4_S8_S8_RNS_8ios_baseES4_, symObjAddr: 0x1CBF4, symBinAddr: 0x10001E1A8, symSize: 0x240 }
  - { offsetInCU: 0x25063, offset: 0x25063, size: 0x8, addend: 0x0, symName: __ZNSt3__1neB8ue170006ERKNS_15__tree_iteratorINS_12__value_typeINS_5arrayIhLm16EEEP4NodeEEPNS_11__tree_nodeIS6_PvEElEESD_, symObjAddr: 0x1D150, symBinAddr: 0x10001E704, symSize: 0x34 }
  - { offsetInCU: 0x250A0, offset: 0x250A0, size: 0x8, addend: 0x0, symName: __ZNSt3__116__tree_next_iterB8ue170006IPNS_15__tree_end_nodeIPNS_16__tree_node_baseIPvEEEES5_EET_T0_, symObjAddr: 0x1D1BC, symBinAddr: 0x10001E770, symSize: 0x80 }
  - { offsetInCU: 0x250DF, offset: 0x250DF, size: 0x8, addend: 0x0, symName: __ZNSt3__110__tree_minB8ue170006IPNS_16__tree_node_baseIPvEEEET_S5_, symObjAddr: 0x1D23C, symBinAddr: 0x10001E7F0, symSize: 0x40 }
  - { offsetInCU: 0x25137, offset: 0x25137, size: 0x8, addend: 0x0, symName: __ZNSt3__113__countl_zeroB8ue170006IjEEiT_, symObjAddr: 0x1D648, symBinAddr: 0x10001EBFC, symSize: 0x54 }
  - { offsetInCU: 0x2516D, offset: 0x2516D, size: 0x8, addend: 0x0, symName: __ZNSt3__112__libcpp_clzB8ue170006Ej, symObjAddr: 0x1DAE0, symBinAddr: 0x10001F094, symSize: 0x18 }
  - { offsetInCU: 0x251CB, offset: 0x251CB, size: 0x8, addend: 0x0, symName: __ZNSt3__110destroy_atB8ue170006INS_4pairIKNS_12basic_stringIcNS_11char_traitsIcEENS_9allocatorIcEEEES7_EELi0EEEvPT_, symObjAddr: 0x1E3B4, symBinAddr: 0x10001F968, symSize: 0x24 }
  - { offsetInCU: 0x25202, offset: 0x25202, size: 0x8, addend: 0x0, symName: __ZNSt3__112__destroy_atB8ue170006INS_4pairIKNS_12basic_stringIcNS_11char_traitsIcEENS_9allocatorIcEEEES7_EELi0EEEvPT_, symObjAddr: 0x1E3D8, symBinAddr: 0x10001F98C, symSize: 0x24 }
  - { offsetInCU: 0x25239, offset: 0x25239, size: 0x8, addend: 0x0, symName: __ZNSt3__17launderB8ue170006INS_4pairIKNS_12basic_stringIcNS_11char_traitsIcEENS_9allocatorIcEEEES7_EEEEPT_SB_, symObjAddr: 0x1E484, symBinAddr: 0x10001FA38, symSize: 0x24 }
  - { offsetInCU: 0x25270, offset: 0x25270, size: 0x8, addend: 0x0, symName: __ZNSt3__19__launderB8ue170006INS_4pairIKNS_12basic_stringIcNS_11char_traitsIcEENS_9allocatorIcEEEES7_EEEEPT_SB_, symObjAddr: 0x1E4A8, symBinAddr: 0x10001FA5C, symSize: 0x14 }
  - { offsetInCU: 0x252DE, offset: 0x252DE, size: 0x8, addend: 0x0, symName: __ZNSt3__116forward_as_tupleB8ue170006IJRKNS_12basic_stringIcNS_11char_traitsIcEENS_9allocatorIcEEEEEEENS_5tupleIJDpOT_EEESC_, symObjAddr: 0x1EC5C, symBinAddr: 0x100020210, symSize: 0x2C }
  - { offsetInCU: 0x25317, offset: 0x25317, size: 0x8, addend: 0x0, symName: __ZNSt3__116forward_as_tupleB8ue170006IJEEENS_5tupleIJDpOT_EEES4_, symObjAddr: 0x1EC88, symBinAddr: 0x10002023C, symSize: 0x4 }
  - { offsetInCU: 0x2533B, offset: 0x2533B, size: 0x8, addend: 0x0, symName: __ZNSt3__17launderB8ue170006IKNS_4pairIKNS_12basic_stringIcNS_11char_traitsIcEENS_9allocatorIcEEEES7_EEEEPT_SC_, symObjAddr: 0x1F28C, symBinAddr: 0x100020840, symSize: 0x24 }
  - { offsetInCU: 0x25372, offset: 0x25372, size: 0x8, addend: 0x0, symName: __ZNSt3__19__launderB8ue170006IKNS_4pairIKNS_12basic_stringIcNS_11char_traitsIcEENS_9allocatorIcEEEES7_EEEEPT_SC_, symObjAddr: 0x1F2B0, symBinAddr: 0x100020864, symSize: 0x14 }
  - { offsetInCU: 0x253EC, offset: 0x253EC, size: 0x8, addend: 0x0, symName: __ZNSt3__112construct_atB8ue170006INS_4pairIKNS_12basic_stringIcNS_11char_traitsIcEENS_9allocatorIcEEEES7_EEJRKNS_21piecewise_construct_tENS_5tupleIJRS8_EEENSD_IJEEEEPS9_EEPT_SJ_DpOT0_, symObjAddr: 0x1F5A4, symBinAddr: 0x100020B58, symSize: 0x50 }
  - { offsetInCU: 0x25490, offset: 0x25490, size: 0x8, addend: 0x0, symName: __ZNSt3__13getB8ue170006ILm0EJRKNS_12basic_stringIcNS_11char_traitsIcEENS_9allocatorIcEEEEEEERNS_13tuple_elementIXT_ENS_5tupleIJDpT0_EEEE4typeERSD_, symObjAddr: 0x1F6BC, symBinAddr: 0x100020C70, symSize: 0x24 }
  - { offsetInCU: 0x25FBE, offset: 0x25FBE, size: 0x8, addend: 0x0, symName: __ZSt28__throw_bad_array_new_lengthB8ue170006v, symObjAddr: 0x60E0, symBinAddr: 0x100007694, symSize: 0x34 }
  - { offsetInCU: 0x26736, offset: 0x26736, size: 0x8, addend: 0x0, symName: __ZNSt3__16vectorINS_10unique_ptrI12virtual_nodeNS_14default_deleteIS2_EEEENS_9allocatorIS5_EEE26__swap_out_circular_bufferERNS_14__split_bufferIS5_RS7_EE, symObjAddr: 0x5950, symBinAddr: 0x100006F04, symSize: 0x110 }
  - { offsetInCU: 0x26A86, offset: 0x26A86, size: 0x8, addend: 0x0, symName: __ZNSt3__16vectorI12virtual_nodeNS_9allocatorIS1_EEE26__swap_out_circular_bufferERNS_14__split_bufferIS1_RS3_EE, symObjAddr: 0x841C, symBinAddr: 0x1000099D0, symSize: 0x110 }
  - { offsetInCU: 0x27F94, offset: 0x27F94, size: 0x8, addend: 0x0, symName: __ZNSt3__16vectorIP4NodeNS_9allocatorIS2_EEE26__swap_out_circular_bufferERNS_14__split_bufferIS2_RS4_EE, symObjAddr: 0x13550, symBinAddr: 0x100014B04, symSize: 0x110 }
  - { offsetInCU: 0x281BB, offset: 0x281BB, size: 0x8, addend: 0x0, symName: __ZNSt3__16vectorINS_12basic_stringIcNS_11char_traitsIcEENS_9allocatorIcEEEENS4_IS6_EEE26__swap_out_circular_bufferERNS_14__split_bufferIS6_RS7_EE, symObjAddr: 0x18380, symBinAddr: 0x100019934, symSize: 0x110 }
  - { offsetInCU: 0x282CC, offset: 0x282CC, size: 0x8, addend: 0x0, symName: __ZNKSt3__16chrono15__duration_castINS0_8durationIxNS_5ratioILl1ELl1000000000EEEEENS2_IxNS3_ILl1ELl1000EEEEENS3_ILl1ELl1000000EEELb1ELb0EEclB8ue170006ERKS5_, symObjAddr: 0x19814, symBinAddr: 0x10001ADC8, symSize: 0x4C }
  - { offsetInCU: 0x2830B, offset: 0x2830B, size: 0x8, addend: 0x0, symName: __ZNSt3__16vectorINS_10unique_ptrI4NodeNS_14default_deleteIS2_EEEENS_9allocatorIS5_EEE26__swap_out_circular_bufferERNS_14__split_bufferIS5_RS7_EE, symObjAddr: 0x1A290, symBinAddr: 0x10001B844, symSize: 0x110 }
  - { offsetInCU: 0x2855A, offset: 0x2855A, size: 0x8, addend: 0x0, symName: __ZNSt3__124uniform_int_distributionIiEclINS_23mersenne_twister_engineIjLm32ELm624ELm397ELm31ELj2567483615ELm11ELj4294967295ELm7ELj2636928640ELm15ELj4022730752ELm18ELj1812433253EEEEEiRT_RKNS1_10param_typeE, symObjAddr: 0x1D430, symBinAddr: 0x10001E9E4, symSize: 0x188 }
  - { offsetInCU: 0x2AE63, offset: 0x2AE63, size: 0x8, addend: 0x0, symName: __Z21computerMD5FromStringRKNSt3__112basic_stringIcNS_11char_traitsIcEENS_9allocatorIcEEEE, symObjAddr: 0x0, symBinAddr: 0x1000015B4, symSize: 0x98 }
  - { offsetInCU: 0x2AE9E, offset: 0x2AE9E, size: 0x8, addend: 0x0, symName: __ZNKSt3__112basic_stringIcNS_11char_traitsIcEENS_9allocatorIcEEE4dataB8ue170006Ev, symObjAddr: 0x98, symBinAddr: 0x10000164C, symSize: 0x28 }
  - { offsetInCU: 0x2AEC4, offset: 0x2AEC4, size: 0x8, addend: 0x0, symName: __ZNKSt3__112basic_stringIcNS_11char_traitsIcEENS_9allocatorIcEEE4sizeB8ue170006Ev, symObjAddr: 0xC0, symBinAddr: 0x100001674, symSize: 0x54 }
  - { offsetInCU: 0x2AEEA, offset: 0x2AEEA, size: 0x8, addend: 0x0, symName: __ZNSt3__15arrayIhLm16EE4dataB8ue170006Ev, symObjAddr: 0x114, symBinAddr: 0x1000016C8, symSize: 0x14 }
  - { offsetInCU: 0x2AF0F, offset: 0x2AF0F, size: 0x8, addend: 0x0, symName: __Z11hash_to_hexRKNSt3__15arrayIhLm16EEE, symObjAddr: 0x128, symBinAddr: 0x1000016DC, symSize: 0x15C }
  - { offsetInCU: 0x2B00B, offset: 0x2B00B, size: 0x8, addend: 0x0, symName: __ZNSt3__119basic_ostringstreamIcNS_11char_traitsIcEENS_9allocatorIcEEEC1B8ue170006Ev, symObjAddr: 0x284, symBinAddr: 0x100001838, symSize: 0xEC }
  - { offsetInCU: 0x2B035, offset: 0x2B035, size: 0x8, addend: 0x0, symName: __ZNKSt3__15arrayIhLm16EE5beginB8ue170006Ev, symObjAddr: 0x370, symBinAddr: 0x100001924, symSize: 0x24 }
  - { offsetInCU: 0x2B05B, offset: 0x2B05B, size: 0x8, addend: 0x0, symName: __ZNKSt3__15arrayIhLm16EE3endB8ue170006Ev, symObjAddr: 0x394, symBinAddr: 0x100001948, symSize: 0x28 }
  - { offsetInCU: 0x2B081, offset: 0x2B081, size: 0x8, addend: 0x0, symName: __ZNSt3__113basic_ostreamIcNS_11char_traitsIcEEElsB8ue170006EPFRNS_8ios_baseES5_E, symObjAddr: 0x43C, symBinAddr: 0x1000019F0, symSize: 0x40 }
  - { offsetInCU: 0x2B0B5, offset: 0x2B0B5, size: 0x8, addend: 0x0, symName: __ZNKRSt3__119basic_ostringstreamIcNS_11char_traitsIcEENS_9allocatorIcEEE3strB8ue170006Ev, symObjAddr: 0x504, symBinAddr: 0x100001AB8, symSize: 0x30 }
  - { offsetInCU: 0x2B0E1, offset: 0x2B0E1, size: 0x8, addend: 0x0, symName: __ZNSt3__119basic_ostringstreamIcNS_11char_traitsIcEENS_9allocatorIcEEED1Ev, symObjAddr: 0x534, symBinAddr: 0x100001AE8, symSize: 0x40 }
  - { offsetInCU: 0x2B10D, offset: 0x2B10D, size: 0x8, addend: 0x0, symName: __Z11in_intervalRKNSt3__15arrayIhLm16EEES3_S3_, symObjAddr: 0x574, symBinAddr: 0x100001B28, symSize: 0x154 }
  - { offsetInCU: 0x2B166, offset: 0x2B166, size: 0x8, addend: 0x0, symName: __ZNSt3__120_CmpUnspecifiedParamC1B8ue170006EMS0_i, symObjAddr: 0x75C, symBinAddr: 0x100001D10, symSize: 0x34 }
  - { offsetInCU: 0x2B199, offset: 0x2B199, size: 0x8, addend: 0x0, symName: __Z10print_hashRKNSt3__15arrayIhLm16EEE, symObjAddr: 0x7D8, symBinAddr: 0x100001D8C, symSize: 0xF4 }
  - { offsetInCU: 0x2B213, offset: 0x2B213, size: 0x8, addend: 0x0, symName: __ZNSt3__113basic_ostreamIcNS_11char_traitsIcEEElsB8ue170006EPFRS3_S4_E, symObjAddr: 0x8FC, symBinAddr: 0x100001EB0, symSize: 0x2C }
  - { offsetInCU: 0x2B247, offset: 0x2B247, size: 0x8, addend: 0x0, symName: _main, symObjAddr: 0x980, symBinAddr: 0x100001F34, symSize: 0x1EF0 }
  - { offsetInCU: 0x2B867, offset: 0x2B867, size: 0x8, addend: 0x0, symName: __ZNSt3__112basic_stringIcNS_11char_traitsIcEENS_9allocatorIcEEEC1B8ue170006ILi0EEEPKc, symObjAddr: 0x28B8, symBinAddr: 0x100003E6C, symSize: 0x34 }
  - { offsetInCU: 0x2B8A6, offset: 0x2B8A6, size: 0x8, addend: 0x0, symName: __ZN4NodeC1ENSt3__112basic_stringIcNS0_11char_traitsIcEENS0_9allocatorIcEEEEm, symObjAddr: 0x28EC, symBinAddr: 0x100003EA0, symSize: 0x3C }
  - { offsetInCU: 0x2B8ED, offset: 0x2B8ED, size: 0x8, addend: 0x0, symName: __ZNKSt3__16vectorINS_10unique_ptrI12virtual_nodeNS_14default_deleteIS2_EEEENS_9allocatorIS5_EEE4sizeB8ue170006Ev, symObjAddr: 0x2928, symBinAddr: 0x100003EDC, symSize: 0x28 }
  - { offsetInCU: 0x2B913, offset: 0x2B913, size: 0x8, addend: 0x0, symName: __ZNSt3__16vectorINS_10unique_ptrI12virtual_nodeNS_14default_deleteIS2_EEEENS_9allocatorIS5_EEEixB8ue170006Em, symObjAddr: 0x2950, symBinAddr: 0x100003F04, symSize: 0x24 }
  - { offsetInCU: 0x2B94A, offset: 0x2B94A, size: 0x8, addend: 0x0, symName: __ZNKSt3__110unique_ptrI12virtual_nodeNS_14default_deleteIS1_EEEptB8ue170006Ev, symObjAddr: 0x2974, symBinAddr: 0x100003F28, symSize: 0x28 }
  - { offsetInCU: 0x2B970, offset: 0x2B970, size: 0x8, addend: 0x0, symName: __ZNK4NodeltERKS_, symObjAddr: 0x299C, symBinAddr: 0x100003F50, symSize: 0x4C }
  - { offsetInCU: 0x2B9A4, offset: 0x2B9A4, size: 0x8, addend: 0x0, symName: __ZNK4NodegtERKS_, symObjAddr: 0x29E8, symBinAddr: 0x100003F9C, symSize: 0x4C }
  - { offsetInCU: 0x2B9D8, offset: 0x2B9D8, size: 0x8, addend: 0x0, symName: __ZNSt3__16vectorI12virtual_nodeNS_9allocatorIS1_EEEC1B8ue170006Ev, symObjAddr: 0x2A34, symBinAddr: 0x100003FE8, symSize: 0x2C }
  - { offsetInCU: 0x2BA02, offset: 0x2BA02, size: 0x8, addend: 0x0, symName: __ZNSt3__16vectorINS_10unique_ptrI12virtual_nodeNS_14default_deleteIS2_EEEENS_9allocatorIS5_EEE5beginB8ue170006Ev, symObjAddr: 0x2A60, symBinAddr: 0x100004014, symSize: 0x30 }
  - { offsetInCU: 0x2BA2A, offset: 0x2BA2A, size: 0x8, addend: 0x0, symName: __ZNSt3__16vectorINS_10unique_ptrI12virtual_nodeNS_14default_deleteIS2_EEEENS_9allocatorIS5_EEE3endB8ue170006Ev, symObjAddr: 0x2A90, symBinAddr: 0x100004044, symSize: 0x30 }
  - { offsetInCU: 0x2BA52, offset: 0x2BA52, size: 0x8, addend: 0x0, symName: __ZNKSt3__111__wrap_iterIPNS_10unique_ptrI12virtual_nodeNS_14default_deleteIS2_EEEEEdeB8ue170006Ev, symObjAddr: 0x2AF4, symBinAddr: 0x1000040A8, symSize: 0x18 }
  - { offsetInCU: 0x2BA78, offset: 0x2BA78, size: 0x8, addend: 0x0, symName: __ZNSt3__16vectorI12virtual_nodeNS_9allocatorIS1_EEE9push_backB8ue170006ERKS1_, symObjAddr: 0x2B0C, symBinAddr: 0x1000040C0, symSize: 0x6C }
  - { offsetInCU: 0x2BAAF, offset: 0x2BAAF, size: 0x8, addend: 0x0, symName: __ZNKSt3__110unique_ptrI12virtual_nodeNS_14default_deleteIS1_EEEdeB8ue170006Ev, symObjAddr: 0x2B78, symBinAddr: 0x10000412C, symSize: 0x28 }
  - { offsetInCU: 0x2BAD5, offset: 0x2BAD5, size: 0x8, addend: 0x0, symName: __ZNSt3__111__wrap_iterIPNS_10unique_ptrI12virtual_nodeNS_14default_deleteIS2_EEEEEppB8ue170006Ev, symObjAddr: 0x2BA0, symBinAddr: 0x100004154, symSize: 0x20 }
  - { offsetInCU: 0x2BAFB, offset: 0x2BAFB, size: 0x8, addend: 0x0, symName: __ZNSt3__16vectorI12virtual_nodeNS_9allocatorIS1_EEE5beginB8ue170006Ev, symObjAddr: 0x2BFC, symBinAddr: 0x1000041B0, symSize: 0x30 }
  - { offsetInCU: 0x2BB23, offset: 0x2BB23, size: 0x8, addend: 0x0, symName: __ZNSt3__16vectorI12virtual_nodeNS_9allocatorIS1_EEE3endB8ue170006Ev, symObjAddr: 0x2C2C, symBinAddr: 0x1000041E0, symSize: 0x30 }
  - { offsetInCU: 0x2BB4B, offset: 0x2BB4B, size: 0x8, addend: 0x0, symName: __ZNKSt3__16vectorI12virtual_nodeNS_9allocatorIS1_EEE4sizeB8ue170006Ev, symObjAddr: 0x2C5C, symBinAddr: 0x100004210, symSize: 0x28 }
  - { offsetInCU: 0x2BB71, offset: 0x2BB71, size: 0x8, addend: 0x0, symName: __ZNKSt3__111__wrap_iterIP12virtual_nodeEdeB8ue170006Ev, symObjAddr: 0x2CB8, symBinAddr: 0x10000426C, symSize: 0x18 }
  - { offsetInCU: 0x2BB97, offset: 0x2BB97, size: 0x8, addend: 0x0, symName: __ZNSt3__111__wrap_iterIP12virtual_nodeEppB8ue170006Ev, symObjAddr: 0x2CD0, symBinAddr: 0x100004284, symSize: 0x20 }
  - { offsetInCU: 0x2BBBD, offset: 0x2BBBD, size: 0x8, addend: 0x0, symName: __ZNSt3__16vectorI12virtual_nodeNS_9allocatorIS1_EEED1B8ue170006Ev, symObjAddr: 0x2CF0, symBinAddr: 0x1000042A4, symSize: 0x2C }
  - { offsetInCU: 0x2BBE7, offset: 0x2BBE7, size: 0x8, addend: 0x0, symName: __ZNSt3__16vectorIP4NodeNS_9allocatorIS2_EEEC1B8ue170006ESt16initializer_listIS2_E, symObjAddr: 0x2D1C, symBinAddr: 0x1000042D0, symSize: 0x3C }
  - { offsetInCU: 0x2BD56, offset: 0x2BD56, size: 0x8, addend: 0x0, symName: __ZN4RingC1ENSt3__16vectorIP4NodeNS0_9allocatorIS3_EEEE, symObjAddr: 0x2D58, symBinAddr: 0x10000430C, symSize: 0x34 }
  - { offsetInCU: 0x2BD8F, offset: 0x2BD8F, size: 0x8, addend: 0x0, symName: __ZNSt3__16vectorIP4NodeNS_9allocatorIS2_EEED1B8ue170006Ev, symObjAddr: 0x2D8C, symBinAddr: 0x100004340, symSize: 0x2C }
  - { offsetInCU: 0x2BDB9, offset: 0x2BDB9, size: 0x8, addend: 0x0, symName: __ZNKSt3__13mapINS_5arrayIhLm16EEEP4NodeNS_4lessIS2_EENS_9allocatorINS_4pairIKS2_S4_EEEEE4sizeB8ue170006Ev, symObjAddr: 0x2DB8, symBinAddr: 0x10000436C, symSize: 0x28 }
  - { offsetInCU: 0x2BDDF, offset: 0x2BDDF, size: 0x8, addend: 0x0, symName: __ZNSt3__13mapINS_5arrayIhLm16EEEP4NodeNS_4lessIS2_EENS_9allocatorINS_4pairIKS2_S4_EEEEE5beginB8ue170006Ev, symObjAddr: 0x2DE0, symBinAddr: 0x100004394, symSize: 0x38 }
  - { offsetInCU: 0x2BE05, offset: 0x2BE05, size: 0x8, addend: 0x0, symName: __ZNSt3__13mapINS_5arrayIhLm16EEEP4NodeNS_4lessIS2_EENS_9allocatorINS_4pairIKS2_S4_EEEEE3endB8ue170006Ev, symObjAddr: 0x2E18, symBinAddr: 0x1000043CC, symSize: 0x38 }
  - { offsetInCU: 0x2BE2B, offset: 0x2BE2B, size: 0x8, addend: 0x0, symName: __ZNKSt3__114__map_iteratorINS_15__tree_iteratorINS_12__value_typeINS_5arrayIhLm16EEEP4NodeEEPNS_11__tree_nodeIS7_PvEElEEEdeB8ue170006Ev, symObjAddr: 0x2E80, symBinAddr: 0x100004434, symSize: 0x28 }
  - { offsetInCU: 0x2BE51, offset: 0x2BE51, size: 0x8, addend: 0x0, symName: __ZNSt3__114__map_iteratorINS_15__tree_iteratorINS_12__value_typeINS_5arrayIhLm16EEEP4NodeEEPNS_11__tree_nodeIS7_PvEElEEEppB8ue170006Ev, symObjAddr: 0x2F3C, symBinAddr: 0x1000044F0, symSize: 0x2C }
  - { offsetInCU: 0x2BEA9, offset: 0x2BEA9, size: 0x8, addend: 0x0, symName: __ZNSt3__14pairINS_12basic_stringIcNS_11char_traitsIcEENS_9allocatorIcEEEES6_EC1B8ue170006IRA6_KcRA4_S9_LPv0EEEOT_OT0_, symObjAddr: 0x2F68, symBinAddr: 0x10000451C, symSize: 0x3C }
  - { offsetInCU: 0x2BF20, offset: 0x2BF20, size: 0x8, addend: 0x0, symName: __ZNSt3__14pairINS_12basic_stringIcNS_11char_traitsIcEENS_9allocatorIcEEEES6_EC1B8ue170006IRA7_KcSB_LPv0EEEOT_OT0_, symObjAddr: 0x2FA4, symBinAddr: 0x100004558, symSize: 0x3C }
  - { offsetInCU: 0x2BF7E, offset: 0x2BF7E, size: 0x8, addend: 0x0, symName: __ZNSt3__14pairINS_12basic_stringIcNS_11char_traitsIcEENS_9allocatorIcEEEES6_EC1B8ue170006IRA4_KcSB_LPv0EEEOT_OT0_, symObjAddr: 0x2FE0, symBinAddr: 0x100004594, symSize: 0x3C }
  - { offsetInCU: 0x2BFDC, offset: 0x2BFDC, size: 0x8, addend: 0x0, symName: __ZNSt3__14pairINS_12basic_stringIcNS_11char_traitsIcEENS_9allocatorIcEEEES6_EC1B8ue170006IRA6_KcRA7_S9_LPv0EEEOT_OT0_, symObjAddr: 0x301C, symBinAddr: 0x1000045D0, symSize: 0x3C }
  - { offsetInCU: 0x2C03A, offset: 0x2C03A, size: 0x8, addend: 0x0, symName: __ZNSt3__14pairINS_12basic_stringIcNS_11char_traitsIcEENS_9allocatorIcEEEES6_EC1B8ue170006IRA6_KcSB_LPv0EEEOT_OT0_, symObjAddr: 0x3058, symBinAddr: 0x10000460C, symSize: 0x3C }
  - { offsetInCU: 0x2C098, offset: 0x2C098, size: 0x8, addend: 0x0, symName: __ZNSt3__14pairINS_12basic_stringIcNS_11char_traitsIcEENS_9allocatorIcEEEES6_ED1Ev, symObjAddr: 0x3094, symBinAddr: 0x100004648, symSize: 0x2C }
  - { offsetInCU: 0x2C0C4, offset: 0x2C0C4, size: 0x8, addend: 0x0, symName: __ZNSt3__16vectorINS_4pairINS_12basic_stringIcNS_11char_traitsIcEENS_9allocatorIcEEEES7_EENS5_IS8_EEEC1B8ue170006ESt16initializer_listIS8_E, symObjAddr: 0x30C0, symBinAddr: 0x100004674, symSize: 0x3C }
  - { offsetInCU: 0x2C0FF, offset: 0x2C0FF, size: 0x8, addend: 0x0, symName: __ZNSt3__16vectorINS_4pairINS_12basic_stringIcNS_11char_traitsIcEENS_9allocatorIcEEEES7_EENS5_IS8_EEE5beginB8ue170006Ev, symObjAddr: 0x30FC, symBinAddr: 0x1000046B0, symSize: 0x30 }
  - { offsetInCU: 0x2C127, offset: 0x2C127, size: 0x8, addend: 0x0, symName: __ZNSt3__16vectorINS_4pairINS_12basic_stringIcNS_11char_traitsIcEENS_9allocatorIcEEEES7_EENS5_IS8_EEE3endB8ue170006Ev, symObjAddr: 0x312C, symBinAddr: 0x1000046E0, symSize: 0x30 }
  - { offsetInCU: 0x2C14F, offset: 0x2C14F, size: 0x8, addend: 0x0, symName: __ZNKSt3__111__wrap_iterIPNS_4pairINS_12basic_stringIcNS_11char_traitsIcEENS_9allocatorIcEEEES7_EEEdeB8ue170006Ev, symObjAddr: 0x3190, symBinAddr: 0x100004744, symSize: 0x18 }
  - { offsetInCU: 0x2C175, offset: 0x2C175, size: 0x8, addend: 0x0, symName: __ZN9data_nodeC1ERKNSt3__112basic_stringIcNS0_11char_traitsIcEENS0_9allocatorIcEEEES8_, symObjAddr: 0x31F0, symBinAddr: 0x1000047A4, symSize: 0x3C }
  - { offsetInCU: 0x2C1BB, offset: 0x2C1BB, size: 0x8, addend: 0x0, symName: __ZN4Ring11insert_dataEP9data_node, symObjAddr: 0x322C, symBinAddr: 0x1000047E0, symSize: 0xFC }
  - { offsetInCU: 0x2C227, offset: 0x2C227, size: 0x8, addend: 0x0, symName: __ZN9data_nodeD1Ev, symObjAddr: 0x3328, symBinAddr: 0x1000048DC, symSize: 0x2C }
  - { offsetInCU: 0x2C251, offset: 0x2C251, size: 0x8, addend: 0x0, symName: __ZNSt3__111__wrap_iterIPNS_4pairINS_12basic_stringIcNS_11char_traitsIcEENS_9allocatorIcEEEES7_EEEppB8ue170006Ev, symObjAddr: 0x3354, symBinAddr: 0x100004908, symSize: 0x20 }
  - { offsetInCU: 0x2C277, offset: 0x2C277, size: 0x8, addend: 0x0, symName: __ZN4Ring9find_dataERNSt3__112basic_stringIcNS0_11char_traitsIcEENS0_9allocatorIcEEEE, symObjAddr: 0x3374, symBinAddr: 0x100004928, symSize: 0x1A4 }
  - { offsetInCU: 0x2C307, offset: 0x2C307, size: 0x8, addend: 0x0, symName: __ZNKSt16initializer_listIPKcE5beginB8ue170006Ev, symObjAddr: 0x3660, symBinAddr: 0x100004C14, symSize: 0x18 }
  - { offsetInCU: 0x2C32D, offset: 0x2C32D, size: 0x8, addend: 0x0, symName: __ZNKSt16initializer_listIPKcE3endB8ue170006Ev, symObjAddr: 0x3678, symBinAddr: 0x100004C2C, symSize: 0x20 }
  - { offsetInCU: 0x2C353, offset: 0x2C353, size: 0x8, addend: 0x0, symName: __ZNKSt3__112basic_stringIcNS_11char_traitsIcEENS_9allocatorIcEEE5emptyB8ue170006Ev, symObjAddr: 0x3698, symBinAddr: 0x100004C4C, symSize: 0x30 }
  - { offsetInCU: 0x2C379, offset: 0x2C379, size: 0x8, addend: 0x0, symName: __ZNSt3__16vectorINS_12basic_stringIcNS_11char_traitsIcEENS_9allocatorIcEEEENS4_IS6_EEEC1B8ue170006Ev, symObjAddr: 0x36C8, symBinAddr: 0x100004C7C, symSize: 0x2C }
  - { offsetInCU: 0x2C3BF, offset: 0x2C3BF, size: 0x8, addend: 0x0, symName: __ZNSt3__113random_deviceC1B8ue170006Ev, symObjAddr: 0x36F4, symBinAddr: 0x100004CA8, symSize: 0x74 }
  - { offsetInCU: 0x2C3E9, offset: 0x2C3E9, size: 0x8, addend: 0x0, symName: __ZNSt3__123mersenne_twister_engineIjLm32ELm624ELm397ELm31ELj2567483615ELm11ELj4294967295ELm7ELj2636928640ELm15ELj4022730752ELm18ELj1812433253EEC1B8ue170006Ej, symObjAddr: 0x3768, symBinAddr: 0x100004D1C, symSize: 0x34 }
  - { offsetInCU: 0x2C421, offset: 0x2C421, size: 0x8, addend: 0x0, symName: __ZNSt3__124uniform_int_distributionIiEC1B8ue170006Eii, symObjAddr: 0x379C, symBinAddr: 0x100004D50, symSize: 0x3C }
  - { offsetInCU: 0x2C467, offset: 0x2C467, size: 0x8, addend: 0x0, symName: __ZNSt3__16vectorINS_12basic_stringIcNS_11char_traitsIcEENS_9allocatorIcEEEENS4_IS6_EEE9push_backB8ue170006EOS6_, symObjAddr: 0x37D8, symBinAddr: 0x100004D8C, symSize: 0x6C }
  - { offsetInCU: 0x2C49E, offset: 0x2C49E, size: 0x8, addend: 0x0, symName: __ZNSt3__124uniform_int_distributionIiEclB8ue170006INS_23mersenne_twister_engineIjLm32ELm624ELm397ELm31ELj2567483615ELm11ELj4294967295ELm7ELj2636928640ELm15ELj4022730752ELm18ELj1812433253EEEEEiRT_, symObjAddr: 0x3888, symBinAddr: 0x100004E3C, symSize: 0x30 }
  - { offsetInCU: 0x2C4DB, offset: 0x2C4DB, size: 0x8, addend: 0x0, symName: __ZNSt3__16vectorINS_12basic_stringIcNS_11char_traitsIcEENS_9allocatorIcEEEENS4_IS6_EEE5beginB8ue170006Ev, symObjAddr: 0x38B8, symBinAddr: 0x100004E6C, symSize: 0x30 }
  - { offsetInCU: 0x2C503, offset: 0x2C503, size: 0x8, addend: 0x0, symName: __ZNSt3__16vectorINS_12basic_stringIcNS_11char_traitsIcEENS_9allocatorIcEEEENS4_IS6_EEE3endB8ue170006Ev, symObjAddr: 0x38E8, symBinAddr: 0x100004E9C, symSize: 0x30 }
  - { offsetInCU: 0x2C52B, offset: 0x2C52B, size: 0x8, addend: 0x0, symName: __ZNKSt3__111__wrap_iterIPNS_12basic_stringIcNS_11char_traitsIcEENS_9allocatorIcEEEEEdeB8ue170006Ev, symObjAddr: 0x394C, symBinAddr: 0x100004F00, symSize: 0x18 }
  - { offsetInCU: 0x2C551, offset: 0x2C551, size: 0x8, addend: 0x0, symName: __ZNSt3__111__wrap_iterIPNS_12basic_stringIcNS_11char_traitsIcEENS_9allocatorIcEEEEEppB8ue170006Ev, symObjAddr: 0x3964, symBinAddr: 0x100004F18, symSize: 0x20 }
  - { offsetInCU: 0x2C577, offset: 0x2C577, size: 0x8, addend: 0x0, symName: __ZNKSt3__16chrono8durationIxNS_5ratioILl1ELl1000EEEE5countB8ue170006Ev, symObjAddr: 0x3A0C, symBinAddr: 0x100004FC0, symSize: 0x18 }
  - { offsetInCU: 0x2C59D, offset: 0x2C59D, size: 0x8, addend: 0x0, symName: __ZN4RingC1Ev, symObjAddr: 0x3A24, symBinAddr: 0x100004FD8, symSize: 0x2C }
  - { offsetInCU: 0x2C5C7, offset: 0x2C5C7, size: 0x8, addend: 0x0, symName: __ZN4Ring8add_NodeERKNSt3__112basic_stringIcNS0_11char_traitsIcEENS0_9allocatorIcEEEEi, symObjAddr: 0x3A50, symBinAddr: 0x100005004, symSize: 0x168 }
  - { offsetInCU: 0x2C673, offset: 0x2C673, size: 0x8, addend: 0x0, symName: __ZNSt3__16vectorINS_12basic_stringIcNS_11char_traitsIcEENS_9allocatorIcEEEENS4_IS6_EEEC1B8ue170006ESt16initializer_listIS6_E, symObjAddr: 0x3BB8, symBinAddr: 0x10000516C, symSize: 0x3C }
  - { offsetInCU: 0x2C73D, offset: 0x2C73D, size: 0x8, addend: 0x0, symName: __ZNSt3__113unordered_mapINS_12basic_stringIcNS_11char_traitsIcEENS_9allocatorIcEEEES6_NS_4hashIS6_EENS_8equal_toIS6_EENS4_INS_4pairIKS6_S6_EEEEEC1B8ue170006Ev, symObjAddr: 0x3BF4, symBinAddr: 0x1000051A8, symSize: 0x2C }
  - { offsetInCU: 0x2C767, offset: 0x2C767, size: 0x8, addend: 0x0, symName: __ZNSt3__113unordered_mapINS_12basic_stringIcNS_11char_traitsIcEENS_9allocatorIcEEEES6_NS_4hashIS6_EENS_8equal_toIS6_EENS4_INS_4pairIKS6_S6_EEEEEixERSC_, symObjAddr: 0x3C20, symBinAddr: 0x1000051D4, symSize: 0x80 }
  - { offsetInCU: 0x2C79E, offset: 0x2C79E, size: 0x8, addend: 0x0, symName: __ZNSt3__113unordered_mapINS_12basic_stringIcNS_11char_traitsIcEENS_9allocatorIcEEEES6_NS_4hashIS6_EENS_8equal_toIS6_EENS4_INS_4pairIKS6_S6_EEEEED1B8ue170006Ev, symObjAddr: 0x3CA0, symBinAddr: 0x100005254, symSize: 0x2C }
  - { offsetInCU: 0x2C7C8, offset: 0x2C7C8, size: 0x8, addend: 0x0, symName: __ZNSt3__16vectorINS_12basic_stringIcNS_11char_traitsIcEENS_9allocatorIcEEEENS4_IS6_EEED1B8ue170006Ev, symObjAddr: 0x3CCC, symBinAddr: 0x100005280, symSize: 0x2C }
  - { offsetInCU: 0x2C7F2, offset: 0x2C7F2, size: 0x8, addend: 0x0, symName: __ZN4RingD1Ev, symObjAddr: 0x3CF8, symBinAddr: 0x1000052AC, symSize: 0x2C }
  - { offsetInCU: 0x2C81C, offset: 0x2C81C, size: 0x8, addend: 0x0, symName: __ZN4NodeD1Ev, symObjAddr: 0x3D24, symBinAddr: 0x1000052D8, symSize: 0x2C }
  - { offsetInCU: 0x2C846, offset: 0x2C846, size: 0x8, addend: 0x0, symName: __ZNSt3__16vectorINS_4pairINS_12basic_stringIcNS_11char_traitsIcEENS_9allocatorIcEEEES7_EENS5_IS8_EEED1B8ue170006Ev, symObjAddr: 0x3D50, symBinAddr: 0x100005304, symSize: 0x2C }
  - { offsetInCU: 0x2C870, offset: 0x2C870, size: 0x8, addend: 0x0, symName: __ZNKSt3__112basic_stringIcNS_11char_traitsIcEENS_9allocatorIcEEE13__get_pointerB8ue170006Ev, symObjAddr: 0x3D90, symBinAddr: 0x100005344, symSize: 0x54 }
  - { offsetInCU: 0x2C896, offset: 0x2C896, size: 0x8, addend: 0x0, symName: __ZNKSt3__112basic_stringIcNS_11char_traitsIcEENS_9allocatorIcEEE9__is_longB8ue170006Ev, symObjAddr: 0x3DE4, symBinAddr: 0x100005398, symSize: 0x38 }
  - { offsetInCU: 0x2C8BC, offset: 0x2C8BC, size: 0x8, addend: 0x0, symName: __ZNKSt3__112basic_stringIcNS_11char_traitsIcEENS_9allocatorIcEEE18__get_long_pointerB8ue170006Ev, symObjAddr: 0x3E1C, symBinAddr: 0x1000053D0, symSize: 0x28 }
  - { offsetInCU: 0x2C8E2, offset: 0x2C8E2, size: 0x8, addend: 0x0, symName: __ZNKSt3__112basic_stringIcNS_11char_traitsIcEENS_9allocatorIcEEE19__get_short_pointerB8ue170006Ev, symObjAddr: 0x3E44, symBinAddr: 0x1000053F8, symSize: 0x28 }
  - { offsetInCU: 0x2C908, offset: 0x2C908, size: 0x8, addend: 0x0, symName: __ZNKSt3__117__compressed_pairINS_12basic_stringIcNS_11char_traitsIcEENS_9allocatorIcEEE5__repES5_E5firstB8ue170006Ev, symObjAddr: 0x3E6C, symBinAddr: 0x100005420, symSize: 0x24 }
  - { offsetInCU: 0x2C92E, offset: 0x2C92E, size: 0x8, addend: 0x0, symName: __ZNKSt3__122__compressed_pair_elemINS_12basic_stringIcNS_11char_traitsIcEENS_9allocatorIcEEE5__repELi0ELb0EE5__getB8ue170006Ev, symObjAddr: 0x3E90, symBinAddr: 0x100005444, symSize: 0x14 }
  - { offsetInCU: 0x2C954, offset: 0x2C954, size: 0x8, addend: 0x0, symName: __ZNSt3__114pointer_traitsIPKcE10pointer_toB8ue170006ERS1_, symObjAddr: 0x3EA4, symBinAddr: 0x100005458, symSize: 0x14 }
  - { offsetInCU: 0x2C977, offset: 0x2C977, size: 0x8, addend: 0x0, symName: __ZNKSt3__112basic_stringIcNS_11char_traitsIcEENS_9allocatorIcEEE15__get_long_sizeB8ue170006Ev, symObjAddr: 0x3EB8, symBinAddr: 0x10000546C, symSize: 0x28 }
  - { offsetInCU: 0x2C99D, offset: 0x2C99D, size: 0x8, addend: 0x0, symName: __ZNKSt3__112basic_stringIcNS_11char_traitsIcEENS_9allocatorIcEEE16__get_short_sizeB8ue170006Ev, symObjAddr: 0x3EE0, symBinAddr: 0x100005494, symSize: 0x34 }
  - { offsetInCU: 0x2C9C3, offset: 0x2C9C3, size: 0x8, addend: 0x0, symName: __ZNKSt3__15arrayIhLm16EE4dataB8ue170006Ev, symObjAddr: 0x3F14, symBinAddr: 0x1000054C8, symSize: 0x14 }
  - { offsetInCU: 0x2C9E9, offset: 0x2C9E9, size: 0x8, addend: 0x0, symName: __ZNSt3__18ios_base4setfB8ue170006Ejj, symObjAddr: 0x3F28, symBinAddr: 0x1000054DC, symSize: 0x5C }
  - { offsetInCU: 0x2CA3E, offset: 0x2CA3E, size: 0x8, addend: 0x0, symName: __ZNSt3__18ios_base6unsetfB8ue170006Ej, symObjAddr: 0x3F84, symBinAddr: 0x100005538, symSize: 0x28 }
  - { offsetInCU: 0x2CA75, offset: 0x2CA75, size: 0x8, addend: 0x0, symName: __ZNSt3__18__iom_t6C1B8ue170006Ei, symObjAddr: 0x3FAC, symBinAddr: 0x100005560, symSize: 0x34 }
  - { offsetInCU: 0x2CAAD, offset: 0x2CAAD, size: 0x8, addend: 0x0, symName: __ZNSt3__18__iom_t6C2B8ue170006Ei, symObjAddr: 0x3FE0, symBinAddr: 0x100005594, symSize: 0x20 }
  - { offsetInCU: 0x2CAE5, offset: 0x2CAE5, size: 0x8, addend: 0x0, symName: __ZNSt3__119basic_ostringstreamIcNS_11char_traitsIcEENS_9allocatorIcEEED2Ev, symObjAddr: 0x4000, symBinAddr: 0x1000055B4, symSize: 0x64 }
  - { offsetInCU: 0x2CB1F, offset: 0x2CB1F, size: 0x8, addend: 0x0, symName: __ZTv0_n24_NSt3__119basic_ostringstreamIcNS_11char_traitsIcEENS_9allocatorIcEEED1Ev, symObjAddr: 0x4064, symBinAddr: 0x100005618, symSize: 0x28 }
  - { offsetInCU: 0x2CB3C, offset: 0x2CB3C, size: 0x8, addend: 0x0, symName: __ZNSt3__115basic_stringbufIcNS_11char_traitsIcEENS_9allocatorIcEEED1Ev, symObjAddr: 0x408C, symBinAddr: 0x100005640, symSize: 0x2C }
  - { offsetInCU: 0x2CB69, offset: 0x2CB69, size: 0x8, addend: 0x0, symName: __ZNSt3__115basic_stringbufIcNS_11char_traitsIcEENS_9allocatorIcEEED2Ev, symObjAddr: 0x40B8, symBinAddr: 0x10000566C, symSize: 0x48 }
  - { offsetInCU: 0x2CBAC, offset: 0x2CBAC, size: 0x8, addend: 0x0, symName: __ZNKSt3__16__lessIvvEclB8ue170006IllEEbRKT_RKT0_, symObjAddr: 0x4388, symBinAddr: 0x10000593C, symSize: 0x34 }
  - { offsetInCU: 0x2CC00, offset: 0x2CC00, size: 0x8, addend: 0x0, symName: __ZNSt3__120_CmpUnspecifiedParamC2B8ue170006EMS0_i, symObjAddr: 0x43BC, symBinAddr: 0x100005970, symSize: 0x18 }
  - { offsetInCU: 0x2CC34, offset: 0x2CC34, size: 0x8, addend: 0x0, symName: __ZNSt3__112basic_stringIcNS_11char_traitsIcEENS_9allocatorIcEEEC2B8ue170006ILi0EEEPKc, symObjAddr: 0x43D4, symBinAddr: 0x100005988, symSize: 0x58 }
  - { offsetInCU: 0x2CC79, offset: 0x2CC79, size: 0x8, addend: 0x0, symName: __ZNSt3__117__compressed_pairINS_12basic_stringIcNS_11char_traitsIcEENS_9allocatorIcEEE5__repES5_EC1B8ue170006INS_18__default_init_tagESA_EEOT_OT0_, symObjAddr: 0x442C, symBinAddr: 0x1000059E0, symSize: 0x3C }
  - { offsetInCU: 0x2CCD1, offset: 0x2CCD1, size: 0x8, addend: 0x0, symName: __ZNSt3__111char_traitsIcE6lengthB8ue170006EPKc, symObjAddr: 0x4468, symBinAddr: 0x100005A1C, symSize: 0x34 }
  - { offsetInCU: 0x2CCF4, offset: 0x2CCF4, size: 0x8, addend: 0x0, symName: __ZNSt3__117__compressed_pairINS_12basic_stringIcNS_11char_traitsIcEENS_9allocatorIcEEE5__repES5_EC2B8ue170006INS_18__default_init_tagESA_EEOT_OT0_, symObjAddr: 0x449C, symBinAddr: 0x100005A50, symSize: 0x3C }
  - { offsetInCU: 0x2CD4C, offset: 0x2CD4C, size: 0x8, addend: 0x0, symName: __ZNSt3__122__compressed_pair_elemINS_12basic_stringIcNS_11char_traitsIcEENS_9allocatorIcEEE5__repELi0ELb0EEC2B8ue170006ENS_18__default_init_tagE, symObjAddr: 0x44D8, symBinAddr: 0x100005A8C, symSize: 0x14 }
  - { offsetInCU: 0x2CD80, offset: 0x2CD80, size: 0x8, addend: 0x0, symName: __ZNSt3__122__compressed_pair_elemINS_9allocatorIcEELi1ELb1EEC2B8ue170006ENS_18__default_init_tagE, symObjAddr: 0x44EC, symBinAddr: 0x100005AA0, symSize: 0x2C }
  - { offsetInCU: 0x2CDB4, offset: 0x2CDB4, size: 0x8, addend: 0x0, symName: __ZNSt3__19allocatorIcEC2B8ue170006Ev, symObjAddr: 0x4518, symBinAddr: 0x100005ACC, symSize: 0x2C }
  - { offsetInCU: 0x2CDDE, offset: 0x2CDDE, size: 0x8, addend: 0x0, symName: __ZNSt3__116__non_trivial_ifILb1ENS_9allocatorIcEEEC2B8ue170006Ev, symObjAddr: 0x4544, symBinAddr: 0x100005AF8, symSize: 0x14 }
  - { offsetInCU: 0x2CE08, offset: 0x2CE08, size: 0x8, addend: 0x0, symName: __ZN4NodeC2ENSt3__112basic_stringIcNS0_11char_traitsIcEENS0_9allocatorIcEEEEm, symObjAddr: 0x4588, symBinAddr: 0x100005B3C, symSize: 0x218 }
  - { offsetInCU: 0x2CE64, offset: 0x2CE64, size: 0x8, addend: 0x0, symName: __ZNSt3__112basic_stringIcNS_11char_traitsIcEENS_9allocatorIcEEEC1B8ue170006Ev, symObjAddr: 0x47A0, symBinAddr: 0x100005D54, symSize: 0x2C }
  - { offsetInCU: 0x2CE8E, offset: 0x2CE8E, size: 0x8, addend: 0x0, symName: __ZNSt3__16vectorINS_10unique_ptrI12virtual_nodeNS_14default_deleteIS2_EEEENS_9allocatorIS5_EEEC1B8ue170006Ev, symObjAddr: 0x47CC, symBinAddr: 0x100005D80, symSize: 0x2C }
  - { offsetInCU: 0x2CEB8, offset: 0x2CEB8, size: 0x8, addend: 0x0, symName: __ZNSt3__113unordered_mapINS_12basic_stringIcNS_11char_traitsIcEENS_9allocatorIcEEEE9data_nodeNS_4hashIS6_EENS_8equal_toIS6_EENS4_INS_4pairIKS6_S7_EEEEEC1B8ue170006Ev, symObjAddr: 0x47F8, symBinAddr: 0x100005DAC, symSize: 0x2C }
  - { offsetInCU: 0x2CEE2, offset: 0x2CEE2, size: 0x8, addend: 0x0, symName: __ZNSt3__16vectorINS_10unique_ptrI12virtual_nodeNS_14default_deleteIS2_EEEENS_9allocatorIS5_EEE9push_backB8ue170006EOS5_, symObjAddr: 0x4824, symBinAddr: 0x100005DD8, symSize: 0x6C }
  - { offsetInCU: 0x2CF19, offset: 0x2CF19, size: 0x8, addend: 0x0, symName: __ZNSt3__110unique_ptrI12virtual_nodeNS_14default_deleteIS1_EEED1B8ue170006Ev, symObjAddr: 0x49DC, symBinAddr: 0x100005F90, symSize: 0x2C }
  - { offsetInCU: 0x2CF43, offset: 0x2CF43, size: 0x8, addend: 0x0, symName: __ZNSt3__113unordered_mapINS_12basic_stringIcNS_11char_traitsIcEENS_9allocatorIcEEEE9data_nodeNS_4hashIS6_EENS_8equal_toIS6_EENS4_INS_4pairIKS6_S7_EEEEED1B8ue170006Ev, symObjAddr: 0x4A08, symBinAddr: 0x100005FBC, symSize: 0x2C }
  - { offsetInCU: 0x2CF6D, offset: 0x2CF6D, size: 0x8, addend: 0x0, symName: __ZNSt3__16vectorINS_10unique_ptrI12virtual_nodeNS_14default_deleteIS2_EEEENS_9allocatorIS5_EEED1B8ue170006Ev, symObjAddr: 0x4A34, symBinAddr: 0x100005FE8, symSize: 0x2C }
  - { offsetInCU: 0x2CF97, offset: 0x2CF97, size: 0x8, addend: 0x0, symName: __ZNSt3__112basic_stringIcNS_11char_traitsIcEENS_9allocatorIcEEEC2B8ue170006Ev, symObjAddr: 0x4A60, symBinAddr: 0x100006014, symSize: 0x48 }
  - { offsetInCU: 0x2CFC1, offset: 0x2CFC1, size: 0x8, addend: 0x0, symName: __ZNSt3__112basic_stringIcNS_11char_traitsIcEENS_9allocatorIcEEE14__default_initB8ue170006Ev, symObjAddr: 0x4AA8, symBinAddr: 0x10000605C, symSize: 0x40 }
  - { offsetInCU: 0x2CFE7, offset: 0x2CFE7, size: 0x8, addend: 0x0, symName: __ZNSt3__117__compressed_pairINS_12basic_stringIcNS_11char_traitsIcEENS_9allocatorIcEEE5__repES5_E5firstB8ue170006Ev, symObjAddr: 0x4AE8, symBinAddr: 0x10000609C, symSize: 0x24 }
  - { offsetInCU: 0x2D00D, offset: 0x2D00D, size: 0x8, addend: 0x0, symName: __ZNSt3__122__compressed_pair_elemINS_12basic_stringIcNS_11char_traitsIcEENS_9allocatorIcEEE5__repELi0ELb0EE5__getB8ue170006Ev, symObjAddr: 0x4B0C, symBinAddr: 0x1000060C0, symSize: 0x14 }
  - { offsetInCU: 0x2D033, offset: 0x2D033, size: 0x8, addend: 0x0, symName: __ZNSt3__16vectorINS_10unique_ptrI12virtual_nodeNS_14default_deleteIS2_EEEENS_9allocatorIS5_EEEC2B8ue170006Ev, symObjAddr: 0x4B20, symBinAddr: 0x1000060D4, symSize: 0x4C }
  - { offsetInCU: 0x2D063, offset: 0x2D063, size: 0x8, addend: 0x0, symName: __ZNSt3__117__compressed_pairIPNS_10unique_ptrI12virtual_nodeNS_14default_deleteIS2_EEEENS_9allocatorIS5_EEEC1B8ue170006IDnNS_18__default_init_tagEEEOT_OT0_, symObjAddr: 0x4B6C, symBinAddr: 0x100006120, symSize: 0x3C }
  - { offsetInCU: 0x2D0BB, offset: 0x2D0BB, size: 0x8, addend: 0x0, symName: __ZNSt3__117__compressed_pairIPNS_10unique_ptrI12virtual_nodeNS_14default_deleteIS2_EEEENS_9allocatorIS5_EEEC2B8ue170006IDnNS_18__default_init_tagEEEOT_OT0_, symObjAddr: 0x4BA8, symBinAddr: 0x10000615C, symSize: 0x40 }
  - { offsetInCU: 0x2D113, offset: 0x2D113, size: 0x8, addend: 0x0, symName: __ZNSt3__122__compressed_pair_elemIPNS_10unique_ptrI12virtual_nodeNS_14default_deleteIS2_EEEELi0ELb0EEC2B8ue170006IDnvEEOT_, symObjAddr: 0x4BE8, symBinAddr: 0x10000619C, symSize: 0x1C }
  - { offsetInCU: 0x2D155, offset: 0x2D155, size: 0x8, addend: 0x0, symName: __ZNSt3__122__compressed_pair_elemINS_9allocatorINS_10unique_ptrI12virtual_nodeNS_14default_deleteIS3_EEEEEELi1ELb1EEC2B8ue170006ENS_18__default_init_tagE, symObjAddr: 0x4C04, symBinAddr: 0x1000061B8, symSize: 0x2C }
  - { offsetInCU: 0x2D189, offset: 0x2D189, size: 0x8, addend: 0x0, symName: __ZNSt3__19allocatorINS_10unique_ptrI12virtual_nodeNS_14default_deleteIS2_EEEEEC2B8ue170006Ev, symObjAddr: 0x4C30, symBinAddr: 0x1000061E4, symSize: 0x2C }
  - { offsetInCU: 0x2D1B3, offset: 0x2D1B3, size: 0x8, addend: 0x0, symName: __ZNSt3__116__non_trivial_ifILb1ENS_9allocatorINS_10unique_ptrI12virtual_nodeNS_14default_deleteIS3_EEEEEEEC2B8ue170006Ev, symObjAddr: 0x4C5C, symBinAddr: 0x100006210, symSize: 0x14 }
  - { offsetInCU: 0x2D1DD, offset: 0x2D1DD, size: 0x8, addend: 0x0, symName: __ZNSt3__113unordered_mapINS_12basic_stringIcNS_11char_traitsIcEENS_9allocatorIcEEEE9data_nodeNS_4hashIS6_EENS_8equal_toIS6_EENS4_INS_4pairIKS6_S7_EEEEEC2B8ue170006Ev, symObjAddr: 0x4C70, symBinAddr: 0x100006224, symSize: 0x2C }
  - { offsetInCU: 0x2D207, offset: 0x2D207, size: 0x8, addend: 0x0, symName: __ZNSt3__112__hash_tableINS_17__hash_value_typeINS_12basic_stringIcNS_11char_traitsIcEENS_9allocatorIcEEEE9data_nodeEENS_22__unordered_map_hasherIS7_S9_NS_4hashIS7_EENS_8equal_toIS7_EELb1EEENS_21__unordered_map_equalIS7_S9_SE_SC_Lb1EEENS5_IS9_EEEC1Ev, symObjAddr: 0x4C9C, symBinAddr: 0x100006250, symSize: 0x2C }
  - { offsetInCU: 0x2D233, offset: 0x2D233, size: 0x8, addend: 0x0, symName: __ZNSt3__112__hash_tableINS_17__hash_value_typeINS_12basic_stringIcNS_11char_traitsIcEENS_9allocatorIcEEEE9data_nodeEENS_22__unordered_map_hasherIS7_S9_NS_4hashIS7_EENS_8equal_toIS7_EELb1EEENS_21__unordered_map_equalIS7_S9_SE_SC_Lb1EEENS5_IS9_EEEC2Ev, symObjAddr: 0x4CC8, symBinAddr: 0x10000627C, symSize: 0x7C }
  - { offsetInCU: 0x2D25F, offset: 0x2D25F, size: 0x8, addend: 0x0, symName: __ZNSt3__110unique_ptrIA_PNS_16__hash_node_baseIPNS_11__hash_nodeINS_17__hash_value_typeINS_12basic_stringIcNS_11char_traitsIcEENS_9allocatorIcEEEE9data_nodeEEPvEEEENS_25__bucket_list_deallocatorINS7_ISG_EEEEEC1B8ue170006ILb1EvEEv, symObjAddr: 0x4D44, symBinAddr: 0x1000062F8, symSize: 0x2C }
  - { offsetInCU: 0x2D294, offset: 0x2D294, size: 0x8, addend: 0x0, symName: __ZNSt3__117__compressed_pairINS_16__hash_node_baseIPNS_11__hash_nodeINS_17__hash_value_typeINS_12basic_stringIcNS_11char_traitsIcEENS_9allocatorIcEEEE9data_nodeEEPvEEEENS7_ISD_EEEC1B8ue170006ILb1EvEEv, symObjAddr: 0x4D70, symBinAddr: 0x100006324, symSize: 0x2C }
  - { offsetInCU: 0x2D2CF, offset: 0x2D2CF, size: 0x8, addend: 0x0, symName: __ZNSt3__117__compressed_pairImNS_22__unordered_map_hasherINS_12basic_stringIcNS_11char_traitsIcEENS_9allocatorIcEEEENS_17__hash_value_typeIS7_9data_nodeEENS_4hashIS7_EENS_8equal_toIS7_EELb1EEEEC1B8ue170006IiNS_18__default_init_tagEEEOT_OT0_, symObjAddr: 0x4D9C, symBinAddr: 0x100006350, symSize: 0x3C }
  - { offsetInCU: 0x2D32D, offset: 0x2D32D, size: 0x8, addend: 0x0, symName: __ZNSt3__117__compressed_pairIfNS_21__unordered_map_equalINS_12basic_stringIcNS_11char_traitsIcEENS_9allocatorIcEEEENS_17__hash_value_typeIS7_9data_nodeEENS_8equal_toIS7_EENS_4hashIS7_EELb1EEEEC1B8ue170006IfNS_18__default_init_tagEEEOT_OT0_, symObjAddr: 0x4DD8, symBinAddr: 0x10000638C, symSize: 0x3C }
  - { offsetInCU: 0x2D385, offset: 0x2D385, size: 0x8, addend: 0x0, symName: __ZNSt3__110unique_ptrIA_PNS_16__hash_node_baseIPNS_11__hash_nodeINS_17__hash_value_typeINS_12basic_stringIcNS_11char_traitsIcEENS_9allocatorIcEEEE9data_nodeEEPvEEEENS_25__bucket_list_deallocatorINS7_ISG_EEEEEC2B8ue170006ILb1EvEEv, symObjAddr: 0x4E14, symBinAddr: 0x1000063C8, symSize: 0x3C }
  - { offsetInCU: 0x2D3C0, offset: 0x2D3C0, size: 0x8, addend: 0x0, symName: __ZNSt3__117__compressed_pairIPPNS_16__hash_node_baseIPNS_11__hash_nodeINS_17__hash_value_typeINS_12basic_stringIcNS_11char_traitsIcEENS_9allocatorIcEEEE9data_nodeEEPvEEEENS_25__bucket_list_deallocatorINS7_ISG_EEEEEC1B8ue170006INS_16__value_init_tagESN_EEOT_OT0_, symObjAddr: 0x4E50, symBinAddr: 0x100006404, symSize: 0x3C }
  - { offsetInCU: 0x2D418, offset: 0x2D418, size: 0x8, addend: 0x0, symName: __ZNSt3__117__compressed_pairIPPNS_16__hash_node_baseIPNS_11__hash_nodeINS_17__hash_value_typeINS_12basic_stringIcNS_11char_traitsIcEENS_9allocatorIcEEEE9data_nodeEEPvEEEENS_25__bucket_list_deallocatorINS7_ISG_EEEEEC2B8ue170006INS_16__value_init_tagESN_EEOT_OT0_, symObjAddr: 0x4E8C, symBinAddr: 0x100006440, symSize: 0x40 }
  - { offsetInCU: 0x2D470, offset: 0x2D470, size: 0x8, addend: 0x0, symName: __ZNSt3__122__compressed_pair_elemIPPNS_16__hash_node_baseIPNS_11__hash_nodeINS_17__hash_value_typeINS_12basic_stringIcNS_11char_traitsIcEENS_9allocatorIcEEEE9data_nodeEEPvEEEELi0ELb0EEC2B8ue170006ENS_16__value_init_tagE, symObjAddr: 0x4ECC, symBinAddr: 0x100006480, symSize: 0x18 }
  - { offsetInCU: 0x2D4A4, offset: 0x2D4A4, size: 0x8, addend: 0x0, symName: __ZNSt3__122__compressed_pair_elemINS_25__bucket_list_deallocatorINS_9allocatorIPNS_16__hash_node_baseIPNS_11__hash_nodeINS_17__hash_value_typeINS_12basic_stringIcNS_11char_traitsIcEENS2_IcEEEE9data_nodeEEPvEEEEEEEELi1ELb0EEC2B8ue170006ENS_16__value_init_tagE, symObjAddr: 0x4EE4, symBinAddr: 0x100006498, symSize: 0x2C }
  - { offsetInCU: 0x2D4D8, offset: 0x2D4D8, size: 0x8, addend: 0x0, symName: __ZNSt3__125__bucket_list_deallocatorINS_9allocatorIPNS_16__hash_node_baseIPNS_11__hash_nodeINS_17__hash_value_typeINS_12basic_stringIcNS_11char_traitsIcEENS1_IcEEEE9data_nodeEEPvEEEEEEEC1B8ue170006Ev, symObjAddr: 0x4F10, symBinAddr: 0x1000064C4, symSize: 0x2C }
  - { offsetInCU: 0x2D502, offset: 0x2D502, size: 0x8, addend: 0x0, symName: __ZNSt3__125__bucket_list_deallocatorINS_9allocatorIPNS_16__hash_node_baseIPNS_11__hash_nodeINS_17__hash_value_typeINS_12basic_stringIcNS_11char_traitsIcEENS1_IcEEEE9data_nodeEEPvEEEEEEEC2B8ue170006Ev, symObjAddr: 0x4F3C, symBinAddr: 0x1000064F0, symSize: 0x40 }
  - { offsetInCU: 0x2D52C, offset: 0x2D52C, size: 0x8, addend: 0x0, symName: __ZNSt3__117__compressed_pairImNS_9allocatorIPNS_16__hash_node_baseIPNS_11__hash_nodeINS_17__hash_value_typeINS_12basic_stringIcNS_11char_traitsIcEENS1_IcEEEE9data_nodeEEPvEEEEEEEC1B8ue170006IiNS_18__default_init_tagEEEOT_OT0_, symObjAddr: 0x4F7C, symBinAddr: 0x100006530, symSize: 0x3C }
  - { offsetInCU: 0x2D584, offset: 0x2D584, size: 0x8, addend: 0x0, symName: __ZNSt3__117__compressed_pairImNS_9allocatorIPNS_16__hash_node_baseIPNS_11__hash_nodeINS_17__hash_value_typeINS_12basic_stringIcNS_11char_traitsIcEENS1_IcEEEE9data_nodeEEPvEEEEEEEC2B8ue170006IiNS_18__default_init_tagEEEOT_OT0_, symObjAddr: 0x4FB8, symBinAddr: 0x10000656C, symSize: 0x40 }
  - { offsetInCU: 0x2D5DC, offset: 0x2D5DC, size: 0x8, addend: 0x0, symName: __ZNSt3__122__compressed_pair_elemImLi0ELb0EEC2B8ue170006IivEEOT_, symObjAddr: 0x4FF8, symBinAddr: 0x1000065AC, symSize: 0x24 }
  - { offsetInCU: 0x2D61E, offset: 0x2D61E, size: 0x8, addend: 0x0, symName: __ZNSt3__122__compressed_pair_elemINS_9allocatorIPNS_16__hash_node_baseIPNS_11__hash_nodeINS_17__hash_value_typeINS_12basic_stringIcNS_11char_traitsIcEENS1_IcEEEE9data_nodeEEPvEEEEEELi1ELb1EEC2B8ue170006ENS_18__default_init_tagE, symObjAddr: 0x501C, symBinAddr: 0x1000065D0, symSize: 0x2C }
  - { offsetInCU: 0x2D652, offset: 0x2D652, size: 0x8, addend: 0x0, symName: __ZNSt3__19allocatorIPNS_16__hash_node_baseIPNS_11__hash_nodeINS_17__hash_value_typeINS_12basic_stringIcNS_11char_traitsIcEENS0_IcEEEE9data_nodeEEPvEEEEEC2B8ue170006Ev, symObjAddr: 0x5048, symBinAddr: 0x1000065FC, symSize: 0x2C }
  - { offsetInCU: 0x2D67C, offset: 0x2D67C, size: 0x8, addend: 0x0, symName: __ZNSt3__116__non_trivial_ifILb1ENS_9allocatorIPNS_16__hash_node_baseIPNS_11__hash_nodeINS_17__hash_value_typeINS_12basic_stringIcNS_11char_traitsIcEENS1_IcEEEE9data_nodeEEPvEEEEEEEC2B8ue170006Ev, symObjAddr: 0x5074, symBinAddr: 0x100006628, symSize: 0x14 }
  - { offsetInCU: 0x2D6A6, offset: 0x2D6A6, size: 0x8, addend: 0x0, symName: __ZNSt3__117__compressed_pairINS_16__hash_node_baseIPNS_11__hash_nodeINS_17__hash_value_typeINS_12basic_stringIcNS_11char_traitsIcEENS_9allocatorIcEEEE9data_nodeEEPvEEEENS7_ISD_EEEC2B8ue170006ILb1EvEEv, symObjAddr: 0x5088, symBinAddr: 0x10000663C, symSize: 0x34 }
  - { offsetInCU: 0x2D6DB, offset: 0x2D6DB, size: 0x8, addend: 0x0, symName: __ZNSt3__122__compressed_pair_elemINS_16__hash_node_baseIPNS_11__hash_nodeINS_17__hash_value_typeINS_12basic_stringIcNS_11char_traitsIcEENS_9allocatorIcEEEE9data_nodeEEPvEEEELi0ELb0EEC2B8ue170006ENS_16__value_init_tagE, symObjAddr: 0x50BC, symBinAddr: 0x100006670, symSize: 0x2C }
  - { offsetInCU: 0x2D70F, offset: 0x2D70F, size: 0x8, addend: 0x0, symName: __ZNSt3__122__compressed_pair_elemINS_9allocatorINS_11__hash_nodeINS_17__hash_value_typeINS_12basic_stringIcNS_11char_traitsIcEENS1_IcEEEE9data_nodeEEPvEEEELi1ELb1EEC2B8ue170006ENS_16__value_init_tagE, symObjAddr: 0x50E8, symBinAddr: 0x10000669C, symSize: 0x2C }
  - { offsetInCU: 0x2D743, offset: 0x2D743, size: 0x8, addend: 0x0, symName: __ZNSt3__116__hash_node_baseIPNS_11__hash_nodeINS_17__hash_value_typeINS_12basic_stringIcNS_11char_traitsIcEENS_9allocatorIcEEEE9data_nodeEEPvEEEC1B8ue170006Ev, symObjAddr: 0x5114, symBinAddr: 0x1000066C8, symSize: 0x2C }
  - { offsetInCU: 0x2D76D, offset: 0x2D76D, size: 0x8, addend: 0x0, symName: __ZNSt3__116__hash_node_baseIPNS_11__hash_nodeINS_17__hash_value_typeINS_12basic_stringIcNS_11char_traitsIcEENS_9allocatorIcEEEE9data_nodeEEPvEEEC2B8ue170006Ev, symObjAddr: 0x5140, symBinAddr: 0x1000066F4, symSize: 0x18 }
  - { offsetInCU: 0x2D797, offset: 0x2D797, size: 0x8, addend: 0x0, symName: __ZNSt3__19allocatorINS_11__hash_nodeINS_17__hash_value_typeINS_12basic_stringIcNS_11char_traitsIcEENS0_IcEEEE9data_nodeEEPvEEEC2B8ue170006Ev, symObjAddr: 0x5158, symBinAddr: 0x10000670C, symSize: 0x2C }
  - { offsetInCU: 0x2D7C1, offset: 0x2D7C1, size: 0x8, addend: 0x0, symName: __ZNSt3__116__non_trivial_ifILb1ENS_9allocatorINS_11__hash_nodeINS_17__hash_value_typeINS_12basic_stringIcNS_11char_traitsIcEENS1_IcEEEE9data_nodeEEPvEEEEEC2B8ue170006Ev, symObjAddr: 0x5184, symBinAddr: 0x100006738, symSize: 0x14 }
  - { offsetInCU: 0x2D7EB, offset: 0x2D7EB, size: 0x8, addend: 0x0, symName: __ZNSt3__117__compressed_pairImNS_22__unordered_map_hasherINS_12basic_stringIcNS_11char_traitsIcEENS_9allocatorIcEEEENS_17__hash_value_typeIS7_9data_nodeEENS_4hashIS7_EENS_8equal_toIS7_EELb1EEEEC2B8ue170006IiNS_18__default_init_tagEEEOT_OT0_, symObjAddr: 0x5198, symBinAddr: 0x10000674C, symSize: 0x40 }
  - { offsetInCU: 0x2D843, offset: 0x2D843, size: 0x8, addend: 0x0, symName: __ZNSt3__122__compressed_pair_elemINS_22__unordered_map_hasherINS_12basic_stringIcNS_11char_traitsIcEENS_9allocatorIcEEEENS_17__hash_value_typeIS7_9data_nodeEENS_4hashIS7_EENS_8equal_toIS7_EELb1EEELi1ELb1EEC2B8ue170006ENS_18__default_init_tagE, symObjAddr: 0x51D8, symBinAddr: 0x10000678C, symSize: 0x2C }
  - { offsetInCU: 0x2D877, offset: 0x2D877, size: 0x8, addend: 0x0, symName: __ZNSt3__122__unordered_map_hasherINS_12basic_stringIcNS_11char_traitsIcEENS_9allocatorIcEEEENS_17__hash_value_typeIS6_9data_nodeEENS_4hashIS6_EENS_8equal_toIS6_EELb1EEC2B8ue170006Ev, symObjAddr: 0x5204, symBinAddr: 0x1000067B8, symSize: 0x14 }
  - { offsetInCU: 0x2D8A1, offset: 0x2D8A1, size: 0x8, addend: 0x0, symName: __ZNSt3__117__compressed_pairIfNS_21__unordered_map_equalINS_12basic_stringIcNS_11char_traitsIcEENS_9allocatorIcEEEENS_17__hash_value_typeIS7_9data_nodeEENS_8equal_toIS7_EENS_4hashIS7_EELb1EEEEC2B8ue170006IfNS_18__default_init_tagEEEOT_OT0_, symObjAddr: 0x5218, symBinAddr: 0x1000067CC, symSize: 0x40 }
  - { offsetInCU: 0x2D8F9, offset: 0x2D8F9, size: 0x8, addend: 0x0, symName: __ZNSt3__122__compressed_pair_elemIfLi0ELb0EEC2B8ue170006IfvEEOT_, symObjAddr: 0x5258, symBinAddr: 0x10000680C, symSize: 0x24 }
  - { offsetInCU: 0x2D93B, offset: 0x2D93B, size: 0x8, addend: 0x0, symName: __ZNSt3__122__compressed_pair_elemINS_21__unordered_map_equalINS_12basic_stringIcNS_11char_traitsIcEENS_9allocatorIcEEEENS_17__hash_value_typeIS7_9data_nodeEENS_8equal_toIS7_EENS_4hashIS7_EELb1EEELi1ELb1EEC2B8ue170006ENS_18__default_init_tagE, symObjAddr: 0x527C, symBinAddr: 0x100006830, symSize: 0x2C }
  - { offsetInCU: 0x2D96F, offset: 0x2D96F, size: 0x8, addend: 0x0, symName: __ZNSt3__121__unordered_map_equalINS_12basic_stringIcNS_11char_traitsIcEENS_9allocatorIcEEEENS_17__hash_value_typeIS6_9data_nodeEENS_8equal_toIS6_EENS_4hashIS6_EELb1EEC2B8ue170006Ev, symObjAddr: 0x52A8, symBinAddr: 0x10000685C, symSize: 0x14 }
  - { offsetInCU: 0x2D999, offset: 0x2D999, size: 0x8, addend: 0x0, symName: __ZNSt3__16vectorINS_10unique_ptrI12virtual_nodeNS_14default_deleteIS2_EEEENS_9allocatorIS5_EEE9__end_capB8ue170006Ev, symObjAddr: 0x52BC, symBinAddr: 0x100006870, symSize: 0x28 }
  - { offsetInCU: 0x2D9BF, offset: 0x2D9BF, size: 0x8, addend: 0x0, symName: __ZNSt3__16vectorINS_10unique_ptrI12virtual_nodeNS_14default_deleteIS2_EEEENS_9allocatorIS5_EEE22__construct_one_at_endB8ue170006IJS5_EEEvDpOT_, symObjAddr: 0x52E4, symBinAddr: 0x100006898, symSize: 0x90 }
  - { offsetInCU: 0x2DA0E, offset: 0x2DA0E, size: 0x8, addend: 0x0, symName: __ZNSt3__16vectorINS_10unique_ptrI12virtual_nodeNS_14default_deleteIS2_EEEENS_9allocatorIS5_EEE21__push_back_slow_pathIS5_EEvOT_, symObjAddr: 0x5374, symBinAddr: 0x100006928, symSize: 0xD8 }
  - { offsetInCU: 0x2DA6C, offset: 0x2DA6C, size: 0x8, addend: 0x0, symName: __ZNSt3__117__compressed_pairIPNS_10unique_ptrI12virtual_nodeNS_14default_deleteIS2_EEEENS_9allocatorIS5_EEE5firstB8ue170006Ev, symObjAddr: 0x544C, symBinAddr: 0x100006A00, symSize: 0x24 }
  - { offsetInCU: 0x2DA92, offset: 0x2DA92, size: 0x8, addend: 0x0, symName: __ZNSt3__122__compressed_pair_elemIPNS_10unique_ptrI12virtual_nodeNS_14default_deleteIS2_EEEELi0ELb0EE5__getB8ue170006Ev, symObjAddr: 0x5470, symBinAddr: 0x100006A24, symSize: 0x14 }
  - { offsetInCU: 0x2DAD4, offset: 0x2DAD4, size: 0x8, addend: 0x0, symName: __ZNSt3__16vectorINS_10unique_ptrI12virtual_nodeNS_14default_deleteIS2_EEEENS_9allocatorIS5_EEE21_ConstructTransactionC1B8ue170006ERS8_m, symObjAddr: 0x5484, symBinAddr: 0x100006A38, symSize: 0x3C }
  - { offsetInCU: 0x2DB1C, offset: 0x2DB1C, size: 0x8, addend: 0x0, symName: __ZNSt3__116allocator_traitsINS_9allocatorINS_10unique_ptrI12virtual_nodeNS_14default_deleteIS3_EEEEEEE9constructB8ue170006IS6_JS6_EvvEEvRS7_PT_DpOT0_, symObjAddr: 0x54C0, symBinAddr: 0x100006A74, symSize: 0x30 }
  - { offsetInCU: 0x2DB70, offset: 0x2DB70, size: 0x8, addend: 0x0, symName: __ZNSt3__16vectorINS_10unique_ptrI12virtual_nodeNS_14default_deleteIS2_EEEENS_9allocatorIS5_EEE7__allocB8ue170006Ev, symObjAddr: 0x54F0, symBinAddr: 0x100006AA4, symSize: 0x28 }
  - { offsetInCU: 0x2DB96, offset: 0x2DB96, size: 0x8, addend: 0x0, symName: __ZNSt3__16vectorINS_10unique_ptrI12virtual_nodeNS_14default_deleteIS2_EEEENS_9allocatorIS5_EEE21_ConstructTransactionD1B8ue170006Ev, symObjAddr: 0x552C, symBinAddr: 0x100006AE0, symSize: 0x2C }
  - { offsetInCU: 0x2DBC0, offset: 0x2DBC0, size: 0x8, addend: 0x0, symName: __ZNSt3__16vectorINS_10unique_ptrI12virtual_nodeNS_14default_deleteIS2_EEEENS_9allocatorIS5_EEE21_ConstructTransactionC2B8ue170006ERS8_m, symObjAddr: 0x5558, symBinAddr: 0x100006B0C, symSize: 0x44 }
  - { offsetInCU: 0x2DC08, offset: 0x2DC08, size: 0x8, addend: 0x0, symName: __ZNSt3__110unique_ptrI12virtual_nodeNS_14default_deleteIS1_EEEC1B8ue170006EOS4_, symObjAddr: 0x55D8, symBinAddr: 0x100006B8C, symSize: 0x34 }
  - { offsetInCU: 0x2DC40, offset: 0x2DC40, size: 0x8, addend: 0x0, symName: __ZNSt3__110unique_ptrI12virtual_nodeNS_14default_deleteIS1_EEEC2B8ue170006EOS4_, symObjAddr: 0x560C, symBinAddr: 0x100006BC0, symSize: 0x60 }
  - { offsetInCU: 0x2DC78, offset: 0x2DC78, size: 0x8, addend: 0x0, symName: __ZNSt3__110unique_ptrI12virtual_nodeNS_14default_deleteIS1_EEE7releaseB8ue170006Ev, symObjAddr: 0x566C, symBinAddr: 0x100006C20, symSize: 0x44 }
  - { offsetInCU: 0x2DCAD, offset: 0x2DCAD, size: 0x8, addend: 0x0, symName: __ZNSt3__110unique_ptrI12virtual_nodeNS_14default_deleteIS1_EEE11get_deleterB8ue170006Ev, symObjAddr: 0x56B0, symBinAddr: 0x100006C64, symSize: 0x24 }
  - { offsetInCU: 0x2DCDF, offset: 0x2DCDF, size: 0x8, addend: 0x0, symName: __ZNSt3__117__compressed_pairIP12virtual_nodeNS_14default_deleteIS1_EEEC1B8ue170006IS2_S4_EEOT_OT0_, symObjAddr: 0x56D4, symBinAddr: 0x100006C88, symSize: 0x3C }
  - { offsetInCU: 0x2DD37, offset: 0x2DD37, size: 0x8, addend: 0x0, symName: __ZNSt3__117__compressed_pairIP12virtual_nodeNS_14default_deleteIS1_EEE5firstB8ue170006Ev, symObjAddr: 0x5710, symBinAddr: 0x100006CC4, symSize: 0x24 }
  - { offsetInCU: 0x2DD5D, offset: 0x2DD5D, size: 0x8, addend: 0x0, symName: __ZNSt3__122__compressed_pair_elemIP12virtual_nodeLi0ELb0EE5__getB8ue170006Ev, symObjAddr: 0x5734, symBinAddr: 0x100006CE8, symSize: 0x14 }
  - { offsetInCU: 0x2DD83, offset: 0x2DD83, size: 0x8, addend: 0x0, symName: __ZNSt3__117__compressed_pairIP12virtual_nodeNS_14default_deleteIS1_EEE6secondB8ue170006Ev, symObjAddr: 0x5748, symBinAddr: 0x100006CFC, symSize: 0x24 }
  - { offsetInCU: 0x2DDA9, offset: 0x2DDA9, size: 0x8, addend: 0x0, symName: __ZNSt3__122__compressed_pair_elemINS_14default_deleteI12virtual_nodeEELi1ELb1EE5__getB8ue170006Ev, symObjAddr: 0x576C, symBinAddr: 0x100006D20, symSize: 0x14 }
  - { offsetInCU: 0x2DDCF, offset: 0x2DDCF, size: 0x8, addend: 0x0, symName: __ZNSt3__117__compressed_pairIP12virtual_nodeNS_14default_deleteIS1_EEEC2B8ue170006IS2_S4_EEOT_OT0_, symObjAddr: 0x5780, symBinAddr: 0x100006D34, symSize: 0x44 }
  - { offsetInCU: 0x2DE27, offset: 0x2DE27, size: 0x8, addend: 0x0, symName: __ZNSt3__122__compressed_pair_elemIP12virtual_nodeLi0ELb0EEC2B8ue170006IS2_vEEOT_, symObjAddr: 0x57C4, symBinAddr: 0x100006D78, symSize: 0x24 }
  - { offsetInCU: 0x2DE69, offset: 0x2DE69, size: 0x8, addend: 0x0, symName: __ZNSt3__122__compressed_pair_elemINS_14default_deleteI12virtual_nodeEELi1ELb1EEC2B8ue170006IS3_vEEOT_, symObjAddr: 0x57E8, symBinAddr: 0x100006D9C, symSize: 0x18 }
  - { offsetInCU: 0x2DEAB, offset: 0x2DEAB, size: 0x8, addend: 0x0, symName: __ZNSt3__117__compressed_pairIPNS_10unique_ptrI12virtual_nodeNS_14default_deleteIS2_EEEENS_9allocatorIS5_EEE6secondB8ue170006Ev, symObjAddr: 0x5800, symBinAddr: 0x100006DB4, symSize: 0x24 }
  - { offsetInCU: 0x2DED1, offset: 0x2DED1, size: 0x8, addend: 0x0, symName: __ZNSt3__122__compressed_pair_elemINS_9allocatorINS_10unique_ptrI12virtual_nodeNS_14default_deleteIS3_EEEEEELi1ELb1EE5__getB8ue170006Ev, symObjAddr: 0x5824, symBinAddr: 0x100006DD8, symSize: 0x14 }
  - { offsetInCU: 0x2DEF7, offset: 0x2DEF7, size: 0x8, addend: 0x0, symName: __ZNSt3__16vectorINS_10unique_ptrI12virtual_nodeNS_14default_deleteIS2_EEEENS_9allocatorIS5_EEE21_ConstructTransactionD2B8ue170006Ev, symObjAddr: 0x5838, symBinAddr: 0x100006DEC, symSize: 0x20 }
  - { offsetInCU: 0x2DF21, offset: 0x2DF21, size: 0x8, addend: 0x0, symName: __ZNKSt3__16vectorINS_10unique_ptrI12virtual_nodeNS_14default_deleteIS2_EEEENS_9allocatorIS5_EEE11__recommendB8ue170006Em, symObjAddr: 0x5858, symBinAddr: 0x100006E0C, symSize: 0xB4 }
  - { offsetInCU: 0x2DF76, offset: 0x2DF76, size: 0x8, addend: 0x0, symName: __ZNSt3__114__split_bufferINS_10unique_ptrI12virtual_nodeNS_14default_deleteIS2_EEEERNS_9allocatorIS5_EEEC1EmmS8_, symObjAddr: 0x590C, symBinAddr: 0x100006EC0, symSize: 0x44 }
  - { offsetInCU: 0x2DFCC, offset: 0x2DFCC, size: 0x8, addend: 0x0, symName: __ZNSt3__114__split_bufferINS_10unique_ptrI12virtual_nodeNS_14default_deleteIS2_EEEERNS_9allocatorIS5_EEED1Ev, symObjAddr: 0x5A60, symBinAddr: 0x100007014, symSize: 0x2C }
  - { offsetInCU: 0x2DFF8, offset: 0x2DFF8, size: 0x8, addend: 0x0, symName: __ZNKSt3__16vectorINS_10unique_ptrI12virtual_nodeNS_14default_deleteIS2_EEEENS_9allocatorIS5_EEE8max_sizeEv, symObjAddr: 0x5A8C, symBinAddr: 0x100007040, symSize: 0x60 }
  - { offsetInCU: 0x2E020, offset: 0x2E020, size: 0x8, addend: 0x0, symName: __ZNKSt3__16vectorINS_10unique_ptrI12virtual_nodeNS_14default_deleteIS2_EEEENS_9allocatorIS5_EEE20__throw_length_errorB8ue170006Ev, symObjAddr: 0x5AEC, symBinAddr: 0x1000070A0, symSize: 0x1C }
  - { offsetInCU: 0x2E046, offset: 0x2E046, size: 0x8, addend: 0x0, symName: __ZNKSt3__16vectorINS_10unique_ptrI12virtual_nodeNS_14default_deleteIS2_EEEENS_9allocatorIS5_EEE8capacityB8ue170006Ev, symObjAddr: 0x5B08, symBinAddr: 0x1000070BC, symSize: 0x40 }
  - { offsetInCU: 0x2E077, offset: 0x2E077, size: 0x8, addend: 0x0, symName: __ZNSt3__116allocator_traitsINS_9allocatorINS_10unique_ptrI12virtual_nodeNS_14default_deleteIS3_EEEEEEE8max_sizeB8ue170006IS7_vvEEmRKS7_, symObjAddr: 0x5BA0, symBinAddr: 0x100007154, symSize: 0x28 }
  - { offsetInCU: 0x2E0A2, offset: 0x2E0A2, size: 0x8, addend: 0x0, symName: __ZNKSt3__16vectorINS_10unique_ptrI12virtual_nodeNS_14default_deleteIS2_EEEENS_9allocatorIS5_EEE7__allocB8ue170006Ev, symObjAddr: 0x5BC8, symBinAddr: 0x10000717C, symSize: 0x28 }
  - { offsetInCU: 0x2E0C8, offset: 0x2E0C8, size: 0x8, addend: 0x0, symName: __ZNSt3__114numeric_limitsIlE3maxB8ue170006Ev, symObjAddr: 0x5BF0, symBinAddr: 0x1000071A4, symSize: 0x14 }
  - { offsetInCU: 0x2E0DC, offset: 0x2E0DC, size: 0x8, addend: 0x0, symName: __ZNKSt3__16__lessIvvEclB8ue170006ImmEEbRKT_RKT0_, symObjAddr: 0x5C58, symBinAddr: 0x10000720C, symSize: 0x34 }
  - { offsetInCU: 0x2E130, offset: 0x2E130, size: 0x8, addend: 0x0, symName: __ZNSt3__114numeric_limitsImE3maxB8ue170006Ev, symObjAddr: 0x5C8C, symBinAddr: 0x100007240, symSize: 0x14 }
  - { offsetInCU: 0x2E144, offset: 0x2E144, size: 0x8, addend: 0x0, symName: __ZNSt3__123__libcpp_numeric_limitsImLb1EE3maxB8ue170006Ev, symObjAddr: 0x5CA0, symBinAddr: 0x100007254, symSize: 0x8 }
  - { offsetInCU: 0x2E158, offset: 0x2E158, size: 0x8, addend: 0x0, symName: __ZNKSt3__117__compressed_pairIPNS_10unique_ptrI12virtual_nodeNS_14default_deleteIS2_EEEENS_9allocatorIS5_EEE6secondB8ue170006Ev, symObjAddr: 0x5CA8, symBinAddr: 0x10000725C, symSize: 0x24 }
  - { offsetInCU: 0x2E17E, offset: 0x2E17E, size: 0x8, addend: 0x0, symName: __ZNKSt3__122__compressed_pair_elemINS_9allocatorINS_10unique_ptrI12virtual_nodeNS_14default_deleteIS3_EEEEEELi1ELb1EE5__getB8ue170006Ev, symObjAddr: 0x5CCC, symBinAddr: 0x100007280, symSize: 0x14 }
  - { offsetInCU: 0x2E1A4, offset: 0x2E1A4, size: 0x8, addend: 0x0, symName: __ZNSt3__123__libcpp_numeric_limitsIlLb1EE3maxB8ue170006Ev, symObjAddr: 0x5CE0, symBinAddr: 0x100007294, symSize: 0x8 }
  - { offsetInCU: 0x2E1B8, offset: 0x2E1B8, size: 0x8, addend: 0x0, symName: __ZNSt12length_errorC1B8ue170006EPKc, symObjAddr: 0x5D4C, symBinAddr: 0x100007300, symSize: 0x34 }
  - { offsetInCU: 0x2E1F0, offset: 0x2E1F0, size: 0x8, addend: 0x0, symName: __ZNSt12length_errorC2B8ue170006EPKc, symObjAddr: 0x5D80, symBinAddr: 0x100007334, symSize: 0x4C }
  - { offsetInCU: 0x2E228, offset: 0x2E228, size: 0x8, addend: 0x0, symName: __ZNKSt3__16vectorINS_10unique_ptrI12virtual_nodeNS_14default_deleteIS2_EEEENS_9allocatorIS5_EEE9__end_capB8ue170006Ev, symObjAddr: 0x5DCC, symBinAddr: 0x100007380, symSize: 0x28 }
  - { offsetInCU: 0x2E24E, offset: 0x2E24E, size: 0x8, addend: 0x0, symName: __ZNKSt3__117__compressed_pairIPNS_10unique_ptrI12virtual_nodeNS_14default_deleteIS2_EEEENS_9allocatorIS5_EEE5firstB8ue170006Ev, symObjAddr: 0x5DF4, symBinAddr: 0x1000073A8, symSize: 0x24 }
  - { offsetInCU: 0x2E274, offset: 0x2E274, size: 0x8, addend: 0x0, symName: __ZNKSt3__122__compressed_pair_elemIPNS_10unique_ptrI12virtual_nodeNS_14default_deleteIS2_EEEELi0ELb0EE5__getB8ue170006Ev, symObjAddr: 0x5E18, symBinAddr: 0x1000073CC, symSize: 0x14 }
  - { offsetInCU: 0x2E29A, offset: 0x2E29A, size: 0x8, addend: 0x0, symName: __ZNSt3__114__split_bufferINS_10unique_ptrI12virtual_nodeNS_14default_deleteIS2_EEEERNS_9allocatorIS5_EEEC2EmmS8_, symObjAddr: 0x5E80, symBinAddr: 0x100007434, symSize: 0xD4 }
  - { offsetInCU: 0x2E30D, offset: 0x2E30D, size: 0x8, addend: 0x0, symName: __ZNSt3__117__compressed_pairIPNS_10unique_ptrI12virtual_nodeNS_14default_deleteIS2_EEEERNS_9allocatorIS5_EEEC1B8ue170006IDnS9_EEOT_OT0_, symObjAddr: 0x5F54, symBinAddr: 0x100007508, symSize: 0x3C }
  - { offsetInCU: 0x2E365, offset: 0x2E365, size: 0x8, addend: 0x0, symName: __ZNSt3__114__split_bufferINS_10unique_ptrI12virtual_nodeNS_14default_deleteIS2_EEEERNS_9allocatorIS5_EEE7__allocB8ue170006Ev, symObjAddr: 0x5FD0, symBinAddr: 0x100007584, symSize: 0x28 }
  - { offsetInCU: 0x2E38B, offset: 0x2E38B, size: 0x8, addend: 0x0, symName: __ZNSt3__114__split_bufferINS_10unique_ptrI12virtual_nodeNS_14default_deleteIS2_EEEERNS_9allocatorIS5_EEE9__end_capB8ue170006Ev, symObjAddr: 0x5FF8, symBinAddr: 0x1000075AC, symSize: 0x28 }
  - { offsetInCU: 0x2E3B1, offset: 0x2E3B1, size: 0x8, addend: 0x0, symName: __ZNSt3__117__compressed_pairIPNS_10unique_ptrI12virtual_nodeNS_14default_deleteIS2_EEEERNS_9allocatorIS5_EEEC2B8ue170006IDnS9_EEOT_OT0_, symObjAddr: 0x6020, symBinAddr: 0x1000075D4, symSize: 0x48 }
  - { offsetInCU: 0x2E409, offset: 0x2E409, size: 0x8, addend: 0x0, symName: __ZNSt3__122__compressed_pair_elemIRNS_9allocatorINS_10unique_ptrI12virtual_nodeNS_14default_deleteIS3_EEEEEELi1ELb0EEC2B8ue170006IS8_vEEOT_, symObjAddr: 0x6068, symBinAddr: 0x10000761C, symSize: 0x20 }
  - { offsetInCU: 0x2E44B, offset: 0x2E44B, size: 0x8, addend: 0x0, symName: __ZNSt3__19allocatorINS_10unique_ptrI12virtual_nodeNS_14default_deleteIS2_EEEEE8allocateB8ue170006Em, symObjAddr: 0x6088, symBinAddr: 0x10000763C, symSize: 0x58 }
  - { offsetInCU: 0x2E47F, offset: 0x2E47F, size: 0x8, addend: 0x0, symName: __ZNSt3__117__compressed_pairIPNS_10unique_ptrI12virtual_nodeNS_14default_deleteIS2_EEEERNS_9allocatorIS5_EEE6secondB8ue170006Ev, symObjAddr: 0x61E4, symBinAddr: 0x100007798, symSize: 0x28 }
  - { offsetInCU: 0x2E4A5, offset: 0x2E4A5, size: 0x8, addend: 0x0, symName: __ZNSt3__122__compressed_pair_elemIRNS_9allocatorINS_10unique_ptrI12virtual_nodeNS_14default_deleteIS3_EEEEEELi1ELb0EE5__getB8ue170006Ev, symObjAddr: 0x620C, symBinAddr: 0x1000077C0, symSize: 0x18 }
  - { offsetInCU: 0x2E4CB, offset: 0x2E4CB, size: 0x8, addend: 0x0, symName: __ZNSt3__117__compressed_pairIPNS_10unique_ptrI12virtual_nodeNS_14default_deleteIS2_EEEERNS_9allocatorIS5_EEE5firstB8ue170006Ev, symObjAddr: 0x6224, symBinAddr: 0x1000077D8, symSize: 0x24 }
  - { offsetInCU: 0x2E4F1, offset: 0x2E4F1, size: 0x8, addend: 0x0, symName: __ZNKSt3__16vectorINS_10unique_ptrI12virtual_nodeNS_14default_deleteIS2_EEEENS_9allocatorIS5_EEE17__annotate_deleteB8ue170006Ev, symObjAddr: 0x6248, symBinAddr: 0x1000077FC, symSize: 0xB8 }
  - { offsetInCU: 0x2E517, offset: 0x2E517, size: 0x8, addend: 0x0, symName: __ZNSt3__116reverse_iteratorIPNS_10unique_ptrI12virtual_nodeNS_14default_deleteIS2_EEEEEC1B8ue170006ES6_, symObjAddr: 0x642C, symBinAddr: 0x1000079E0, symSize: 0x34 }
  - { offsetInCU: 0x2E54F, offset: 0x2E54F, size: 0x8, addend: 0x0, symName: __ZNKSt3__116reverse_iteratorIPNS_10unique_ptrI12virtual_nodeNS_14default_deleteIS2_EEEEE4baseB8ue170006Ev, symObjAddr: 0x6460, symBinAddr: 0x100007A14, symSize: 0x18 }
  - { offsetInCU: 0x2E575, offset: 0x2E575, size: 0x8, addend: 0x0, symName: __ZNKSt3__16vectorINS_10unique_ptrI12virtual_nodeNS_14default_deleteIS2_EEEENS_9allocatorIS5_EEE14__annotate_newB8ue170006Em, symObjAddr: 0x64B4, symBinAddr: 0x100007A68, symSize: 0xAC }
  - { offsetInCU: 0x2E5AA, offset: 0x2E5AA, size: 0x8, addend: 0x0, symName: __ZNKSt3__16vectorINS_10unique_ptrI12virtual_nodeNS_14default_deleteIS2_EEEENS_9allocatorIS5_EEE31__annotate_contiguous_containerB8ue170006EPKvSA_SA_SA_, symObjAddr: 0x6560, symBinAddr: 0x100007B14, symSize: 0x20 }
  - { offsetInCU: 0x2E5FC, offset: 0x2E5FC, size: 0x8, addend: 0x0, symName: __ZNKSt3__16vectorINS_10unique_ptrI12virtual_nodeNS_14default_deleteIS2_EEEENS_9allocatorIS5_EEE4dataB8ue170006Ev, symObjAddr: 0x6580, symBinAddr: 0x100007B34, symSize: 0x28 }
  - { offsetInCU: 0x2E622, offset: 0x2E622, size: 0x8, addend: 0x0, symName: __ZNSt3__129_AllocatorDestroyRangeReverseINS_9allocatorINS_10unique_ptrI12virtual_nodeNS_14default_deleteIS3_EEEEEENS_16reverse_iteratorIPS6_EEEC1B8ue170006ERS7_RSA_SD_, symObjAddr: 0x65F4, symBinAddr: 0x100007BA8, symSize: 0x44 }
  - { offsetInCU: 0x2E679, offset: 0x2E679, size: 0x8, addend: 0x0, symName: __ZNKSt3__116reverse_iteratorIPNS_10unique_ptrI12virtual_nodeNS_14default_deleteIS2_EEEEEdeB8ue170006Ev, symObjAddr: 0x66A4, symBinAddr: 0x100007C58, symSize: 0x28 }
  - { offsetInCU: 0x2E6AD, offset: 0x2E6AD, size: 0x8, addend: 0x0, symName: __ZNSt3__116reverse_iteratorIPNS_10unique_ptrI12virtual_nodeNS_14default_deleteIS2_EEEEEppB8ue170006Ev, symObjAddr: 0x66CC, symBinAddr: 0x100007C80, symSize: 0x20 }
  - { offsetInCU: 0x2E6D3, offset: 0x2E6D3, size: 0x8, addend: 0x0, symName: __ZNSt3__128__exception_guard_exceptionsINS_29_AllocatorDestroyRangeReverseINS_9allocatorINS_10unique_ptrI12virtual_nodeNS_14default_deleteIS4_EEEEEENS_16reverse_iteratorIPS7_EEEEE10__completeB8ue170006Ev, symObjAddr: 0x66EC, symBinAddr: 0x100007CA0, symSize: 0x1C }
  - { offsetInCU: 0x2E6F9, offset: 0x2E6F9, size: 0x8, addend: 0x0, symName: __ZNSt3__128__exception_guard_exceptionsINS_29_AllocatorDestroyRangeReverseINS_9allocatorINS_10unique_ptrI12virtual_nodeNS_14default_deleteIS4_EEEEEENS_16reverse_iteratorIPS7_EEEEED1B8ue170006Ev, symObjAddr: 0x6708, symBinAddr: 0x100007CBC, symSize: 0x2C }
  - { offsetInCU: 0x2E723, offset: 0x2E723, size: 0x8, addend: 0x0, symName: __ZNSt3__128__exception_guard_exceptionsINS_29_AllocatorDestroyRangeReverseINS_9allocatorINS_10unique_ptrI12virtual_nodeNS_14default_deleteIS4_EEEEEENS_16reverse_iteratorIPS7_EEEEEC1B8ue170006ESC_, symObjAddr: 0x6734, symBinAddr: 0x100007CE8, symSize: 0x34 }
  - { offsetInCU: 0x2E75C, offset: 0x2E75C, size: 0x8, addend: 0x0, symName: __ZNSt3__128__exception_guard_exceptionsINS_29_AllocatorDestroyRangeReverseINS_9allocatorINS_10unique_ptrI12virtual_nodeNS_14default_deleteIS4_EEEEEENS_16reverse_iteratorIPS7_EEEEEC2B8ue170006ESC_, symObjAddr: 0x6768, symBinAddr: 0x100007D1C, symSize: 0x30 }
  - { offsetInCU: 0x2E795, offset: 0x2E795, size: 0x8, addend: 0x0, symName: __ZNSt3__129_AllocatorDestroyRangeReverseINS_9allocatorINS_10unique_ptrI12virtual_nodeNS_14default_deleteIS3_EEEEEENS_16reverse_iteratorIPS6_EEEC2B8ue170006ERS7_RSA_SD_, symObjAddr: 0x6798, symBinAddr: 0x100007D4C, symSize: 0x38 }
  - { offsetInCU: 0x2E7F2, offset: 0x2E7F2, size: 0x8, addend: 0x0, symName: __ZNSt3__119__to_address_helperINS_16reverse_iteratorIPNS_10unique_ptrI12virtual_nodeNS_14default_deleteIS3_EEEEEEvE6__callB8ue170006ERKS8_, symObjAddr: 0x67D0, symBinAddr: 0x100007D84, symSize: 0x38 }
  - { offsetInCU: 0x2E815, offset: 0x2E815, size: 0x8, addend: 0x0, symName: __ZNKSt3__116reverse_iteratorIPNS_10unique_ptrI12virtual_nodeNS_14default_deleteIS2_EEEEEptB8ue170006Ev, symObjAddr: 0x6808, symBinAddr: 0x100007DBC, symSize: 0x2C }
  - { offsetInCU: 0x2E83B, offset: 0x2E83B, size: 0x8, addend: 0x0, symName: __ZNSt3__128__exception_guard_exceptionsINS_29_AllocatorDestroyRangeReverseINS_9allocatorINS_10unique_ptrI12virtual_nodeNS_14default_deleteIS4_EEEEEENS_16reverse_iteratorIPS7_EEEEED2B8ue170006Ev, symObjAddr: 0x68E4, symBinAddr: 0x100007E98, symSize: 0x50 }
  - { offsetInCU: 0x2E865, offset: 0x2E865, size: 0x8, addend: 0x0, symName: __ZNKSt3__129_AllocatorDestroyRangeReverseINS_9allocatorINS_10unique_ptrI12virtual_nodeNS_14default_deleteIS3_EEEEEENS_16reverse_iteratorIPS6_EEEclB8ue170006Ev, symObjAddr: 0x6934, symBinAddr: 0x100007EE8, symSize: 0xB4 }
  - { offsetInCU: 0x2E88C, offset: 0x2E88C, size: 0x8, addend: 0x0, symName: __ZNSt3__116reverse_iteratorINS0_IPNS_10unique_ptrI12virtual_nodeNS_14default_deleteIS2_EEEEEEEC1B8ue170006ES7_, symObjAddr: 0x6A58, symBinAddr: 0x10000800C, symSize: 0x3C }
  - { offsetInCU: 0x2E8C4, offset: 0x2E8C4, size: 0x8, addend: 0x0, symName: __ZNSt3__116allocator_traitsINS_9allocatorINS_10unique_ptrI12virtual_nodeNS_14default_deleteIS3_EEEEEEE7destroyB8ue170006IS6_vvEEvRS7_PT_, symObjAddr: 0x6AF4, symBinAddr: 0x1000080A8, symSize: 0x28 }
  - { offsetInCU: 0x2E8FE, offset: 0x2E8FE, size: 0x8, addend: 0x0, symName: __ZNSt3__116reverse_iteratorINS0_IPNS_10unique_ptrI12virtual_nodeNS_14default_deleteIS2_EEEEEEEppB8ue170006Ev, symObjAddr: 0x6B40, symBinAddr: 0x1000080F4, symSize: 0x30 }
  - { offsetInCU: 0x2E924, offset: 0x2E924, size: 0x8, addend: 0x0, symName: __ZNKSt3__116reverse_iteratorINS0_IPNS_10unique_ptrI12virtual_nodeNS_14default_deleteIS2_EEEEEEE4baseB8ue170006Ev, symObjAddr: 0x6B70, symBinAddr: 0x100008124, symSize: 0x24 }
  - { offsetInCU: 0x2E950, offset: 0x2E950, size: 0x8, addend: 0x0, symName: __ZNSt3__119__to_address_helperINS_16reverse_iteratorINS1_IPNS_10unique_ptrI12virtual_nodeNS_14default_deleteIS3_EEEEEEEEvE6__callB8ue170006ERKS9_, symObjAddr: 0x6BDC, symBinAddr: 0x100008190, symSize: 0x38 }
  - { offsetInCU: 0x2E973, offset: 0x2E973, size: 0x8, addend: 0x0, symName: __ZNKSt3__116reverse_iteratorINS0_IPNS_10unique_ptrI12virtual_nodeNS_14default_deleteIS2_EEEEEEEptB8ue170006Ev, symObjAddr: 0x6C14, symBinAddr: 0x1000081C8, symSize: 0x4C }
  - { offsetInCU: 0x2E999, offset: 0x2E999, size: 0x8, addend: 0x0, symName: __ZNSt3__116reverse_iteratorIPNS_10unique_ptrI12virtual_nodeNS_14default_deleteIS2_EEEEEpLB8ue170006El, symObjAddr: 0x6D10, symBinAddr: 0x1000082C4, symSize: 0x30 }
  - { offsetInCU: 0x2E9CD, offset: 0x2E9CD, size: 0x8, addend: 0x0, symName: __ZNSt3__116reverse_iteratorIPNS_10unique_ptrI12virtual_nodeNS_14default_deleteIS2_EEEEEmmB8ue170006Ev, symObjAddr: 0x6D40, symBinAddr: 0x1000082F4, symSize: 0x20 }
  - { offsetInCU: 0x2E9F3, offset: 0x2E9F3, size: 0x8, addend: 0x0, symName: __ZNSt3__116reverse_iteratorINS0_IPNS_10unique_ptrI12virtual_nodeNS_14default_deleteIS2_EEEEEEEC2B8ue170006ES7_, symObjAddr: 0x6D60, symBinAddr: 0x100008314, symSize: 0x2C }
  - { offsetInCU: 0x2EA2B, offset: 0x2EA2B, size: 0x8, addend: 0x0, symName: __ZNSt3__116reverse_iteratorIPNS_10unique_ptrI12virtual_nodeNS_14default_deleteIS2_EEEEEC2B8ue170006ES6_, symObjAddr: 0x6D8C, symBinAddr: 0x100008340, symSize: 0x28 }
  - { offsetInCU: 0x2EA63, offset: 0x2EA63, size: 0x8, addend: 0x0, symName: __ZNSt3__114__split_bufferINS_10unique_ptrI12virtual_nodeNS_14default_deleteIS2_EEEERNS_9allocatorIS5_EEED2Ev, symObjAddr: 0x6DB4, symBinAddr: 0x100008368, symSize: 0x8C }
  - { offsetInCU: 0x2EA8F, offset: 0x2EA8F, size: 0x8, addend: 0x0, symName: __ZNSt3__114__split_bufferINS_10unique_ptrI12virtual_nodeNS_14default_deleteIS2_EEEERNS_9allocatorIS5_EEE5clearB8ue170006Ev, symObjAddr: 0x6E40, symBinAddr: 0x1000083F4, symSize: 0x28 }
  - { offsetInCU: 0x2EAB5, offset: 0x2EAB5, size: 0x8, addend: 0x0, symName: __ZNSt3__116allocator_traitsINS_9allocatorINS_10unique_ptrI12virtual_nodeNS_14default_deleteIS3_EEEEEEE10deallocateB8ue170006ERS7_PS6_m, symObjAddr: 0x6E68, symBinAddr: 0x10000841C, symSize: 0x34 }
  - { offsetInCU: 0x2EAF7, offset: 0x2EAF7, size: 0x8, addend: 0x0, symName: __ZNKSt3__114__split_bufferINS_10unique_ptrI12virtual_nodeNS_14default_deleteIS2_EEEERNS_9allocatorIS5_EEE8capacityB8ue170006Ev, symObjAddr: 0x6E9C, symBinAddr: 0x100008450, symSize: 0x40 }
  - { offsetInCU: 0x2EB1D, offset: 0x2EB1D, size: 0x8, addend: 0x0, symName: __ZNSt3__114__split_bufferINS_10unique_ptrI12virtual_nodeNS_14default_deleteIS2_EEEERNS_9allocatorIS5_EEE17__destruct_at_endB8ue170006EPS5_, symObjAddr: 0x6EDC, symBinAddr: 0x100008490, symSize: 0x2C }
  - { offsetInCU: 0x2EB51, offset: 0x2EB51, size: 0x8, addend: 0x0, symName: __ZNSt3__114__split_bufferINS_10unique_ptrI12virtual_nodeNS_14default_deleteIS2_EEEERNS_9allocatorIS5_EEE17__destruct_at_endB8ue170006EPS5_NS_17integral_constantIbLb0EEE, symObjAddr: 0x6F08, symBinAddr: 0x1000084BC, symSize: 0x80 }
  - { offsetInCU: 0x2EB91, offset: 0x2EB91, size: 0x8, addend: 0x0, symName: __ZNSt3__19allocatorINS_10unique_ptrI12virtual_nodeNS_14default_deleteIS2_EEEEE10deallocateB8ue170006EPS5_m, symObjAddr: 0x6F88, symBinAddr: 0x10000853C, symSize: 0x40 }
  - { offsetInCU: 0x2EBD3, offset: 0x2EBD3, size: 0x8, addend: 0x0, symName: __ZNKSt3__114__split_bufferINS_10unique_ptrI12virtual_nodeNS_14default_deleteIS2_EEEERNS_9allocatorIS5_EEE9__end_capB8ue170006Ev, symObjAddr: 0x70D0, symBinAddr: 0x100008684, symSize: 0x28 }
  - { offsetInCU: 0x2EBF9, offset: 0x2EBF9, size: 0x8, addend: 0x0, symName: __ZNKSt3__117__compressed_pairIPNS_10unique_ptrI12virtual_nodeNS_14default_deleteIS2_EEEERNS_9allocatorIS5_EEE5firstB8ue170006Ev, symObjAddr: 0x70F8, symBinAddr: 0x1000086AC, symSize: 0x24 }
  - { offsetInCU: 0x2EC1F, offset: 0x2EC1F, size: 0x8, addend: 0x0, symName: __ZNSt3__112basic_stringIcNS_11char_traitsIcEENS_9allocatorIcEEEC1B8ue170006EOS5_, symObjAddr: 0x711C, symBinAddr: 0x1000086D0, symSize: 0x34 }
  - { offsetInCU: 0x2EC58, offset: 0x2EC58, size: 0x8, addend: 0x0, symName: __ZN12virtual_nodeC1ENSt3__112basic_stringIcNS0_11char_traitsIcEENS0_9allocatorIcEEEENS0_5arrayIhLm16EEE, symObjAddr: 0x7150, symBinAddr: 0x100008704, symSize: 0x78 }
  - { offsetInCU: 0x2EC9F, offset: 0x2EC9F, size: 0x8, addend: 0x0, symName: __ZNSt3__110unique_ptrI12virtual_nodeNS_14default_deleteIS1_EEEC1B8ue170006ILb1EvEEPS1_, symObjAddr: 0x71C8, symBinAddr: 0x10000877C, symSize: 0x34 }
  - { offsetInCU: 0x2ECE2, offset: 0x2ECE2, size: 0x8, addend: 0x0, symName: __ZNSt3__112basic_stringIcNS_11char_traitsIcEENS_9allocatorIcEEEC2B8ue170006EOS5_, symObjAddr: 0x71FC, symBinAddr: 0x1000087B0, symSize: 0x48 }
  - { offsetInCU: 0x2ED1B, offset: 0x2ED1B, size: 0x8, addend: 0x0, symName: __ZN12virtual_nodeC2ENSt3__112basic_stringIcNS0_11char_traitsIcEENS0_9allocatorIcEEEENS0_5arrayIhLm16EEE, symObjAddr: 0x7244, symBinAddr: 0x1000087F8, symSize: 0x94 }
  - { offsetInCU: 0x2ED62, offset: 0x2ED62, size: 0x8, addend: 0x0, symName: __ZNSt3__110unique_ptrI12virtual_nodeNS_14default_deleteIS1_EEEC2B8ue170006ILb1EvEEPS1_, symObjAddr: 0x72D8, symBinAddr: 0x10000888C, symSize: 0x44 }
  - { offsetInCU: 0x2EDA5, offset: 0x2EDA5, size: 0x8, addend: 0x0, symName: __ZNSt3__117__compressed_pairIP12virtual_nodeNS_14default_deleteIS1_EEEC1B8ue170006IRS2_NS_16__value_init_tagEEEOT_OT0_, symObjAddr: 0x731C, symBinAddr: 0x1000088D0, symSize: 0x3C }
  - { offsetInCU: 0x2EDFD, offset: 0x2EDFD, size: 0x8, addend: 0x0, symName: __ZNSt3__117__compressed_pairIP12virtual_nodeNS_14default_deleteIS1_EEEC2B8ue170006IRS2_NS_16__value_init_tagEEEOT_OT0_, symObjAddr: 0x7358, symBinAddr: 0x10000890C, symSize: 0x40 }
  - { offsetInCU: 0x2EE55, offset: 0x2EE55, size: 0x8, addend: 0x0, symName: __ZNSt3__122__compressed_pair_elemIP12virtual_nodeLi0ELb0EEC2B8ue170006IRS2_vEEOT_, symObjAddr: 0x7398, symBinAddr: 0x10000894C, symSize: 0x24 }
  - { offsetInCU: 0x2EE97, offset: 0x2EE97, size: 0x8, addend: 0x0, symName: __ZNSt3__122__compressed_pair_elemINS_14default_deleteI12virtual_nodeEELi1ELb1EEC2B8ue170006ENS_16__value_init_tagE, symObjAddr: 0x73BC, symBinAddr: 0x100008970, symSize: 0x14 }
  - { offsetInCU: 0x2EECB, offset: 0x2EECB, size: 0x8, addend: 0x0, symName: __ZNSt3__112basic_stringIcNS_11char_traitsIcEENS_9allocatorIcEEE6insertB8ue170006EmRKS5_, symObjAddr: 0x73D0, symBinAddr: 0x100008984, symSize: 0x5C }
  - { offsetInCU: 0x2EF0F, offset: 0x2EF0F, size: 0x8, addend: 0x0, symName: __ZNSt3__110unique_ptrI12virtual_nodeNS_14default_deleteIS1_EEED2B8ue170006Ev, symObjAddr: 0x742C, symBinAddr: 0x1000089E0, symSize: 0x30 }
  - { offsetInCU: 0x2EF39, offset: 0x2EF39, size: 0x8, addend: 0x0, symName: __ZNSt3__110unique_ptrI12virtual_nodeNS_14default_deleteIS1_EEE5resetB8ue170006EPS1_, symObjAddr: 0x745C, symBinAddr: 0x100008A10, symSize: 0x78 }
  - { offsetInCU: 0x2EF7D, offset: 0x2EF7D, size: 0x8, addend: 0x0, symName: __ZNKSt3__114default_deleteI12virtual_nodeEclB8ue170006EPS1_, symObjAddr: 0x74D4, symBinAddr: 0x100008A88, symSize: 0x44 }
  - { offsetInCU: 0x2EFB1, offset: 0x2EFB1, size: 0x8, addend: 0x0, symName: __ZNSt3__113unordered_mapINS_12basic_stringIcNS_11char_traitsIcEENS_9allocatorIcEEEE9data_nodeNS_4hashIS6_EENS_8equal_toIS6_EENS4_INS_4pairIKS6_S7_EEEEED2B8ue170006Ev, symObjAddr: 0x7518, symBinAddr: 0x100008ACC, symSize: 0x2C }
  - { offsetInCU: 0x2EFDB, offset: 0x2EFDB, size: 0x8, addend: 0x0, symName: __ZNSt3__112__hash_tableINS_17__hash_value_typeINS_12basic_stringIcNS_11char_traitsIcEENS_9allocatorIcEEEE9data_nodeEENS_22__unordered_map_hasherIS7_S9_NS_4hashIS7_EENS_8equal_toIS7_EELb1EEENS_21__unordered_map_equalIS7_S9_SE_SC_Lb1EEENS5_IS9_EEED1Ev, symObjAddr: 0x7544, symBinAddr: 0x100008AF8, symSize: 0x2C }
  - { offsetInCU: 0x2F007, offset: 0x2F007, size: 0x8, addend: 0x0, symName: __ZNSt3__112__hash_tableINS_17__hash_value_typeINS_12basic_stringIcNS_11char_traitsIcEENS_9allocatorIcEEEE9data_nodeEENS_22__unordered_map_hasherIS7_S9_NS_4hashIS7_EENS_8equal_toIS7_EELb1EEENS_21__unordered_map_equalIS7_S9_SE_SC_Lb1EEENS5_IS9_EEED2Ev, symObjAddr: 0x7570, symBinAddr: 0x100008B24, symSize: 0x48 }
  - { offsetInCU: 0x2F033, offset: 0x2F033, size: 0x8, addend: 0x0, symName: __ZNSt3__112__hash_tableINS_17__hash_value_typeINS_12basic_stringIcNS_11char_traitsIcEENS_9allocatorIcEEEE9data_nodeEENS_22__unordered_map_hasherIS7_S9_NS_4hashIS7_EENS_8equal_toIS7_EELb1EEENS_21__unordered_map_equalIS7_S9_SE_SC_Lb1EEENS5_IS9_EEE17__deallocate_nodeEPNS_16__hash_node_baseIPNS_11__hash_nodeIS9_PvEEEE, symObjAddr: 0x75B8, symBinAddr: 0x100008B6C, symSize: 0xA8 }
  - { offsetInCU: 0x2F09D, offset: 0x2F09D, size: 0x8, addend: 0x0, symName: __ZNSt3__117__compressed_pairINS_16__hash_node_baseIPNS_11__hash_nodeINS_17__hash_value_typeINS_12basic_stringIcNS_11char_traitsIcEENS_9allocatorIcEEEE9data_nodeEEPvEEEENS7_ISD_EEE5firstB8ue170006Ev, symObjAddr: 0x7660, symBinAddr: 0x100008C14, symSize: 0x24 }
  - { offsetInCU: 0x2F0C3, offset: 0x2F0C3, size: 0x8, addend: 0x0, symName: __ZNSt3__110unique_ptrIA_PNS_16__hash_node_baseIPNS_11__hash_nodeINS_17__hash_value_typeINS_12basic_stringIcNS_11char_traitsIcEENS_9allocatorIcEEEE9data_nodeEEPvEEEENS_25__bucket_list_deallocatorINS7_ISG_EEEEED1B8ue170006Ev, symObjAddr: 0x7684, symBinAddr: 0x100008C38, symSize: 0x2C }
  - { offsetInCU: 0x2F0ED, offset: 0x2F0ED, size: 0x8, addend: 0x0, symName: __ZNSt3__112__hash_tableINS_17__hash_value_typeINS_12basic_stringIcNS_11char_traitsIcEENS_9allocatorIcEEEE9data_nodeEENS_22__unordered_map_hasherIS7_S9_NS_4hashIS7_EENS_8equal_toIS7_EELb1EEENS_21__unordered_map_equalIS7_S9_SE_SC_Lb1EEENS5_IS9_EEE12__node_allocB8ue170006Ev, symObjAddr: 0x76B0, symBinAddr: 0x100008C64, symSize: 0x28 }
  - { offsetInCU: 0x2F113, offset: 0x2F113, size: 0x8, addend: 0x0, symName: __ZNSt3__116__hash_node_baseIPNS_11__hash_nodeINS_17__hash_value_typeINS_12basic_stringIcNS_11char_traitsIcEENS_9allocatorIcEEEE9data_nodeEEPvEEE8__upcastB8ue170006Ev, symObjAddr: 0x76D8, symBinAddr: 0x100008C8C, symSize: 0x24 }
  - { offsetInCU: 0x2F139, offset: 0x2F139, size: 0x8, addend: 0x0, symName: __ZNSt3__116allocator_traitsINS_9allocatorINS_11__hash_nodeINS_17__hash_value_typeINS_12basic_stringIcNS_11char_traitsIcEENS1_IcEEEE9data_nodeEEPvEEEEE7destroyB8ue170006INS_4pairIKS8_S9_EEvvEEvRSD_PT_, symObjAddr: 0x76FC, symBinAddr: 0x100008CB0, symSize: 0x28 }
  - { offsetInCU: 0x2F173, offset: 0x2F173, size: 0x8, addend: 0x0, symName: __ZNSt3__122__hash_key_value_typesINS_17__hash_value_typeINS_12basic_stringIcNS_11char_traitsIcEENS_9allocatorIcEEEE9data_nodeEEE9__get_ptrB8ue170006ERS9_, symObjAddr: 0x7724, symBinAddr: 0x100008CD8, symSize: 0x24 }
  - { offsetInCU: 0x2F196, offset: 0x2F196, size: 0x8, addend: 0x0, symName: __ZNSt3__116allocator_traitsINS_9allocatorINS_11__hash_nodeINS_17__hash_value_typeINS_12basic_stringIcNS_11char_traitsIcEENS1_IcEEEE9data_nodeEEPvEEEEE10deallocateB8ue170006ERSD_PSC_m, symObjAddr: 0x7748, symBinAddr: 0x100008CFC, symSize: 0x34 }
  - { offsetInCU: 0x2F1D8, offset: 0x2F1D8, size: 0x8, addend: 0x0, symName: __ZNSt3__117__compressed_pairINS_16__hash_node_baseIPNS_11__hash_nodeINS_17__hash_value_typeINS_12basic_stringIcNS_11char_traitsIcEENS_9allocatorIcEEEE9data_nodeEEPvEEEENS7_ISD_EEE6secondB8ue170006Ev, symObjAddr: 0x777C, symBinAddr: 0x100008D30, symSize: 0x24 }
  - { offsetInCU: 0x2F1FE, offset: 0x2F1FE, size: 0x8, addend: 0x0, symName: __ZNSt3__122__compressed_pair_elemINS_9allocatorINS_11__hash_nodeINS_17__hash_value_typeINS_12basic_stringIcNS_11char_traitsIcEENS1_IcEEEE9data_nodeEEPvEEEELi1ELb1EE5__getB8ue170006Ev, symObjAddr: 0x77A0, symBinAddr: 0x100008D54, symSize: 0x14 }
  - { offsetInCU: 0x2F224, offset: 0x2F224, size: 0x8, addend: 0x0, symName: __ZNSt3__114pointer_traitsIPNS_16__hash_node_baseIPNS_11__hash_nodeINS_17__hash_value_typeINS_12basic_stringIcNS_11char_traitsIcEENS_9allocatorIcEEEE9data_nodeEEPvEEEEE10pointer_toB8ue170006ERSF_, symObjAddr: 0x77B4, symBinAddr: 0x100008D68, symSize: 0x14 }
  - { offsetInCU: 0x2F247, offset: 0x2F247, size: 0x8, addend: 0x0, symName: __ZNSt3__14pairIKNS_12basic_stringIcNS_11char_traitsIcEENS_9allocatorIcEEEE9data_nodeED1Ev, symObjAddr: 0x7810, symBinAddr: 0x100008DC4, symSize: 0x2C }
  - { offsetInCU: 0x2F273, offset: 0x2F273, size: 0x8, addend: 0x0, symName: __ZNSt3__14pairIKNS_12basic_stringIcNS_11char_traitsIcEENS_9allocatorIcEEEE9data_nodeED2Ev, symObjAddr: 0x783C, symBinAddr: 0x100008DF0, symSize: 0x38 }
  - { offsetInCU: 0x2F29F, offset: 0x2F29F, size: 0x8, addend: 0x0, symName: __ZNSt3__117__hash_value_typeINS_12basic_stringIcNS_11char_traitsIcEENS_9allocatorIcEEEE9data_nodeE11__get_valueB8ue170006Ev, symObjAddr: 0x7874, symBinAddr: 0x100008E28, symSize: 0x24 }
  - { offsetInCU: 0x2F2C5, offset: 0x2F2C5, size: 0x8, addend: 0x0, symName: __ZNSt3__19allocatorINS_11__hash_nodeINS_17__hash_value_typeINS_12basic_stringIcNS_11char_traitsIcEENS0_IcEEEE9data_nodeEEPvEEE10deallocateB8ue170006EPSB_m, symObjAddr: 0x78D0, symBinAddr: 0x100008E84, symSize: 0x44 }
  - { offsetInCU: 0x2F307, offset: 0x2F307, size: 0x8, addend: 0x0, symName: __ZNSt3__122__compressed_pair_elemINS_16__hash_node_baseIPNS_11__hash_nodeINS_17__hash_value_typeINS_12basic_stringIcNS_11char_traitsIcEENS_9allocatorIcEEEE9data_nodeEEPvEEEELi0ELb0EE5__getB8ue170006Ev, symObjAddr: 0x7914, symBinAddr: 0x100008EC8, symSize: 0x14 }
  - { offsetInCU: 0x2F32D, offset: 0x2F32D, size: 0x8, addend: 0x0, symName: __ZNSt3__110unique_ptrIA_PNS_16__hash_node_baseIPNS_11__hash_nodeINS_17__hash_value_typeINS_12basic_stringIcNS_11char_traitsIcEENS_9allocatorIcEEEE9data_nodeEEPvEEEENS_25__bucket_list_deallocatorINS7_ISG_EEEEED2B8ue170006Ev, symObjAddr: 0x7928, symBinAddr: 0x100008EDC, symSize: 0x30 }
  - { offsetInCU: 0x2F357, offset: 0x2F357, size: 0x8, addend: 0x0, symName: __ZNSt3__110unique_ptrIA_PNS_16__hash_node_baseIPNS_11__hash_nodeINS_17__hash_value_typeINS_12basic_stringIcNS_11char_traitsIcEENS_9allocatorIcEEEE9data_nodeEEPvEEEENS_25__bucket_list_deallocatorINS7_ISG_EEEEE5resetB8ue170006EDn, symObjAddr: 0x7958, symBinAddr: 0x100008F0C, symSize: 0x6C }
  - { offsetInCU: 0x2F397, offset: 0x2F397, size: 0x8, addend: 0x0, symName: __ZNSt3__117__compressed_pairIPPNS_16__hash_node_baseIPNS_11__hash_nodeINS_17__hash_value_typeINS_12basic_stringIcNS_11char_traitsIcEENS_9allocatorIcEEEE9data_nodeEEPvEEEENS_25__bucket_list_deallocatorINS7_ISG_EEEEE5firstB8ue170006Ev, symObjAddr: 0x79C4, symBinAddr: 0x100008F78, symSize: 0x24 }
  - { offsetInCU: 0x2F3BD, offset: 0x2F3BD, size: 0x8, addend: 0x0, symName: __ZNSt3__117__compressed_pairIPPNS_16__hash_node_baseIPNS_11__hash_nodeINS_17__hash_value_typeINS_12basic_stringIcNS_11char_traitsIcEENS_9allocatorIcEEEE9data_nodeEEPvEEEENS_25__bucket_list_deallocatorINS7_ISG_EEEEE6secondB8ue170006Ev, symObjAddr: 0x79E8, symBinAddr: 0x100008F9C, symSize: 0x28 }
  - { offsetInCU: 0x2F3E3, offset: 0x2F3E3, size: 0x8, addend: 0x0, symName: __ZNSt3__125__bucket_list_deallocatorINS_9allocatorIPNS_16__hash_node_baseIPNS_11__hash_nodeINS_17__hash_value_typeINS_12basic_stringIcNS_11char_traitsIcEENS1_IcEEEE9data_nodeEEPvEEEEEEEclB8ue170006EPSG_, symObjAddr: 0x7A10, symBinAddr: 0x100008FC4, symSize: 0x58 }
  - { offsetInCU: 0x2F418, offset: 0x2F418, size: 0x8, addend: 0x0, symName: __ZNSt3__122__compressed_pair_elemIPPNS_16__hash_node_baseIPNS_11__hash_nodeINS_17__hash_value_typeINS_12basic_stringIcNS_11char_traitsIcEENS_9allocatorIcEEEE9data_nodeEEPvEEEELi0ELb0EE5__getB8ue170006Ev, symObjAddr: 0x7A68, symBinAddr: 0x10000901C, symSize: 0x14 }
  - { offsetInCU: 0x2F43E, offset: 0x2F43E, size: 0x8, addend: 0x0, symName: __ZNSt3__122__compressed_pair_elemINS_25__bucket_list_deallocatorINS_9allocatorIPNS_16__hash_node_baseIPNS_11__hash_nodeINS_17__hash_value_typeINS_12basic_stringIcNS_11char_traitsIcEENS2_IcEEEE9data_nodeEEPvEEEEEEEELi1ELb0EE5__getB8ue170006Ev, symObjAddr: 0x7A7C, symBinAddr: 0x100009030, symSize: 0x14 }
  - { offsetInCU: 0x2F464, offset: 0x2F464, size: 0x8, addend: 0x0, symName: __ZNSt3__116allocator_traitsINS_9allocatorIPNS_16__hash_node_baseIPNS_11__hash_nodeINS_17__hash_value_typeINS_12basic_stringIcNS_11char_traitsIcEENS1_IcEEEE9data_nodeEEPvEEEEEEE10deallocateB8ue170006ERSH_PSG_m, symObjAddr: 0x7A90, symBinAddr: 0x100009044, symSize: 0x34 }
  - { offsetInCU: 0x2F4A6, offset: 0x2F4A6, size: 0x8, addend: 0x0, symName: __ZNSt3__125__bucket_list_deallocatorINS_9allocatorIPNS_16__hash_node_baseIPNS_11__hash_nodeINS_17__hash_value_typeINS_12basic_stringIcNS_11char_traitsIcEENS1_IcEEEE9data_nodeEEPvEEEEEEE7__allocB8ue170006Ev, symObjAddr: 0x7AC4, symBinAddr: 0x100009078, symSize: 0x24 }
  - { offsetInCU: 0x2F4CC, offset: 0x2F4CC, size: 0x8, addend: 0x0, symName: __ZNSt3__125__bucket_list_deallocatorINS_9allocatorIPNS_16__hash_node_baseIPNS_11__hash_nodeINS_17__hash_value_typeINS_12basic_stringIcNS_11char_traitsIcEENS1_IcEEEE9data_nodeEEPvEEEEEEE4sizeB8ue170006Ev, symObjAddr: 0x7AE8, symBinAddr: 0x10000909C, symSize: 0x24 }
  - { offsetInCU: 0x2F4F2, offset: 0x2F4F2, size: 0x8, addend: 0x0, symName: __ZNSt3__19allocatorIPNS_16__hash_node_baseIPNS_11__hash_nodeINS_17__hash_value_typeINS_12basic_stringIcNS_11char_traitsIcEENS0_IcEEEE9data_nodeEEPvEEEEE10deallocateB8ue170006EPSF_m, symObjAddr: 0x7B0C, symBinAddr: 0x1000090C0, symSize: 0x40 }
  - { offsetInCU: 0x2F534, offset: 0x2F534, size: 0x8, addend: 0x0, symName: __ZNSt3__117__compressed_pairImNS_9allocatorIPNS_16__hash_node_baseIPNS_11__hash_nodeINS_17__hash_value_typeINS_12basic_stringIcNS_11char_traitsIcEENS1_IcEEEE9data_nodeEEPvEEEEEEE6secondB8ue170006Ev, symObjAddr: 0x7B4C, symBinAddr: 0x100009100, symSize: 0x24 }
  - { offsetInCU: 0x2F55A, offset: 0x2F55A, size: 0x8, addend: 0x0, symName: __ZNSt3__122__compressed_pair_elemINS_9allocatorIPNS_16__hash_node_baseIPNS_11__hash_nodeINS_17__hash_value_typeINS_12basic_stringIcNS_11char_traitsIcEENS1_IcEEEE9data_nodeEEPvEEEEEELi1ELb1EE5__getB8ue170006Ev, symObjAddr: 0x7B70, symBinAddr: 0x100009124, symSize: 0x14 }
  - { offsetInCU: 0x2F580, offset: 0x2F580, size: 0x8, addend: 0x0, symName: __ZNSt3__117__compressed_pairImNS_9allocatorIPNS_16__hash_node_baseIPNS_11__hash_nodeINS_17__hash_value_typeINS_12basic_stringIcNS_11char_traitsIcEENS1_IcEEEE9data_nodeEEPvEEEEEEE5firstB8ue170006Ev, symObjAddr: 0x7B84, symBinAddr: 0x100009138, symSize: 0x24 }
  - { offsetInCU: 0x2F5A6, offset: 0x2F5A6, size: 0x8, addend: 0x0, symName: __ZNSt3__122__compressed_pair_elemImLi0ELb0EE5__getB8ue170006Ev, symObjAddr: 0x7BA8, symBinAddr: 0x10000915C, symSize: 0x14 }
  - { offsetInCU: 0x2F5CC, offset: 0x2F5CC, size: 0x8, addend: 0x0, symName: __ZNSt3__16vectorINS_10unique_ptrI12virtual_nodeNS_14default_deleteIS2_EEEENS_9allocatorIS5_EEED2B8ue170006Ev, symObjAddr: 0x7BBC, symBinAddr: 0x100009170, symSize: 0x44 }
  - { offsetInCU: 0x2F5F6, offset: 0x2F5F6, size: 0x8, addend: 0x0, symName: __ZNSt3__16vectorINS_10unique_ptrI12virtual_nodeNS_14default_deleteIS2_EEEENS_9allocatorIS5_EEE16__destroy_vectorC1B8ue170006ERS8_, symObjAddr: 0x7C00, symBinAddr: 0x1000091B4, symSize: 0x34 }
  - { offsetInCU: 0x2F62F, offset: 0x2F62F, size: 0x8, addend: 0x0, symName: __ZNSt3__16vectorINS_10unique_ptrI12virtual_nodeNS_14default_deleteIS2_EEEENS_9allocatorIS5_EEE16__destroy_vectorclB8ue170006Ev, symObjAddr: 0x7C34, symBinAddr: 0x1000091E8, symSize: 0x90 }
  - { offsetInCU: 0x2F655, offset: 0x2F655, size: 0x8, addend: 0x0, symName: __ZNSt3__16vectorINS_10unique_ptrI12virtual_nodeNS_14default_deleteIS2_EEEENS_9allocatorIS5_EEE16__destroy_vectorC2B8ue170006ERS8_, symObjAddr: 0x7CC4, symBinAddr: 0x100009278, symSize: 0x20 }
  - { offsetInCU: 0x2F68E, offset: 0x2F68E, size: 0x8, addend: 0x0, symName: __ZNSt3__16vectorINS_10unique_ptrI12virtual_nodeNS_14default_deleteIS2_EEEENS_9allocatorIS5_EEE7__clearB8ue170006Ev, symObjAddr: 0x7CE4, symBinAddr: 0x100009298, symSize: 0x28 }
  - { offsetInCU: 0x2F6B4, offset: 0x2F6B4, size: 0x8, addend: 0x0, symName: __ZNSt3__16vectorINS_10unique_ptrI12virtual_nodeNS_14default_deleteIS2_EEEENS_9allocatorIS5_EEE22__base_destruct_at_endB8ue170006EPS5_, symObjAddr: 0x7D0C, symBinAddr: 0x1000092C0, symSize: 0x8C }
  - { offsetInCU: 0x2F6F8, offset: 0x2F6F8, size: 0x8, addend: 0x0, symName: __ZNSt3__16vectorI12virtual_nodeNS_9allocatorIS1_EEEC2B8ue170006Ev, symObjAddr: 0x7D98, symBinAddr: 0x10000934C, symSize: 0x4C }
  - { offsetInCU: 0x2F722, offset: 0x2F722, size: 0x8, addend: 0x0, symName: __ZNSt3__117__compressed_pairIP12virtual_nodeNS_9allocatorIS1_EEEC1B8ue170006IDnNS_18__default_init_tagEEEOT_OT0_, symObjAddr: 0x7DE4, symBinAddr: 0x100009398, symSize: 0x3C }
  - { offsetInCU: 0x2F77A, offset: 0x2F77A, size: 0x8, addend: 0x0, symName: __ZNSt3__117__compressed_pairIP12virtual_nodeNS_9allocatorIS1_EEEC2B8ue170006IDnNS_18__default_init_tagEEEOT_OT0_, symObjAddr: 0x7E20, symBinAddr: 0x1000093D4, symSize: 0x40 }
  - { offsetInCU: 0x2F7D2, offset: 0x2F7D2, size: 0x8, addend: 0x0, symName: __ZNSt3__122__compressed_pair_elemIP12virtual_nodeLi0ELb0EEC2B8ue170006IDnvEEOT_, symObjAddr: 0x7E60, symBinAddr: 0x100009414, symSize: 0x1C }
  - { offsetInCU: 0x2F814, offset: 0x2F814, size: 0x8, addend: 0x0, symName: __ZNSt3__122__compressed_pair_elemINS_9allocatorI12virtual_nodeEELi1ELb1EEC2B8ue170006ENS_18__default_init_tagE, symObjAddr: 0x7E7C, symBinAddr: 0x100009430, symSize: 0x2C }
  - { offsetInCU: 0x2F848, offset: 0x2F848, size: 0x8, addend: 0x0, symName: __ZNSt3__19allocatorI12virtual_nodeEC2B8ue170006Ev, symObjAddr: 0x7EA8, symBinAddr: 0x10000945C, symSize: 0x2C }
  - { offsetInCU: 0x2F872, offset: 0x2F872, size: 0x8, addend: 0x0, symName: __ZNSt3__116__non_trivial_ifILb1ENS_9allocatorI12virtual_nodeEEEC2B8ue170006Ev, symObjAddr: 0x7ED4, symBinAddr: 0x100009488, symSize: 0x14 }
  - { offsetInCU: 0x2F89C, offset: 0x2F89C, size: 0x8, addend: 0x0, symName: __ZNSt3__16vectorINS_10unique_ptrI12virtual_nodeNS_14default_deleteIS2_EEEENS_9allocatorIS5_EEE11__make_iterB8ue170006EPS5_, symObjAddr: 0x7EE8, symBinAddr: 0x10000949C, symSize: 0x30 }
  - { offsetInCU: 0x2F8D1, offset: 0x2F8D1, size: 0x8, addend: 0x0, symName: __ZNSt3__111__wrap_iterIPNS_10unique_ptrI12virtual_nodeNS_14default_deleteIS2_EEEEEC1B8ue170006ES6_, symObjAddr: 0x7F18, symBinAddr: 0x1000094CC, symSize: 0x34 }
  - { offsetInCU: 0x2F909, offset: 0x2F909, size: 0x8, addend: 0x0, symName: __ZNSt3__111__wrap_iterIPNS_10unique_ptrI12virtual_nodeNS_14default_deleteIS2_EEEEEC2B8ue170006ES6_, symObjAddr: 0x7F4C, symBinAddr: 0x100009500, symSize: 0x20 }
  - { offsetInCU: 0x2F941, offset: 0x2F941, size: 0x8, addend: 0x0, symName: __ZNKSt3__111__wrap_iterIPNS_10unique_ptrI12virtual_nodeNS_14default_deleteIS2_EEEEE4baseB8ue170006Ev, symObjAddr: 0x7FB4, symBinAddr: 0x100009568, symSize: 0x18 }
  - { offsetInCU: 0x2F967, offset: 0x2F967, size: 0x8, addend: 0x0, symName: __ZNSt3__16vectorI12virtual_nodeNS_9allocatorIS1_EEE9__end_capB8ue170006Ev, symObjAddr: 0x7FCC, symBinAddr: 0x100009580, symSize: 0x28 }
  - { offsetInCU: 0x2F98D, offset: 0x2F98D, size: 0x8, addend: 0x0, symName: __ZNSt3__16vectorI12virtual_nodeNS_9allocatorIS1_EEE22__construct_one_at_endB8ue170006IJRKS1_EEEvDpOT_, symObjAddr: 0x7FF4, symBinAddr: 0x1000095A8, symSize: 0x90 }
  - { offsetInCU: 0x2F9DC, offset: 0x2F9DC, size: 0x8, addend: 0x0, symName: __ZNSt3__16vectorI12virtual_nodeNS_9allocatorIS1_EEE21__push_back_slow_pathIRKS1_EEvOT_, symObjAddr: 0x8084, symBinAddr: 0x100009638, symSize: 0xD8 }
  - { offsetInCU: 0x2FA3A, offset: 0x2FA3A, size: 0x8, addend: 0x0, symName: __ZNSt3__117__compressed_pairIP12virtual_nodeNS_9allocatorIS1_EEE5firstB8ue170006Ev, symObjAddr: 0x815C, symBinAddr: 0x100009710, symSize: 0x24 }
  - { offsetInCU: 0x2FA7C, offset: 0x2FA7C, size: 0x8, addend: 0x0, symName: __ZNSt3__16vectorI12virtual_nodeNS_9allocatorIS1_EEE21_ConstructTransactionC1B8ue170006ERS4_m, symObjAddr: 0x8180, symBinAddr: 0x100009734, symSize: 0x3C }
  - { offsetInCU: 0x2FAC4, offset: 0x2FAC4, size: 0x8, addend: 0x0, symName: __ZNSt3__116allocator_traitsINS_9allocatorI12virtual_nodeEEE9constructB8ue170006IS2_JRKS2_EvvEEvRS3_PT_DpOT0_, symObjAddr: 0x81BC, symBinAddr: 0x100009770, symSize: 0x30 }
  - { offsetInCU: 0x2FB18, offset: 0x2FB18, size: 0x8, addend: 0x0, symName: __ZNSt3__16vectorI12virtual_nodeNS_9allocatorIS1_EEE7__allocB8ue170006Ev, symObjAddr: 0x81EC, symBinAddr: 0x1000097A0, symSize: 0x28 }
  - { offsetInCU: 0x2FB3E, offset: 0x2FB3E, size: 0x8, addend: 0x0, symName: __ZNSt3__16vectorI12virtual_nodeNS_9allocatorIS1_EEE21_ConstructTransactionD1B8ue170006Ev, symObjAddr: 0x8228, symBinAddr: 0x1000097DC, symSize: 0x2C }
  - { offsetInCU: 0x2FB68, offset: 0x2FB68, size: 0x8, addend: 0x0, symName: __ZNSt3__16vectorI12virtual_nodeNS_9allocatorIS1_EEE21_ConstructTransactionC2B8ue170006ERS4_m, symObjAddr: 0x8254, symBinAddr: 0x100009808, symSize: 0x44 }
  - { offsetInCU: 0x2FBB0, offset: 0x2FBB0, size: 0x8, addend: 0x0, symName: __ZNSt3__117__compressed_pairIP12virtual_nodeNS_9allocatorIS1_EEE6secondB8ue170006Ev, symObjAddr: 0x82CC, symBinAddr: 0x100009880, symSize: 0x24 }
  - { offsetInCU: 0x2FBD6, offset: 0x2FBD6, size: 0x8, addend: 0x0, symName: __ZNSt3__122__compressed_pair_elemINS_9allocatorI12virtual_nodeEELi1ELb1EE5__getB8ue170006Ev, symObjAddr: 0x82F0, symBinAddr: 0x1000098A4, symSize: 0x14 }
  - { offsetInCU: 0x2FBFC, offset: 0x2FBFC, size: 0x8, addend: 0x0, symName: __ZNSt3__16vectorI12virtual_nodeNS_9allocatorIS1_EEE21_ConstructTransactionD2B8ue170006Ev, symObjAddr: 0x8304, symBinAddr: 0x1000098B8, symSize: 0x20 }
  - { offsetInCU: 0x2FC26, offset: 0x2FC26, size: 0x8, addend: 0x0, symName: __ZNKSt3__16vectorI12virtual_nodeNS_9allocatorIS1_EEE11__recommendB8ue170006Em, symObjAddr: 0x8324, symBinAddr: 0x1000098D8, symSize: 0xB4 }
  - { offsetInCU: 0x2FC7B, offset: 0x2FC7B, size: 0x8, addend: 0x0, symName: __ZNSt3__114__split_bufferI12virtual_nodeRNS_9allocatorIS1_EEEC1EmmS4_, symObjAddr: 0x83D8, symBinAddr: 0x10000998C, symSize: 0x44 }
  - { offsetInCU: 0x2FCD1, offset: 0x2FCD1, size: 0x8, addend: 0x0, symName: __ZNSt3__114__split_bufferI12virtual_nodeRNS_9allocatorIS1_EEED1Ev, symObjAddr: 0x852C, symBinAddr: 0x100009AE0, symSize: 0x2C }
  - { offsetInCU: 0x2FCFD, offset: 0x2FCFD, size: 0x8, addend: 0x0, symName: __ZNKSt3__16vectorI12virtual_nodeNS_9allocatorIS1_EEE8max_sizeEv, symObjAddr: 0x8558, symBinAddr: 0x100009B0C, symSize: 0x60 }
  - { offsetInCU: 0x2FD25, offset: 0x2FD25, size: 0x8, addend: 0x0, symName: __ZNKSt3__16vectorI12virtual_nodeNS_9allocatorIS1_EEE20__throw_length_errorB8ue170006Ev, symObjAddr: 0x85B8, symBinAddr: 0x100009B6C, symSize: 0x1C }
  - { offsetInCU: 0x2FD4B, offset: 0x2FD4B, size: 0x8, addend: 0x0, symName: __ZNKSt3__16vectorI12virtual_nodeNS_9allocatorIS1_EEE8capacityB8ue170006Ev, symObjAddr: 0x85D4, symBinAddr: 0x100009B88, symSize: 0x40 }
  - { offsetInCU: 0x2FD7C, offset: 0x2FD7C, size: 0x8, addend: 0x0, symName: __ZNSt3__116allocator_traitsINS_9allocatorI12virtual_nodeEEE8max_sizeB8ue170006IS3_vvEEmRKS3_, symObjAddr: 0x8614, symBinAddr: 0x100009BC8, symSize: 0x28 }
  - { offsetInCU: 0x2FDA7, offset: 0x2FDA7, size: 0x8, addend: 0x0, symName: __ZNKSt3__16vectorI12virtual_nodeNS_9allocatorIS1_EEE7__allocB8ue170006Ev, symObjAddr: 0x863C, symBinAddr: 0x100009BF0, symSize: 0x28 }
  - { offsetInCU: 0x2FDCD, offset: 0x2FDCD, size: 0x8, addend: 0x0, symName: __ZNKSt3__117__compressed_pairIP12virtual_nodeNS_9allocatorIS1_EEE6secondB8ue170006Ev, symObjAddr: 0x8664, symBinAddr: 0x100009C18, symSize: 0x24 }
  - { offsetInCU: 0x2FDF3, offset: 0x2FDF3, size: 0x8, addend: 0x0, symName: __ZNKSt3__122__compressed_pair_elemINS_9allocatorI12virtual_nodeEELi1ELb1EE5__getB8ue170006Ev, symObjAddr: 0x8688, symBinAddr: 0x100009C3C, symSize: 0x14 }
  - { offsetInCU: 0x2FE19, offset: 0x2FE19, size: 0x8, addend: 0x0, symName: __ZNKSt3__16vectorI12virtual_nodeNS_9allocatorIS1_EEE9__end_capB8ue170006Ev, symObjAddr: 0x869C, symBinAddr: 0x100009C50, symSize: 0x28 }
  - { offsetInCU: 0x2FE3F, offset: 0x2FE3F, size: 0x8, addend: 0x0, symName: __ZNKSt3__117__compressed_pairIP12virtual_nodeNS_9allocatorIS1_EEE5firstB8ue170006Ev, symObjAddr: 0x86C4, symBinAddr: 0x100009C78, symSize: 0x24 }
  - { offsetInCU: 0x2FE65, offset: 0x2FE65, size: 0x8, addend: 0x0, symName: __ZNKSt3__122__compressed_pair_elemIP12virtual_nodeLi0ELb0EE5__getB8ue170006Ev, symObjAddr: 0x86E8, symBinAddr: 0x100009C9C, symSize: 0x14 }
  - { offsetInCU: 0x2FE8B, offset: 0x2FE8B, size: 0x8, addend: 0x0, symName: __ZNSt3__114__split_bufferI12virtual_nodeRNS_9allocatorIS1_EEEC2EmmS4_, symObjAddr: 0x86FC, symBinAddr: 0x100009CB0, symSize: 0xD4 }
  - { offsetInCU: 0x2FEFE, offset: 0x2FEFE, size: 0x8, addend: 0x0, symName: __ZNSt3__117__compressed_pairIP12virtual_nodeRNS_9allocatorIS1_EEEC1B8ue170006IDnS5_EEOT_OT0_, symObjAddr: 0x87D0, symBinAddr: 0x100009D84, symSize: 0x3C }
  - { offsetInCU: 0x2FF56, offset: 0x2FF56, size: 0x8, addend: 0x0, symName: __ZNSt3__114__split_bufferI12virtual_nodeRNS_9allocatorIS1_EEE7__allocB8ue170006Ev, symObjAddr: 0x884C, symBinAddr: 0x100009E00, symSize: 0x28 }
  - { offsetInCU: 0x2FF7C, offset: 0x2FF7C, size: 0x8, addend: 0x0, symName: __ZNSt3__114__split_bufferI12virtual_nodeRNS_9allocatorIS1_EEE9__end_capB8ue170006Ev, symObjAddr: 0x8874, symBinAddr: 0x100009E28, symSize: 0x28 }
  - { offsetInCU: 0x2FFA2, offset: 0x2FFA2, size: 0x8, addend: 0x0, symName: __ZNSt3__117__compressed_pairIP12virtual_nodeRNS_9allocatorIS1_EEEC2B8ue170006IDnS5_EEOT_OT0_, symObjAddr: 0x889C, symBinAddr: 0x100009E50, symSize: 0x48 }
  - { offsetInCU: 0x2FFFA, offset: 0x2FFFA, size: 0x8, addend: 0x0, symName: __ZNSt3__122__compressed_pair_elemIRNS_9allocatorI12virtual_nodeEELi1ELb0EEC2B8ue170006IS4_vEEOT_, symObjAddr: 0x88E4, symBinAddr: 0x100009E98, symSize: 0x20 }
  - { offsetInCU: 0x3003C, offset: 0x3003C, size: 0x8, addend: 0x0, symName: __ZNSt3__19allocatorI12virtual_nodeE8allocateB8ue170006Em, symObjAddr: 0x8904, symBinAddr: 0x100009EB8, symSize: 0x58 }
  - { offsetInCU: 0x30070, offset: 0x30070, size: 0x8, addend: 0x0, symName: __ZNSt3__117__compressed_pairIP12virtual_nodeRNS_9allocatorIS1_EEE6secondB8ue170006Ev, symObjAddr: 0x895C, symBinAddr: 0x100009F10, symSize: 0x28 }
  - { offsetInCU: 0x30096, offset: 0x30096, size: 0x8, addend: 0x0, symName: __ZNSt3__122__compressed_pair_elemIRNS_9allocatorI12virtual_nodeEELi1ELb0EE5__getB8ue170006Ev, symObjAddr: 0x8984, symBinAddr: 0x100009F38, symSize: 0x18 }
  - { offsetInCU: 0x300BC, offset: 0x300BC, size: 0x8, addend: 0x0, symName: __ZNSt3__117__compressed_pairIP12virtual_nodeRNS_9allocatorIS1_EEE5firstB8ue170006Ev, symObjAddr: 0x899C, symBinAddr: 0x100009F50, symSize: 0x24 }
  - { offsetInCU: 0x300E2, offset: 0x300E2, size: 0x8, addend: 0x0, symName: __ZNKSt3__16vectorI12virtual_nodeNS_9allocatorIS1_EEE17__annotate_deleteB8ue170006Ev, symObjAddr: 0x89C0, symBinAddr: 0x100009F74, symSize: 0xB8 }
  - { offsetInCU: 0x30108, offset: 0x30108, size: 0x8, addend: 0x0, symName: __ZNSt3__116reverse_iteratorIP12virtual_nodeEC1B8ue170006ES2_, symObjAddr: 0x8BA4, symBinAddr: 0x10000A158, symSize: 0x34 }
  - { offsetInCU: 0x30140, offset: 0x30140, size: 0x8, addend: 0x0, symName: __ZNKSt3__116reverse_iteratorIP12virtual_nodeE4baseB8ue170006Ev, symObjAddr: 0x8BD8, symBinAddr: 0x10000A18C, symSize: 0x18 }
  - { offsetInCU: 0x30166, offset: 0x30166, size: 0x8, addend: 0x0, symName: __ZNKSt3__16vectorI12virtual_nodeNS_9allocatorIS1_EEE14__annotate_newB8ue170006Em, symObjAddr: 0x8C2C, symBinAddr: 0x10000A1E0, symSize: 0xAC }
  - { offsetInCU: 0x3019B, offset: 0x3019B, size: 0x8, addend: 0x0, symName: __ZNKSt3__16vectorI12virtual_nodeNS_9allocatorIS1_EEE31__annotate_contiguous_containerB8ue170006EPKvS6_S6_S6_, symObjAddr: 0x8CD8, symBinAddr: 0x10000A28C, symSize: 0x20 }
  - { offsetInCU: 0x301ED, offset: 0x301ED, size: 0x8, addend: 0x0, symName: __ZNKSt3__16vectorI12virtual_nodeNS_9allocatorIS1_EEE4dataB8ue170006Ev, symObjAddr: 0x8CF8, symBinAddr: 0x10000A2AC, symSize: 0x28 }
  - { offsetInCU: 0x30213, offset: 0x30213, size: 0x8, addend: 0x0, symName: __ZNSt3__129_AllocatorDestroyRangeReverseINS_9allocatorI12virtual_nodeEENS_16reverse_iteratorIPS2_EEEC1B8ue170006ERS3_RS6_S9_, symObjAddr: 0x8D6C, symBinAddr: 0x10000A320, symSize: 0x44 }
  - { offsetInCU: 0x30270, offset: 0x30270, size: 0x8, addend: 0x0, symName: __ZNSt3__116allocator_traitsINS_9allocatorI12virtual_nodeEEE9constructB8ue170006IS2_JS2_EvvEEvRS3_PT_DpOT0_, symObjAddr: 0x8DF8, symBinAddr: 0x10000A3AC, symSize: 0x30 }
  - { offsetInCU: 0x302C4, offset: 0x302C4, size: 0x8, addend: 0x0, symName: __ZNKSt3__116reverse_iteratorIP12virtual_nodeEdeB8ue170006Ev, symObjAddr: 0x8E4C, symBinAddr: 0x10000A400, symSize: 0x28 }
  - { offsetInCU: 0x302F8, offset: 0x302F8, size: 0x8, addend: 0x0, symName: __ZNSt3__116reverse_iteratorIP12virtual_nodeEppB8ue170006Ev, symObjAddr: 0x8E74, symBinAddr: 0x10000A428, symSize: 0x20 }
  - { offsetInCU: 0x3031E, offset: 0x3031E, size: 0x8, addend: 0x0, symName: __ZNSt3__128__exception_guard_exceptionsINS_29_AllocatorDestroyRangeReverseINS_9allocatorI12virtual_nodeEENS_16reverse_iteratorIPS3_EEEEE10__completeB8ue170006Ev, symObjAddr: 0x8E94, symBinAddr: 0x10000A448, symSize: 0x1C }
  - { offsetInCU: 0x30344, offset: 0x30344, size: 0x8, addend: 0x0, symName: __ZNSt3__128__exception_guard_exceptionsINS_29_AllocatorDestroyRangeReverseINS_9allocatorI12virtual_nodeEENS_16reverse_iteratorIPS3_EEEEED1B8ue170006Ev, symObjAddr: 0x8EB0, symBinAddr: 0x10000A464, symSize: 0x2C }
  - { offsetInCU: 0x3036E, offset: 0x3036E, size: 0x8, addend: 0x0, symName: __ZNSt3__128__exception_guard_exceptionsINS_29_AllocatorDestroyRangeReverseINS_9allocatorI12virtual_nodeEENS_16reverse_iteratorIPS3_EEEEEC1B8ue170006ES8_, symObjAddr: 0x8EDC, symBinAddr: 0x10000A490, symSize: 0x34 }
  - { offsetInCU: 0x303A7, offset: 0x303A7, size: 0x8, addend: 0x0, symName: __ZNSt3__128__exception_guard_exceptionsINS_29_AllocatorDestroyRangeReverseINS_9allocatorI12virtual_nodeEENS_16reverse_iteratorIPS3_EEEEEC2B8ue170006ES8_, symObjAddr: 0x8F10, symBinAddr: 0x10000A4C4, symSize: 0x30 }
  - { offsetInCU: 0x303E0, offset: 0x303E0, size: 0x8, addend: 0x0, symName: __ZNSt3__129_AllocatorDestroyRangeReverseINS_9allocatorI12virtual_nodeEENS_16reverse_iteratorIPS2_EEEC2B8ue170006ERS3_RS6_S9_, symObjAddr: 0x8F40, symBinAddr: 0x10000A4F4, symSize: 0x38 }
  - { offsetInCU: 0x3043D, offset: 0x3043D, size: 0x8, addend: 0x0, symName: __ZNSt3__119__to_address_helperINS_16reverse_iteratorIP12virtual_nodeEEvE6__callB8ue170006ERKS4_, symObjAddr: 0x8FAC, symBinAddr: 0x10000A560, symSize: 0x38 }
  - { offsetInCU: 0x30460, offset: 0x30460, size: 0x8, addend: 0x0, symName: __ZNKSt3__116reverse_iteratorIP12virtual_nodeEptB8ue170006Ev, symObjAddr: 0x8FE4, symBinAddr: 0x10000A598, symSize: 0x2C }
  - { offsetInCU: 0x30486, offset: 0x30486, size: 0x8, addend: 0x0, symName: __ZNSt3__128__exception_guard_exceptionsINS_29_AllocatorDestroyRangeReverseINS_9allocatorI12virtual_nodeEENS_16reverse_iteratorIPS3_EEEEED2B8ue170006Ev, symObjAddr: 0x90AC, symBinAddr: 0x10000A660, symSize: 0x50 }
  - { offsetInCU: 0x304B0, offset: 0x304B0, size: 0x8, addend: 0x0, symName: __ZNKSt3__129_AllocatorDestroyRangeReverseINS_9allocatorI12virtual_nodeEENS_16reverse_iteratorIPS2_EEEclB8ue170006Ev, symObjAddr: 0x90FC, symBinAddr: 0x10000A6B0, symSize: 0xB4 }
  - { offsetInCU: 0x304D7, offset: 0x304D7, size: 0x8, addend: 0x0, symName: __ZNSt3__116reverse_iteratorINS0_IP12virtual_nodeEEEC1B8ue170006ES3_, symObjAddr: 0x9220, symBinAddr: 0x10000A7D4, symSize: 0x3C }
  - { offsetInCU: 0x3050F, offset: 0x3050F, size: 0x8, addend: 0x0, symName: __ZNSt3__116allocator_traitsINS_9allocatorI12virtual_nodeEEE7destroyB8ue170006IS2_vvEEvRS3_PT_, symObjAddr: 0x92BC, symBinAddr: 0x10000A870, symSize: 0x28 }
  - { offsetInCU: 0x30549, offset: 0x30549, size: 0x8, addend: 0x0, symName: __ZNSt3__116reverse_iteratorINS0_IP12virtual_nodeEEEppB8ue170006Ev, symObjAddr: 0x9308, symBinAddr: 0x10000A8BC, symSize: 0x30 }
  - { offsetInCU: 0x3056F, offset: 0x3056F, size: 0x8, addend: 0x0, symName: __ZNKSt3__116reverse_iteratorINS0_IP12virtual_nodeEEE4baseB8ue170006Ev, symObjAddr: 0x9338, symBinAddr: 0x10000A8EC, symSize: 0x24 }
  - { offsetInCU: 0x3059B, offset: 0x3059B, size: 0x8, addend: 0x0, symName: __ZNSt3__119__to_address_helperINS_16reverse_iteratorINS1_IP12virtual_nodeEEEEvE6__callB8ue170006ERKS5_, symObjAddr: 0x9390, symBinAddr: 0x10000A944, symSize: 0x38 }
  - { offsetInCU: 0x305BE, offset: 0x305BE, size: 0x8, addend: 0x0, symName: __ZNKSt3__116reverse_iteratorINS0_IP12virtual_nodeEEEptB8ue170006Ev, symObjAddr: 0x93C8, symBinAddr: 0x10000A97C, symSize: 0x4C }
  - { offsetInCU: 0x305E4, offset: 0x305E4, size: 0x8, addend: 0x0, symName: __ZNSt3__116reverse_iteratorIP12virtual_nodeEpLB8ue170006El, symObjAddr: 0x94C4, symBinAddr: 0x10000AA78, symSize: 0x30 }
  - { offsetInCU: 0x30618, offset: 0x30618, size: 0x8, addend: 0x0, symName: __ZNSt3__116reverse_iteratorIP12virtual_nodeEmmB8ue170006Ev, symObjAddr: 0x94F4, symBinAddr: 0x10000AAA8, symSize: 0x20 }
  - { offsetInCU: 0x3063E, offset: 0x3063E, size: 0x8, addend: 0x0, symName: __ZNSt3__116reverse_iteratorINS0_IP12virtual_nodeEEEC2B8ue170006ES3_, symObjAddr: 0x9514, symBinAddr: 0x10000AAC8, symSize: 0x2C }
  - { offsetInCU: 0x30676, offset: 0x30676, size: 0x8, addend: 0x0, symName: __ZNSt3__116reverse_iteratorIP12virtual_nodeEC2B8ue170006ES2_, symObjAddr: 0x9540, symBinAddr: 0x10000AAF4, symSize: 0x28 }
  - { offsetInCU: 0x306AE, offset: 0x306AE, size: 0x8, addend: 0x0, symName: __ZNSt3__114__split_bufferI12virtual_nodeRNS_9allocatorIS1_EEED2Ev, symObjAddr: 0x9568, symBinAddr: 0x10000AB1C, symSize: 0x8C }
  - { offsetInCU: 0x306DA, offset: 0x306DA, size: 0x8, addend: 0x0, symName: __ZNSt3__114__split_bufferI12virtual_nodeRNS_9allocatorIS1_EEE5clearB8ue170006Ev, symObjAddr: 0x95F4, symBinAddr: 0x10000ABA8, symSize: 0x28 }
  - { offsetInCU: 0x30700, offset: 0x30700, size: 0x8, addend: 0x0, symName: __ZNSt3__116allocator_traitsINS_9allocatorI12virtual_nodeEEE10deallocateB8ue170006ERS3_PS2_m, symObjAddr: 0x961C, symBinAddr: 0x10000ABD0, symSize: 0x34 }
  - { offsetInCU: 0x30742, offset: 0x30742, size: 0x8, addend: 0x0, symName: __ZNKSt3__114__split_bufferI12virtual_nodeRNS_9allocatorIS1_EEE8capacityB8ue170006Ev, symObjAddr: 0x9650, symBinAddr: 0x10000AC04, symSize: 0x40 }
  - { offsetInCU: 0x30768, offset: 0x30768, size: 0x8, addend: 0x0, symName: __ZNSt3__114__split_bufferI12virtual_nodeRNS_9allocatorIS1_EEE17__destruct_at_endB8ue170006EPS1_, symObjAddr: 0x9690, symBinAddr: 0x10000AC44, symSize: 0x2C }
  - { offsetInCU: 0x3079C, offset: 0x3079C, size: 0x8, addend: 0x0, symName: __ZNSt3__114__split_bufferI12virtual_nodeRNS_9allocatorIS1_EEE17__destruct_at_endB8ue170006EPS1_NS_17integral_constantIbLb0EEE, symObjAddr: 0x96BC, symBinAddr: 0x10000AC70, symSize: 0x80 }
  - { offsetInCU: 0x307DC, offset: 0x307DC, size: 0x8, addend: 0x0, symName: __ZNSt3__19allocatorI12virtual_nodeE10deallocateB8ue170006EPS1_m, symObjAddr: 0x973C, symBinAddr: 0x10000ACF0, symSize: 0x40 }
  - { offsetInCU: 0x3081E, offset: 0x3081E, size: 0x8, addend: 0x0, symName: __ZNKSt3__114__split_bufferI12virtual_nodeRNS_9allocatorIS1_EEE9__end_capB8ue170006Ev, symObjAddr: 0x977C, symBinAddr: 0x10000AD30, symSize: 0x28 }
  - { offsetInCU: 0x30844, offset: 0x30844, size: 0x8, addend: 0x0, symName: __ZNKSt3__117__compressed_pairIP12virtual_nodeRNS_9allocatorIS1_EEE5firstB8ue170006Ev, symObjAddr: 0x97A4, symBinAddr: 0x10000AD58, symSize: 0x24 }
  - { offsetInCU: 0x3086A, offset: 0x3086A, size: 0x8, addend: 0x0, symName: __ZNKSt3__16__lessIvvEclB8ue170006I12virtual_nodeS3_EEbRKT_RKT0_, symObjAddr: 0x9E28, symBinAddr: 0x10000B3DC, symSize: 0x34 }
  - { offsetInCU: 0x308BE, offset: 0x308BE, size: 0x8, addend: 0x0, symName: __ZNSt3__18_IterOpsINS_17_ClassicAlgPolicyEE9iter_swapB8ue170006IRP12virtual_nodeS6_EEvOT_OT0_, symObjAddr: 0x9E5C, symBinAddr: 0x10000B410, symSize: 0x34 }
  - { offsetInCU: 0x30901, offset: 0x30901, size: 0x8, addend: 0x0, symName: __ZNSt3__18_IterOpsINS_17_ClassicAlgPolicyEE9iter_swapB8ue170006IRP12virtual_nodeS5_EEvOT_OT0_, symObjAddr: 0xA41C, symBinAddr: 0x10000B9D0, symSize: 0x34 }
  - { offsetInCU: 0x30944, offset: 0x30944, size: 0x8, addend: 0x0, symName: __ZNK12virtual_nodeltERKS_, symObjAddr: 0xAFE8, symBinAddr: 0x10000C59C, symSize: 0x4C }
  - { offsetInCU: 0x30978, offset: 0x30978, size: 0x8, addend: 0x0, symName: __ZN12virtual_nodeaSERKS_, symObjAddr: 0xB0E8, symBinAddr: 0x10000C69C, symSize: 0x30 }
  - { offsetInCU: 0x309AC, offset: 0x309AC, size: 0x8, addend: 0x0, symName: __ZNSt3__18_IterOpsINS_17_ClassicAlgPolicyEE11__iter_moveB8ue170006IRP12virtual_nodeEENS_9enable_ifIXsr12is_referenceIDTdeclsr3stdE7declvalIRT_EEEEE5valueEDTclsr3stdE4movedeclsr3stdE7declvalIS9_EEEEE4typeEOS8_, symObjAddr: 0xB2B8, symBinAddr: 0x10000C86C, symSize: 0x28 }
  - { offsetInCU: 0x309D8, offset: 0x309D8, size: 0x8, addend: 0x0, symName: __ZNSt3__18_IterOpsINS_17_ClassicAlgPolicyEE25__validate_iter_referenceB8ue170006IRP12virtual_nodeEEvv, symObjAddr: 0xB2E0, symBinAddr: 0x10000C894, symSize: 0x4 }
  - { offsetInCU: 0x309F6, offset: 0x309F6, size: 0x8, addend: 0x0, symName: __ZNSt3__18_IterOpsINS_17_ClassicAlgPolicyEE4nextB8ue170006IP12virtual_nodeEET_S6_S6_, symObjAddr: 0xB2E4, symBinAddr: 0x10000C898, symSize: 0x18 }
  - { offsetInCU: 0x30A2C, offset: 0x30A2C, size: 0x8, addend: 0x0, symName: __ZNSt3__18_IterOpsINS_17_ClassicAlgPolicyEE9iter_swapB8ue170006IP12virtual_nodeS5_EEvOT_OT0_, symObjAddr: 0xC2E4, symBinAddr: 0x10000D898, symSize: 0x34 }
  - { offsetInCU: 0x30A92, offset: 0x30A92, size: 0x8, addend: 0x0, symName: __ZNSt3__14pairIP12virtual_nodebEC1B8ue170006IRS2_RbLPv0EEEOT_OT0_, symObjAddr: 0xC334, symBinAddr: 0x10000D8E8, symSize: 0x3C }
  - { offsetInCU: 0x30AF0, offset: 0x30AF0, size: 0x8, addend: 0x0, symName: __ZNSt3__14pairIP12virtual_nodebEC2B8ue170006IRS2_RbLPv0EEEOT_OT0_, symObjAddr: 0xC370, symBinAddr: 0x10000D924, symSize: 0x38 }
  - { offsetInCU: 0x30B4E, offset: 0x30B4E, size: 0x8, addend: 0x0, symName: __ZNSt3__118__unwrap_iter_implINS_11__wrap_iterIP12virtual_nodeEELb1EE8__unwrapB8ue170006ES4_, symObjAddr: 0xC3A8, symBinAddr: 0x10000D95C, symSize: 0x28 }
  - { offsetInCU: 0x30B7D, offset: 0x30B7D, size: 0x8, addend: 0x0, symName: __ZNSt3__119__to_address_helperINS_11__wrap_iterIP12virtual_nodeEEvE6__callB8ue170006ERKS4_, symObjAddr: 0xC3F4, symBinAddr: 0x10000D9A8, symSize: 0x30 }
  - { offsetInCU: 0x30BA0, offset: 0x30BA0, size: 0x8, addend: 0x0, symName: __ZNSt3__114pointer_traitsINS_11__wrap_iterIP12virtual_nodeEEE10to_addressB8ue170006ES4_, symObjAddr: 0xC424, symBinAddr: 0x10000D9D8, symSize: 0x2C }
  - { offsetInCU: 0x30BC3, offset: 0x30BC3, size: 0x8, addend: 0x0, symName: __ZNKSt3__111__wrap_iterIP12virtual_nodeE4baseB8ue170006Ev, symObjAddr: 0xC450, symBinAddr: 0x10000DA04, symSize: 0x18 }
  - { offsetInCU: 0x30BE9, offset: 0x30BE9, size: 0x8, addend: 0x0, symName: __ZNSt3__16vectorI12virtual_nodeNS_9allocatorIS1_EEE11__make_iterB8ue170006EPS1_, symObjAddr: 0xC468, symBinAddr: 0x10000DA1C, symSize: 0x30 }
  - { offsetInCU: 0x30C1E, offset: 0x30C1E, size: 0x8, addend: 0x0, symName: __ZNSt3__111__wrap_iterIP12virtual_nodeEC1B8ue170006ES2_, symObjAddr: 0xC498, symBinAddr: 0x10000DA4C, symSize: 0x34 }
  - { offsetInCU: 0x30C56, offset: 0x30C56, size: 0x8, addend: 0x0, symName: __ZNSt3__111__wrap_iterIP12virtual_nodeEC2B8ue170006ES2_, symObjAddr: 0xC4CC, symBinAddr: 0x10000DA80, symSize: 0x20 }
  - { offsetInCU: 0x30C8E, offset: 0x30C8E, size: 0x8, addend: 0x0, symName: __ZNSt3__16vectorI12virtual_nodeNS_9allocatorIS1_EEED2B8ue170006Ev, symObjAddr: 0xC534, symBinAddr: 0x10000DAE8, symSize: 0x44 }
  - { offsetInCU: 0x30CB8, offset: 0x30CB8, size: 0x8, addend: 0x0, symName: __ZNSt3__16vectorI12virtual_nodeNS_9allocatorIS1_EEE16__destroy_vectorC1B8ue170006ERS4_, symObjAddr: 0xC578, symBinAddr: 0x10000DB2C, symSize: 0x34 }
  - { offsetInCU: 0x30CF1, offset: 0x30CF1, size: 0x8, addend: 0x0, symName: __ZNSt3__16vectorI12virtual_nodeNS_9allocatorIS1_EEE16__destroy_vectorclB8ue170006Ev, symObjAddr: 0xC5AC, symBinAddr: 0x10000DB60, symSize: 0x90 }
  - { offsetInCU: 0x30D17, offset: 0x30D17, size: 0x8, addend: 0x0, symName: __ZNSt3__16vectorI12virtual_nodeNS_9allocatorIS1_EEE16__destroy_vectorC2B8ue170006ERS4_, symObjAddr: 0xC63C, symBinAddr: 0x10000DBF0, symSize: 0x20 }
  - { offsetInCU: 0x30D50, offset: 0x30D50, size: 0x8, addend: 0x0, symName: __ZNSt3__16vectorI12virtual_nodeNS_9allocatorIS1_EEE7__clearB8ue170006Ev, symObjAddr: 0xC65C, symBinAddr: 0x10000DC10, symSize: 0x28 }
  - { offsetInCU: 0x30D76, offset: 0x30D76, size: 0x8, addend: 0x0, symName: __ZNSt3__16vectorI12virtual_nodeNS_9allocatorIS1_EEE22__base_destruct_at_endB8ue170006EPS1_, symObjAddr: 0xC684, symBinAddr: 0x10000DC38, symSize: 0x8C }
  - { offsetInCU: 0x30DBA, offset: 0x30DBA, size: 0x8, addend: 0x0, symName: __ZNSt3__16vectorIP4NodeNS_9allocatorIS2_EEEC2B8ue170006ESt16initializer_listIS2_E, symObjAddr: 0xC710, symBinAddr: 0x10000DCC4, symSize: 0x120 }
  - { offsetInCU: 0x30E0A, offset: 0x30E0A, size: 0x8, addend: 0x0, symName: __ZNSt3__117__compressed_pairIPP4NodeNS_9allocatorIS2_EEEC1B8ue170006IDnNS_18__default_init_tagEEEOT_OT0_, symObjAddr: 0xC830, symBinAddr: 0x10000DDE4, symSize: 0x3C }
  - { offsetInCU: 0x30E62, offset: 0x30E62, size: 0x8, addend: 0x0, symName: __ZNSt3__16vectorIP4NodeNS_9allocatorIS2_EEE16__destroy_vectorC1B8ue170006ERS5_, symObjAddr: 0xC8AC, symBinAddr: 0x10000DE60, symSize: 0x34 }
  - { offsetInCU: 0x30E9B, offset: 0x30E9B, size: 0x8, addend: 0x0, symName: __ZNKSt16initializer_listIP4NodeE4sizeB8ue170006Ev, symObjAddr: 0xC8E0, symBinAddr: 0x10000DE94, symSize: 0x18 }
  - { offsetInCU: 0x30EC1, offset: 0x30EC1, size: 0x8, addend: 0x0, symName: __ZNSt3__16vectorIP4NodeNS_9allocatorIS2_EEE11__vallocateB8ue170006Em, symObjAddr: 0xC8F8, symBinAddr: 0x10000DEAC, symSize: 0xAC }
  - { offsetInCU: 0x30F05, offset: 0x30F05, size: 0x8, addend: 0x0, symName: __ZNSt3__16vectorIP4NodeNS_9allocatorIS2_EEE18__construct_at_endIPKS2_S8_EEvT_T0_m, symObjAddr: 0xC9A4, symBinAddr: 0x10000DF58, symSize: 0x8C }
  - { offsetInCU: 0x30F7B, offset: 0x30F7B, size: 0x8, addend: 0x0, symName: __ZNKSt16initializer_listIP4NodeE5beginB8ue170006Ev, symObjAddr: 0xCA30, symBinAddr: 0x10000DFE4, symSize: 0x18 }
  - { offsetInCU: 0x30FA1, offset: 0x30FA1, size: 0x8, addend: 0x0, symName: __ZNKSt16initializer_listIP4NodeE3endB8ue170006Ev, symObjAddr: 0xCA48, symBinAddr: 0x10000DFFC, symSize: 0x20 }
  - { offsetInCU: 0x30FC7, offset: 0x30FC7, size: 0x8, addend: 0x0, symName: __ZNSt3__128__exception_guard_exceptionsINS_6vectorIP4NodeNS_9allocatorIS3_EEE16__destroy_vectorEE10__completeB8ue170006Ev, symObjAddr: 0xCA68, symBinAddr: 0x10000E01C, symSize: 0x1C }
  - { offsetInCU: 0x30FED, offset: 0x30FED, size: 0x8, addend: 0x0, symName: __ZNSt3__128__exception_guard_exceptionsINS_6vectorIP4NodeNS_9allocatorIS3_EEE16__destroy_vectorEED1B8ue170006Ev, symObjAddr: 0xCA84, symBinAddr: 0x10000E038, symSize: 0x2C }
  - { offsetInCU: 0x31017, offset: 0x31017, size: 0x8, addend: 0x0, symName: __ZNSt3__117__compressed_pairIPP4NodeNS_9allocatorIS2_EEEC2B8ue170006IDnNS_18__default_init_tagEEEOT_OT0_, symObjAddr: 0xCAB0, symBinAddr: 0x10000E064, symSize: 0x40 }
  - { offsetInCU: 0x3106F, offset: 0x3106F, size: 0x8, addend: 0x0, symName: __ZNSt3__122__compressed_pair_elemIPP4NodeLi0ELb0EEC2B8ue170006IDnvEEOT_, symObjAddr: 0xCAF0, symBinAddr: 0x10000E0A4, symSize: 0x1C }
  - { offsetInCU: 0x310B1, offset: 0x310B1, size: 0x8, addend: 0x0, symName: __ZNSt3__122__compressed_pair_elemINS_9allocatorIP4NodeEELi1ELb1EEC2B8ue170006ENS_18__default_init_tagE, symObjAddr: 0xCB0C, symBinAddr: 0x10000E0C0, symSize: 0x2C }
  - { offsetInCU: 0x310E5, offset: 0x310E5, size: 0x8, addend: 0x0, symName: __ZNSt3__19allocatorIP4NodeEC2B8ue170006Ev, symObjAddr: 0xCB38, symBinAddr: 0x10000E0EC, symSize: 0x2C }
  - { offsetInCU: 0x3110F, offset: 0x3110F, size: 0x8, addend: 0x0, symName: __ZNSt3__116__non_trivial_ifILb1ENS_9allocatorIP4NodeEEEC2B8ue170006Ev, symObjAddr: 0xCB64, symBinAddr: 0x10000E118, symSize: 0x14 }
  - { offsetInCU: 0x31139, offset: 0x31139, size: 0x8, addend: 0x0, symName: __ZNSt3__128__exception_guard_exceptionsINS_6vectorIP4NodeNS_9allocatorIS3_EEE16__destroy_vectorEEC1B8ue170006ES7_, symObjAddr: 0xCB78, symBinAddr: 0x10000E12C, symSize: 0x34 }
  - { offsetInCU: 0x31171, offset: 0x31171, size: 0x8, addend: 0x0, symName: __ZNSt3__128__exception_guard_exceptionsINS_6vectorIP4NodeNS_9allocatorIS3_EEE16__destroy_vectorEEC2B8ue170006ES7_, symObjAddr: 0xCBAC, symBinAddr: 0x10000E160, symSize: 0x24 }
  - { offsetInCU: 0x311A9, offset: 0x311A9, size: 0x8, addend: 0x0, symName: __ZNSt3__16vectorIP4NodeNS_9allocatorIS2_EEE16__destroy_vectorC2B8ue170006ERS5_, symObjAddr: 0xCBD0, symBinAddr: 0x10000E184, symSize: 0x20 }
  - { offsetInCU: 0x311E2, offset: 0x311E2, size: 0x8, addend: 0x0, symName: __ZNKSt3__16vectorIP4NodeNS_9allocatorIS2_EEE8max_sizeEv, symObjAddr: 0xCBF0, symBinAddr: 0x10000E1A4, symSize: 0x60 }
  - { offsetInCU: 0x3120A, offset: 0x3120A, size: 0x8, addend: 0x0, symName: __ZNKSt3__16vectorIP4NodeNS_9allocatorIS2_EEE20__throw_length_errorB8ue170006Ev, symObjAddr: 0xCC50, symBinAddr: 0x10000E204, symSize: 0x1C }
  - { offsetInCU: 0x31230, offset: 0x31230, size: 0x8, addend: 0x0, symName: __ZNSt3__16vectorIP4NodeNS_9allocatorIS2_EEE7__allocB8ue170006Ev, symObjAddr: 0xCCAC, symBinAddr: 0x10000E260, symSize: 0x28 }
  - { offsetInCU: 0x31256, offset: 0x31256, size: 0x8, addend: 0x0, symName: __ZNSt3__16vectorIP4NodeNS_9allocatorIS2_EEE9__end_capB8ue170006Ev, symObjAddr: 0xCCD4, symBinAddr: 0x10000E288, symSize: 0x28 }
  - { offsetInCU: 0x3127C, offset: 0x3127C, size: 0x8, addend: 0x0, symName: __ZNKSt3__16vectorIP4NodeNS_9allocatorIS2_EEE14__annotate_newB8ue170006Em, symObjAddr: 0xCCFC, symBinAddr: 0x10000E2B0, symSize: 0xAC }
  - { offsetInCU: 0x312BC, offset: 0x312BC, size: 0x8, addend: 0x0, symName: __ZNSt3__116allocator_traitsINS_9allocatorIP4NodeEEE8max_sizeB8ue170006IS4_vvEEmRKS4_, symObjAddr: 0xCDA8, symBinAddr: 0x10000E35C, symSize: 0x28 }
  - { offsetInCU: 0x312E7, offset: 0x312E7, size: 0x8, addend: 0x0, symName: __ZNKSt3__16vectorIP4NodeNS_9allocatorIS2_EEE7__allocB8ue170006Ev, symObjAddr: 0xCDD0, symBinAddr: 0x10000E384, symSize: 0x28 }
  - { offsetInCU: 0x3130D, offset: 0x3130D, size: 0x8, addend: 0x0, symName: __ZNKSt3__117__compressed_pairIPP4NodeNS_9allocatorIS2_EEE6secondB8ue170006Ev, symObjAddr: 0xCDF8, symBinAddr: 0x10000E3AC, symSize: 0x24 }
  - { offsetInCU: 0x31333, offset: 0x31333, size: 0x8, addend: 0x0, symName: __ZNKSt3__122__compressed_pair_elemINS_9allocatorIP4NodeEELi1ELb1EE5__getB8ue170006Ev, symObjAddr: 0xCE1C, symBinAddr: 0x10000E3D0, symSize: 0x14 }
  - { offsetInCU: 0x31359, offset: 0x31359, size: 0x8, addend: 0x0, symName: __ZNSt3__19allocatorIP4NodeE8allocateB8ue170006Em, symObjAddr: 0xCE30, symBinAddr: 0x10000E3E4, symSize: 0x58 }
  - { offsetInCU: 0x3138D, offset: 0x3138D, size: 0x8, addend: 0x0, symName: __ZNSt3__117__compressed_pairIPP4NodeNS_9allocatorIS2_EEE6secondB8ue170006Ev, symObjAddr: 0xCE88, symBinAddr: 0x10000E43C, symSize: 0x24 }
  - { offsetInCU: 0x313B3, offset: 0x313B3, size: 0x8, addend: 0x0, symName: __ZNSt3__122__compressed_pair_elemINS_9allocatorIP4NodeEELi1ELb1EE5__getB8ue170006Ev, symObjAddr: 0xCEAC, symBinAddr: 0x10000E460, symSize: 0x14 }
  - { offsetInCU: 0x313D9, offset: 0x313D9, size: 0x8, addend: 0x0, symName: __ZNSt3__117__compressed_pairIPP4NodeNS_9allocatorIS2_EEE5firstB8ue170006Ev, symObjAddr: 0xCEC0, symBinAddr: 0x10000E474, symSize: 0x24 }
  - { offsetInCU: 0x313FF, offset: 0x313FF, size: 0x8, addend: 0x0, symName: __ZNSt3__122__compressed_pair_elemIPP4NodeLi0ELb0EE5__getB8ue170006Ev, symObjAddr: 0xCEE4, symBinAddr: 0x10000E498, symSize: 0x14 }
  - { offsetInCU: 0x31425, offset: 0x31425, size: 0x8, addend: 0x0, symName: __ZNKSt3__16vectorIP4NodeNS_9allocatorIS2_EEE31__annotate_contiguous_containerB8ue170006EPKvS7_S7_S7_, symObjAddr: 0xCEF8, symBinAddr: 0x10000E4AC, symSize: 0x20 }
  - { offsetInCU: 0x31477, offset: 0x31477, size: 0x8, addend: 0x0, symName: __ZNKSt3__16vectorIP4NodeNS_9allocatorIS2_EEE4dataB8ue170006Ev, symObjAddr: 0xCF18, symBinAddr: 0x10000E4CC, symSize: 0x28 }
  - { offsetInCU: 0x3149D, offset: 0x3149D, size: 0x8, addend: 0x0, symName: __ZNKSt3__16vectorIP4NodeNS_9allocatorIS2_EEE8capacityB8ue170006Ev, symObjAddr: 0xCF40, symBinAddr: 0x10000E4F4, symSize: 0x40 }
  - { offsetInCU: 0x314C3, offset: 0x314C3, size: 0x8, addend: 0x0, symName: __ZNKSt3__16vectorIP4NodeNS_9allocatorIS2_EEE9__end_capB8ue170006Ev, symObjAddr: 0xCF94, symBinAddr: 0x10000E548, symSize: 0x28 }
  - { offsetInCU: 0x314E9, offset: 0x314E9, size: 0x8, addend: 0x0, symName: __ZNKSt3__117__compressed_pairIPP4NodeNS_9allocatorIS2_EEE5firstB8ue170006Ev, symObjAddr: 0xCFBC, symBinAddr: 0x10000E570, symSize: 0x24 }
  - { offsetInCU: 0x3150F, offset: 0x3150F, size: 0x8, addend: 0x0, symName: __ZNKSt3__122__compressed_pair_elemIPP4NodeLi0ELb0EE5__getB8ue170006Ev, symObjAddr: 0xCFE0, symBinAddr: 0x10000E594, symSize: 0x14 }
  - { offsetInCU: 0x31551, offset: 0x31551, size: 0x8, addend: 0x0, symName: __ZNSt3__16vectorIP4NodeNS_9allocatorIS2_EEE21_ConstructTransactionC1B8ue170006ERS5_m, symObjAddr: 0xCFF4, symBinAddr: 0x10000E5A8, symSize: 0x3C }
  - { offsetInCU: 0x31599, offset: 0x31599, size: 0x8, addend: 0x0, symName: __ZNSt3__16vectorIP4NodeNS_9allocatorIS2_EEE21_ConstructTransactionD1B8ue170006Ev, symObjAddr: 0xD0B0, symBinAddr: 0x10000E664, symSize: 0x2C }
  - { offsetInCU: 0x315C3, offset: 0x315C3, size: 0x8, addend: 0x0, symName: __ZNSt3__16vectorIP4NodeNS_9allocatorIS2_EEE21_ConstructTransactionC2B8ue170006ERS5_m, symObjAddr: 0xD0DC, symBinAddr: 0x10000E690, symSize: 0x44 }
  - { offsetInCU: 0x31628, offset: 0x31628, size: 0x8, addend: 0x0, symName: __ZNSt3__119__unwrap_range_implIPKP4NodeS4_E8__unwrapB8ue170006ES4_S4_, symObjAddr: 0xD1F4, symBinAddr: 0x10000E7A8, symSize: 0x58 }
  - { offsetInCU: 0x3165F, offset: 0x3165F, size: 0x8, addend: 0x0, symName: __ZNSt3__14pairIPKP4NodeS4_EC1B8ue170006IS4_S4_LPv0EEEOT_OT0_, symObjAddr: 0xD270, symBinAddr: 0x10000E824, symSize: 0x3C }
  - { offsetInCU: 0x316BD, offset: 0x316BD, size: 0x8, addend: 0x0, symName: __ZNSt3__118__unwrap_iter_implIPKP4NodeLb1EE8__unwrapB8ue170006ES4_, symObjAddr: 0xD2AC, symBinAddr: 0x10000E860, symSize: 0x24 }
  - { offsetInCU: 0x316E0, offset: 0x316E0, size: 0x8, addend: 0x0, symName: __ZNSt3__14pairIPKP4NodeS4_EC2B8ue170006IS4_S4_LPv0EEEOT_OT0_, symObjAddr: 0xD2E4, symBinAddr: 0x10000E898, symSize: 0x34 }
  - { offsetInCU: 0x31766, offset: 0x31766, size: 0x8, addend: 0x0, symName: __ZNKSt3__114__copy_trivialclB8ue170006IKP4NodeS3_Li0EEENS_4pairIPT_PT0_EES7_S7_S9_, symObjAddr: 0xD494, symBinAddr: 0x10000EA48, symSize: 0x48 }
  - { offsetInCU: 0x317DA, offset: 0x317DA, size: 0x8, addend: 0x0, symName: __ZNSt3__14pairIPKP4NodePS2_EC1B8ue170006IRS4_S5_LPv0EEEOT_OT0_, symObjAddr: 0xD65C, symBinAddr: 0x10000EC10, symSize: 0x3C }
  - { offsetInCU: 0x31838, offset: 0x31838, size: 0x8, addend: 0x0, symName: __ZNSt3__14pairIPKP4NodePS2_EC2B8ue170006IRS4_S5_LPv0EEEOT_OT0_, symObjAddr: 0xD698, symBinAddr: 0x10000EC4C, symSize: 0x34 }
  - { offsetInCU: 0x31896, offset: 0x31896, size: 0x8, addend: 0x0, symName: __ZNSt3__14pairIPKP4NodePS2_EC1B8ue170006IS4_S5_LPv0EEEOT_OT0_, symObjAddr: 0xD6CC, symBinAddr: 0x10000EC80, symSize: 0x3C }
  - { offsetInCU: 0x318F4, offset: 0x318F4, size: 0x8, addend: 0x0, symName: __ZNSt3__14pairIPKP4NodePS2_EC2B8ue170006IS4_S5_LPv0EEEOT_OT0_, symObjAddr: 0xD708, symBinAddr: 0x10000ECBC, symSize: 0x34 }
  - { offsetInCU: 0x31952, offset: 0x31952, size: 0x8, addend: 0x0, symName: __ZNSt3__119__unwrap_range_implIPKP4NodeS4_E8__rewrapB8ue170006ES4_S4_, symObjAddr: 0xD73C, symBinAddr: 0x10000ECF0, symSize: 0x2C }
  - { offsetInCU: 0x31983, offset: 0x31983, size: 0x8, addend: 0x0, symName: __ZNSt3__118__unwrap_iter_implIPKP4NodeLb1EE8__rewrapB8ue170006ES4_S4_, symObjAddr: 0xD7A4, symBinAddr: 0x10000ED58, symSize: 0x50 }
  - { offsetInCU: 0x319B4, offset: 0x319B4, size: 0x8, addend: 0x0, symName: __ZNSt3__118__unwrap_iter_implIPP4NodeLb1EE8__unwrapB8ue170006ES3_, symObjAddr: 0xD7F4, symBinAddr: 0x10000EDA8, symSize: 0x24 }
  - { offsetInCU: 0x319D7, offset: 0x319D7, size: 0x8, addend: 0x0, symName: __ZNSt3__118__unwrap_iter_implIPP4NodeLb1EE8__rewrapB8ue170006ES3_S3_, symObjAddr: 0xD818, symBinAddr: 0x10000EDCC, symSize: 0x50 }
  - { offsetInCU: 0x31A08, offset: 0x31A08, size: 0x8, addend: 0x0, symName: __ZNSt3__16vectorIP4NodeNS_9allocatorIS2_EEE21_ConstructTransactionD2B8ue170006Ev, symObjAddr: 0xD868, symBinAddr: 0x10000EE1C, symSize: 0x20 }
  - { offsetInCU: 0x31A32, offset: 0x31A32, size: 0x8, addend: 0x0, symName: __ZNSt3__128__exception_guard_exceptionsINS_6vectorIP4NodeNS_9allocatorIS3_EEE16__destroy_vectorEED2B8ue170006Ev, symObjAddr: 0xD888, symBinAddr: 0x10000EE3C, symSize: 0x50 }
  - { offsetInCU: 0x31A5C, offset: 0x31A5C, size: 0x8, addend: 0x0, symName: __ZNSt3__16vectorIP4NodeNS_9allocatorIS2_EEE16__destroy_vectorclB8ue170006Ev, symObjAddr: 0xD8D8, symBinAddr: 0x10000EE8C, symSize: 0x90 }
  - { offsetInCU: 0x31A82, offset: 0x31A82, size: 0x8, addend: 0x0, symName: __ZNSt3__16vectorIP4NodeNS_9allocatorIS2_EEE7__clearB8ue170006Ev, symObjAddr: 0xD968, symBinAddr: 0x10000EF1C, symSize: 0x28 }
  - { offsetInCU: 0x31AA8, offset: 0x31AA8, size: 0x8, addend: 0x0, symName: __ZNKSt3__16vectorIP4NodeNS_9allocatorIS2_EEE17__annotate_deleteB8ue170006Ev, symObjAddr: 0xD990, symBinAddr: 0x10000EF44, symSize: 0xB8 }
  - { offsetInCU: 0x31ACE, offset: 0x31ACE, size: 0x8, addend: 0x0, symName: __ZNSt3__116allocator_traitsINS_9allocatorIP4NodeEEE10deallocateB8ue170006ERS4_PS3_m, symObjAddr: 0xDA48, symBinAddr: 0x10000EFFC, symSize: 0x34 }
  - { offsetInCU: 0x31B10, offset: 0x31B10, size: 0x8, addend: 0x0, symName: __ZNSt3__16vectorIP4NodeNS_9allocatorIS2_EEE22__base_destruct_at_endB8ue170006EPS2_, symObjAddr: 0xDA7C, symBinAddr: 0x10000F030, symSize: 0x8C }
  - { offsetInCU: 0x31B54, offset: 0x31B54, size: 0x8, addend: 0x0, symName: __ZNSt3__116allocator_traitsINS_9allocatorIP4NodeEEE7destroyB8ue170006IS3_vvEEvRS4_PT_, symObjAddr: 0xDB08, symBinAddr: 0x10000F0BC, symSize: 0x28 }
  - { offsetInCU: 0x31B8E, offset: 0x31B8E, size: 0x8, addend: 0x0, symName: __ZNKSt3__16vectorIP4NodeNS_9allocatorIS2_EEE4sizeB8ue170006Ev, symObjAddr: 0xDB64, symBinAddr: 0x10000F118, symSize: 0x28 }
  - { offsetInCU: 0x31BB4, offset: 0x31BB4, size: 0x8, addend: 0x0, symName: __ZNSt3__19allocatorIP4NodeE10deallocateB8ue170006EPS2_m, symObjAddr: 0xDB8C, symBinAddr: 0x10000F140, symSize: 0x40 }
  - { offsetInCU: 0x31BF6, offset: 0x31BF6, size: 0x8, addend: 0x0, symName: __ZN4RingC2ENSt3__16vectorIP4NodeNS0_9allocatorIS3_EEEE, symObjAddr: 0xDBCC, symBinAddr: 0x10000F180, symSize: 0x1BC }
  - { offsetInCU: 0x31CC8, offset: 0x31CC8, size: 0x8, addend: 0x0, symName: __ZNSt3__13mapINS_5arrayIhLm16EEEP4NodeNS_4lessIS2_EENS_9allocatorINS_4pairIKS2_S4_EEEEEC1B8ue170006Ev, symObjAddr: 0xDD88, symBinAddr: 0x10000F33C, symSize: 0x2C }
  - { offsetInCU: 0x31CF2, offset: 0x31CF2, size: 0x8, addend: 0x0, symName: __ZNSt3__16vectorINS_10unique_ptrI4NodeNS_14default_deleteIS2_EEEENS_9allocatorIS5_EEEC1B8ue170006Ev, symObjAddr: 0xDDB4, symBinAddr: 0x10000F368, symSize: 0x2C }
  - { offsetInCU: 0x31D1C, offset: 0x31D1C, size: 0x8, addend: 0x0, symName: __ZNSt3__16vectorIP4NodeNS_9allocatorIS2_EEE5beginB8ue170006Ev, symObjAddr: 0xDDE0, symBinAddr: 0x10000F394, symSize: 0x30 }
  - { offsetInCU: 0x31D44, offset: 0x31D44, size: 0x8, addend: 0x0, symName: __ZNSt3__16vectorIP4NodeNS_9allocatorIS2_EEE3endB8ue170006Ev, symObjAddr: 0xDE10, symBinAddr: 0x10000F3C4, symSize: 0x30 }
  - { offsetInCU: 0x31D6C, offset: 0x31D6C, size: 0x8, addend: 0x0, symName: __ZNKSt3__111__wrap_iterIPP4NodeEdeB8ue170006Ev, symObjAddr: 0xDE74, symBinAddr: 0x10000F428, symSize: 0x18 }
  - { offsetInCU: 0x31D92, offset: 0x31D92, size: 0x8, addend: 0x0, symName: __ZNSt3__13mapINS_5arrayIhLm16EEEP4NodeNS_4lessIS2_EENS_9allocatorINS_4pairIKS2_S4_EEEEE6insertB8ue170006EOSA_, symObjAddr: 0xDE8C, symBinAddr: 0x10000F440, symSize: 0x4C }
  - { offsetInCU: 0x31DC7, offset: 0x31DC7, size: 0x8, addend: 0x0, symName: __ZNSt3__14pairIKNS_5arrayIhLm16EEEP4NodeEC1B8ue170006IRS2_RS5_LPv0EEEOT_OT0_, symObjAddr: 0xDED8, symBinAddr: 0x10000F48C, symSize: 0x3C }
  - { offsetInCU: 0x31E25, offset: 0x31E25, size: 0x8, addend: 0x0, symName: __ZNSt3__111__wrap_iterIPP4NodeEppB8ue170006Ev, symObjAddr: 0xDF14, symBinAddr: 0x10000F4C8, symSize: 0x20 }
  - { offsetInCU: 0x31E4B, offset: 0x31E4B, size: 0x8, addend: 0x0, symName: __ZNSt3__16vectorINS_10unique_ptrI4NodeNS_14default_deleteIS2_EEEENS_9allocatorIS5_EEED1B8ue170006Ev, symObjAddr: 0xDF34, symBinAddr: 0x10000F4E8, symSize: 0x2C }
  - { offsetInCU: 0x31E75, offset: 0x31E75, size: 0x8, addend: 0x0, symName: __ZNSt3__13mapINS_5arrayIhLm16EEEP4NodeNS_4lessIS2_EENS_9allocatorINS_4pairIKS2_S4_EEEEED1B8ue170006Ev, symObjAddr: 0xDF60, symBinAddr: 0x10000F514, symSize: 0x2C }
  - { offsetInCU: 0x31E9F, offset: 0x31E9F, size: 0x8, addend: 0x0, symName: __ZNSt3__13mapINS_5arrayIhLm16EEEP4NodeNS_4lessIS2_EENS_9allocatorINS_4pairIKS2_S4_EEEEEC2B8ue170006Ev, symObjAddr: 0xDF8C, symBinAddr: 0x10000F540, symSize: 0x40 }
  - { offsetInCU: 0x31EC9, offset: 0x31EC9, size: 0x8, addend: 0x0, symName: __ZNSt3__119__map_value_compareINS_5arrayIhLm16EEENS_12__value_typeIS2_P4NodeEENS_4lessIS2_EELb1EEC1B8ue170006ES8_, symObjAddr: 0xDFCC, symBinAddr: 0x10000F580, symSize: 0x2C }
  - { offsetInCU: 0x31F02, offset: 0x31F02, size: 0x8, addend: 0x0, symName: __ZNSt3__16__treeINS_12__value_typeINS_5arrayIhLm16EEEP4NodeEENS_19__map_value_compareIS3_S6_NS_4lessIS3_EELb1EEENS_9allocatorIS6_EEEC1ERKSA_, symObjAddr: 0xDFF8, symBinAddr: 0x10000F5AC, symSize: 0x34 }
  - { offsetInCU: 0x31F3D, offset: 0x31F3D, size: 0x8, addend: 0x0, symName: __ZNSt3__119__map_value_compareINS_5arrayIhLm16EEENS_12__value_typeIS2_P4NodeEENS_4lessIS2_EELb1EEC2B8ue170006ES8_, symObjAddr: 0xE02C, symBinAddr: 0x10000F5E0, symSize: 0x14 }
  - { offsetInCU: 0x31F76, offset: 0x31F76, size: 0x8, addend: 0x0, symName: __ZNSt3__16__treeINS_12__value_typeINS_5arrayIhLm16EEEP4NodeEENS_19__map_value_compareIS3_S6_NS_4lessIS3_EELb1EEENS_9allocatorIS6_EEEC2ERKSA_, symObjAddr: 0xE040, symBinAddr: 0x10000F5F4, symSize: 0x7C }
  - { offsetInCU: 0x31FB1, offset: 0x31FB1, size: 0x8, addend: 0x0, symName: __ZNSt3__117__compressed_pairINS_15__tree_end_nodeIPNS_16__tree_node_baseIPvEEEENS_9allocatorINS_11__tree_nodeINS_12__value_typeINS_5arrayIhLm16EEEP4NodeEES3_EEEEEC1B8ue170006ILb1EvEEv, symObjAddr: 0xE0BC, symBinAddr: 0x10000F670, symSize: 0x2C }
  - { offsetInCU: 0x31FE6, offset: 0x31FE6, size: 0x8, addend: 0x0, symName: __ZNSt3__117__compressed_pairImNS_19__map_value_compareINS_5arrayIhLm16EEENS_12__value_typeIS3_P4NodeEENS_4lessIS3_EELb1EEEEC1B8ue170006IiRKSA_EEOT_OT0_, symObjAddr: 0xE0E8, symBinAddr: 0x10000F69C, symSize: 0x3C }
  - { offsetInCU: 0x3203E, offset: 0x3203E, size: 0x8, addend: 0x0, symName: __ZNSt3__16__treeINS_12__value_typeINS_5arrayIhLm16EEEP4NodeEENS_19__map_value_compareIS3_S6_NS_4lessIS3_EELb1EEENS_9allocatorIS6_EEE10__end_nodeB8ue170006Ev, symObjAddr: 0xE124, symBinAddr: 0x10000F6D8, symSize: 0x2C }
  - { offsetInCU: 0x32064, offset: 0x32064, size: 0x8, addend: 0x0, symName: __ZNSt3__16__treeINS_12__value_typeINS_5arrayIhLm16EEEP4NodeEENS_19__map_value_compareIS3_S6_NS_4lessIS3_EELb1EEENS_9allocatorIS6_EEE12__begin_nodeB8ue170006Ev, symObjAddr: 0xE150, symBinAddr: 0x10000F704, symSize: 0x14 }
  - { offsetInCU: 0x3208A, offset: 0x3208A, size: 0x8, addend: 0x0, symName: __ZNSt3__117__compressed_pairINS_15__tree_end_nodeIPNS_16__tree_node_baseIPvEEEENS_9allocatorINS_11__tree_nodeINS_12__value_typeINS_5arrayIhLm16EEEP4NodeEES3_EEEEEC2B8ue170006ILb1EvEEv, symObjAddr: 0xE164, symBinAddr: 0x10000F718, symSize: 0x34 }
  - { offsetInCU: 0x320BF, offset: 0x320BF, size: 0x8, addend: 0x0, symName: __ZNSt3__122__compressed_pair_elemINS_15__tree_end_nodeIPNS_16__tree_node_baseIPvEEEELi0ELb0EEC2B8ue170006ENS_16__value_init_tagE, symObjAddr: 0xE198, symBinAddr: 0x10000F74C, symSize: 0x2C }
  - { offsetInCU: 0x320F3, offset: 0x320F3, size: 0x8, addend: 0x0, symName: __ZNSt3__122__compressed_pair_elemINS_9allocatorINS_11__tree_nodeINS_12__value_typeINS_5arrayIhLm16EEEP4NodeEEPvEEEELi1ELb1EEC2B8ue170006ENS_16__value_init_tagE, symObjAddr: 0xE1C4, symBinAddr: 0x10000F778, symSize: 0x2C }
  - { offsetInCU: 0x32127, offset: 0x32127, size: 0x8, addend: 0x0, symName: __ZNSt3__115__tree_end_nodeIPNS_16__tree_node_baseIPvEEEC1B8ue170006Ev, symObjAddr: 0xE1F0, symBinAddr: 0x10000F7A4, symSize: 0x2C }
  - { offsetInCU: 0x32151, offset: 0x32151, size: 0x8, addend: 0x0, symName: __ZNSt3__115__tree_end_nodeIPNS_16__tree_node_baseIPvEEEC2B8ue170006Ev, symObjAddr: 0xE21C, symBinAddr: 0x10000F7D0, symSize: 0x18 }
  - { offsetInCU: 0x3217B, offset: 0x3217B, size: 0x8, addend: 0x0, symName: __ZNSt3__19allocatorINS_11__tree_nodeINS_12__value_typeINS_5arrayIhLm16EEEP4NodeEEPvEEEC2B8ue170006Ev, symObjAddr: 0xE234, symBinAddr: 0x10000F7E8, symSize: 0x2C }
  - { offsetInCU: 0x321A5, offset: 0x321A5, size: 0x8, addend: 0x0, symName: __ZNSt3__116__non_trivial_ifILb1ENS_9allocatorINS_11__tree_nodeINS_12__value_typeINS_5arrayIhLm16EEEP4NodeEEPvEEEEEC2B8ue170006Ev, symObjAddr: 0xE260, symBinAddr: 0x10000F814, symSize: 0x14 }
  - { offsetInCU: 0x321CF, offset: 0x321CF, size: 0x8, addend: 0x0, symName: __ZNSt3__117__compressed_pairImNS_19__map_value_compareINS_5arrayIhLm16EEENS_12__value_typeIS3_P4NodeEENS_4lessIS3_EELb1EEEEC2B8ue170006IiRKSA_EEOT_OT0_, symObjAddr: 0xE274, symBinAddr: 0x10000F828, symSize: 0x44 }
  - { offsetInCU: 0x32227, offset: 0x32227, size: 0x8, addend: 0x0, symName: __ZNSt3__122__compressed_pair_elemINS_19__map_value_compareINS_5arrayIhLm16EEENS_12__value_typeIS3_P4NodeEENS_4lessIS3_EELb1EEELi1ELb1EEC2B8ue170006IRKSA_vEEOT_, symObjAddr: 0xE2B8, symBinAddr: 0x10000F86C, symSize: 0x18 }
  - { offsetInCU: 0x32269, offset: 0x32269, size: 0x8, addend: 0x0, symName: __ZNSt3__114pointer_traitsIPNS_15__tree_end_nodeIPNS_16__tree_node_baseIPvEEEEE10pointer_toB8ue170006ERS6_, symObjAddr: 0xE2D0, symBinAddr: 0x10000F884, symSize: 0x14 }
  - { offsetInCU: 0x3228C, offset: 0x3228C, size: 0x8, addend: 0x0, symName: __ZNSt3__117__compressed_pairINS_15__tree_end_nodeIPNS_16__tree_node_baseIPvEEEENS_9allocatorINS_11__tree_nodeINS_12__value_typeINS_5arrayIhLm16EEEP4NodeEES3_EEEEE5firstB8ue170006Ev, symObjAddr: 0xE2E4, symBinAddr: 0x10000F898, symSize: 0x24 }
  - { offsetInCU: 0x322B2, offset: 0x322B2, size: 0x8, addend: 0x0, symName: __ZNSt3__122__compressed_pair_elemINS_15__tree_end_nodeIPNS_16__tree_node_baseIPvEEEELi0ELb0EE5__getB8ue170006Ev, symObjAddr: 0xE308, symBinAddr: 0x10000F8BC, symSize: 0x14 }
  - { offsetInCU: 0x322D8, offset: 0x322D8, size: 0x8, addend: 0x0, symName: __ZNSt3__16vectorINS_10unique_ptrI4NodeNS_14default_deleteIS2_EEEENS_9allocatorIS5_EEEC2B8ue170006Ev, symObjAddr: 0xE31C, symBinAddr: 0x10000F8D0, symSize: 0x4C }
  - { offsetInCU: 0x32302, offset: 0x32302, size: 0x8, addend: 0x0, symName: __ZNSt3__117__compressed_pairIPNS_10unique_ptrI4NodeNS_14default_deleteIS2_EEEENS_9allocatorIS5_EEEC1B8ue170006IDnNS_18__default_init_tagEEEOT_OT0_, symObjAddr: 0xE368, symBinAddr: 0x10000F91C, symSize: 0x3C }
  - { offsetInCU: 0x3235A, offset: 0x3235A, size: 0x8, addend: 0x0, symName: __ZNSt3__117__compressed_pairIPNS_10unique_ptrI4NodeNS_14default_deleteIS2_EEEENS_9allocatorIS5_EEEC2B8ue170006IDnNS_18__default_init_tagEEEOT_OT0_, symObjAddr: 0xE3A4, symBinAddr: 0x10000F958, symSize: 0x40 }
  - { offsetInCU: 0x323B2, offset: 0x323B2, size: 0x8, addend: 0x0, symName: __ZNSt3__122__compressed_pair_elemIPNS_10unique_ptrI4NodeNS_14default_deleteIS2_EEEELi0ELb0EEC2B8ue170006IDnvEEOT_, symObjAddr: 0xE3E4, symBinAddr: 0x10000F998, symSize: 0x1C }
  - { offsetInCU: 0x323F4, offset: 0x323F4, size: 0x8, addend: 0x0, symName: __ZNSt3__122__compressed_pair_elemINS_9allocatorINS_10unique_ptrI4NodeNS_14default_deleteIS3_EEEEEELi1ELb1EEC2B8ue170006ENS_18__default_init_tagE, symObjAddr: 0xE400, symBinAddr: 0x10000F9B4, symSize: 0x2C }
  - { offsetInCU: 0x32428, offset: 0x32428, size: 0x8, addend: 0x0, symName: __ZNSt3__19allocatorINS_10unique_ptrI4NodeNS_14default_deleteIS2_EEEEEC2B8ue170006Ev, symObjAddr: 0xE42C, symBinAddr: 0x10000F9E0, symSize: 0x2C }
  - { offsetInCU: 0x32452, offset: 0x32452, size: 0x8, addend: 0x0, symName: __ZNSt3__116__non_trivial_ifILb1ENS_9allocatorINS_10unique_ptrI4NodeNS_14default_deleteIS3_EEEEEEEC2B8ue170006Ev, symObjAddr: 0xE458, symBinAddr: 0x10000FA0C, symSize: 0x14 }
  - { offsetInCU: 0x3247C, offset: 0x3247C, size: 0x8, addend: 0x0, symName: __ZNSt3__16vectorIP4NodeNS_9allocatorIS2_EEE11__make_iterB8ue170006EPS2_, symObjAddr: 0xE46C, symBinAddr: 0x10000FA20, symSize: 0x30 }
  - { offsetInCU: 0x324B1, offset: 0x324B1, size: 0x8, addend: 0x0, symName: __ZNSt3__111__wrap_iterIPP4NodeEC1B8ue170006ES3_, symObjAddr: 0xE49C, symBinAddr: 0x10000FA50, symSize: 0x34 }
  - { offsetInCU: 0x324E9, offset: 0x324E9, size: 0x8, addend: 0x0, symName: __ZNSt3__111__wrap_iterIPP4NodeEC2B8ue170006ES3_, symObjAddr: 0xE4D0, symBinAddr: 0x10000FA84, symSize: 0x20 }
  - { offsetInCU: 0x32521, offset: 0x32521, size: 0x8, addend: 0x0, symName: __ZNKSt3__111__wrap_iterIPP4NodeE4baseB8ue170006Ev, symObjAddr: 0xE538, symBinAddr: 0x10000FAEC, symSize: 0x18 }
  - { offsetInCU: 0x32547, offset: 0x32547, size: 0x8, addend: 0x0, symName: __ZNSt3__16__treeINS_12__value_typeINS_5arrayIhLm16EEEP4NodeEENS_19__map_value_compareIS3_S6_NS_4lessIS3_EELb1EEENS_9allocatorIS6_EEE15__insert_uniqueB8ue170006EONS_4pairIKS3_S5_EE, symObjAddr: 0xE550, symBinAddr: 0x10000FB04, symSize: 0x50 }
  - { offsetInCU: 0x3257C, offset: 0x3257C, size: 0x8, addend: 0x0, symName: __ZNSt3__14pairINS_14__map_iteratorINS_15__tree_iteratorINS_12__value_typeINS_5arrayIhLm16EEEP4NodeEEPNS_11__tree_nodeIS8_PvEElEEEEbEC1B8ue170006ISD_bLSA_0EEEONS0_IT_T0_EE, symObjAddr: 0xE5A0, symBinAddr: 0x10000FB54, symSize: 0x34 }
  - { offsetInCU: 0x325CD, offset: 0x325CD, size: 0x8, addend: 0x0, symName: __ZNSt3__16__treeINS_12__value_typeINS_5arrayIhLm16EEEP4NodeEENS_19__map_value_compareIS3_S6_NS_4lessIS3_EELb1EEENS_9allocatorIS6_EEE25__emplace_unique_key_argsIS3_JNS_4pairIKS3_S5_EEEEENSF_INS_15__tree_iteratorIS6_PNS_11__tree_nodeIS6_PvEElEEbEERKT_DpOT0_, symObjAddr: 0xE5D4, symBinAddr: 0x10000FB88, symSize: 0xF0 }
  - { offsetInCU: 0x32679, offset: 0x32679, size: 0x8, addend: 0x0, symName: __ZNSt3__122__tree_key_value_typesINS_12__value_typeINS_5arrayIhLm16EEEP4NodeEEE9__get_keyB8ue170006INS_4pairIKS3_S5_EEEENS_9enable_ifIXsr17__is_same_uncvrefIT_SB_EE5valueERSA_E4typeERSD_, symObjAddr: 0xE6C4, symBinAddr: 0x10000FC78, symSize: 0x14 }
  - { offsetInCU: 0x326A6, offset: 0x326A6, size: 0x8, addend: 0x0, symName: __ZNSt3__16__treeINS_12__value_typeINS_5arrayIhLm16EEEP4NodeEENS_19__map_value_compareIS3_S6_NS_4lessIS3_EELb1EEENS_9allocatorIS6_EEE12__find_equalIS3_EERPNS_16__tree_node_baseIPvEERPNS_15__tree_end_nodeISI_EERKT_, symObjAddr: 0xE6D8, symBinAddr: 0x10000FC8C, symSize: 0x184 }
  - { offsetInCU: 0x32713, offset: 0x32713, size: 0x8, addend: 0x0, symName: __ZNSt3__16__treeINS_12__value_typeINS_5arrayIhLm16EEEP4NodeEENS_19__map_value_compareIS3_S6_NS_4lessIS3_EELb1EEENS_9allocatorIS6_EEE16__construct_nodeIJNS_4pairIKS3_S5_EEEEENS_10unique_ptrINS_11__tree_nodeIS6_PvEENS_22__tree_node_destructorINSB_ISL_EEEEEEDpOT_, symObjAddr: 0xE85C, symBinAddr: 0x10000FE10, symSize: 0x110 }
  - { offsetInCU: 0x32774, offset: 0x32774, size: 0x8, addend: 0x0, symName: __ZNSt3__16__treeINS_12__value_typeINS_5arrayIhLm16EEEP4NodeEENS_19__map_value_compareIS3_S6_NS_4lessIS3_EELb1EEENS_9allocatorIS6_EEE16__insert_node_atEPNS_15__tree_end_nodeIPNS_16__tree_node_baseIPvEEEERSI_SI_, symObjAddr: 0xE96C, symBinAddr: 0x10000FF20, symSize: 0xCC }
  - { offsetInCU: 0x327C9, offset: 0x327C9, size: 0x8, addend: 0x0, symName: __ZNKSt3__110unique_ptrINS_11__tree_nodeINS_12__value_typeINS_5arrayIhLm16EEEP4NodeEEPvEENS_22__tree_node_destructorINS_9allocatorIS9_EEEEE3getB8ue170006Ev, symObjAddr: 0xEA38, symBinAddr: 0x10000FFEC, symSize: 0x28 }
  - { offsetInCU: 0x327EF, offset: 0x327EF, size: 0x8, addend: 0x0, symName: __ZNSt3__110unique_ptrINS_11__tree_nodeINS_12__value_typeINS_5arrayIhLm16EEEP4NodeEEPvEENS_22__tree_node_destructorINS_9allocatorIS9_EEEEE7releaseB8ue170006Ev, symObjAddr: 0xEA60, symBinAddr: 0x100010014, symSize: 0x44 }
  - { offsetInCU: 0x32824, offset: 0x32824, size: 0x8, addend: 0x0, symName: __ZNSt3__110unique_ptrINS_11__tree_nodeINS_12__value_typeINS_5arrayIhLm16EEEP4NodeEEPvEENS_22__tree_node_destructorINS_9allocatorIS9_EEEEED1B8ue170006Ev, symObjAddr: 0xEAA4, symBinAddr: 0x100010058, symSize: 0x2C }
  - { offsetInCU: 0x3284E, offset: 0x3284E, size: 0x8, addend: 0x0, symName: __ZNSt3__115__tree_iteratorINS_12__value_typeINS_5arrayIhLm16EEEP4NodeEEPNS_11__tree_nodeIS6_PvEElEC1B8ue170006ESA_, symObjAddr: 0xEAD0, symBinAddr: 0x100010084, symSize: 0x34 }
  - { offsetInCU: 0x3288D, offset: 0x3288D, size: 0x8, addend: 0x0, symName: __ZNSt3__14pairINS_15__tree_iteratorINS_12__value_typeINS_5arrayIhLm16EEEP4NodeEEPNS_11__tree_nodeIS7_PvEElEEbEC1B8ue170006ISC_RbLS9_0EEEOT_OT0_, symObjAddr: 0xEB04, symBinAddr: 0x1000100B8, symSize: 0x3C }
  - { offsetInCU: 0x328EB, offset: 0x328EB, size: 0x8, addend: 0x0, symName: __ZNKSt3__16__treeINS_12__value_typeINS_5arrayIhLm16EEEP4NodeEENS_19__map_value_compareIS3_S6_NS_4lessIS3_EELb1EEENS_9allocatorIS6_EEE6__rootB8ue170006Ev, symObjAddr: 0xEB40, symBinAddr: 0x1000100F4, symSize: 0x28 }
  - { offsetInCU: 0x32911, offset: 0x32911, size: 0x8, addend: 0x0, symName: __ZNKSt3__16__treeINS_12__value_typeINS_5arrayIhLm16EEEP4NodeEENS_19__map_value_compareIS3_S6_NS_4lessIS3_EELb1EEENS_9allocatorIS6_EEE10__root_ptrB8ue170006Ev, symObjAddr: 0xEB68, symBinAddr: 0x10001011C, symSize: 0x24 }
  - { offsetInCU: 0x32937, offset: 0x32937, size: 0x8, addend: 0x0, symName: __ZNSt3__16__treeINS_12__value_typeINS_5arrayIhLm16EEEP4NodeEENS_19__map_value_compareIS3_S6_NS_4lessIS3_EELb1EEENS_9allocatorIS6_EEE10value_compB8ue170006Ev, symObjAddr: 0xEB8C, symBinAddr: 0x100010140, symSize: 0x28 }
  - { offsetInCU: 0x3295D, offset: 0x3295D, size: 0x8, addend: 0x0, symName: __ZNKSt3__119__map_value_compareINS_5arrayIhLm16EEENS_12__value_typeIS2_P4NodeEENS_4lessIS2_EELb1EEclB8ue170006ERKS2_RKS6_, symObjAddr: 0xEBB4, symBinAddr: 0x100010168, symSize: 0x50 }
  - { offsetInCU: 0x329A1, offset: 0x329A1, size: 0x8, addend: 0x0, symName: __ZNKSt3__119__map_value_compareINS_5arrayIhLm16EEENS_12__value_typeIS2_P4NodeEENS_4lessIS2_EELb1EEclB8ue170006ERKS6_RKS2_, symObjAddr: 0xEC04, symBinAddr: 0x1000101B8, symSize: 0x48 }
  - { offsetInCU: 0x329E5, offset: 0x329E5, size: 0x8, addend: 0x0, symName: __ZNKSt3__16__treeINS_12__value_typeINS_5arrayIhLm16EEEP4NodeEENS_19__map_value_compareIS3_S6_NS_4lessIS3_EELb1EEENS_9allocatorIS6_EEE10__end_nodeB8ue170006Ev, symObjAddr: 0xEC4C, symBinAddr: 0x100010200, symSize: 0x2C }
  - { offsetInCU: 0x32A0B, offset: 0x32A0B, size: 0x8, addend: 0x0, symName: __ZNKSt3__117__compressed_pairINS_15__tree_end_nodeIPNS_16__tree_node_baseIPvEEEENS_9allocatorINS_11__tree_nodeINS_12__value_typeINS_5arrayIhLm16EEEP4NodeEES3_EEEEE5firstB8ue170006Ev, symObjAddr: 0xEC78, symBinAddr: 0x10001022C, symSize: 0x24 }
  - { offsetInCU: 0x32A31, offset: 0x32A31, size: 0x8, addend: 0x0, symName: __ZNKSt3__122__compressed_pair_elemINS_15__tree_end_nodeIPNS_16__tree_node_baseIPvEEEELi0ELb0EE5__getB8ue170006Ev, symObjAddr: 0xEC9C, symBinAddr: 0x100010250, symSize: 0x14 }
  - { offsetInCU: 0x32A57, offset: 0x32A57, size: 0x8, addend: 0x0, symName: __ZNSt3__117__compressed_pairImNS_19__map_value_compareINS_5arrayIhLm16EEENS_12__value_typeIS3_P4NodeEENS_4lessIS3_EELb1EEEE6secondB8ue170006Ev, symObjAddr: 0xECB0, symBinAddr: 0x100010264, symSize: 0x24 }
  - { offsetInCU: 0x32A7D, offset: 0x32A7D, size: 0x8, addend: 0x0, symName: __ZNSt3__122__compressed_pair_elemINS_19__map_value_compareINS_5arrayIhLm16EEENS_12__value_typeIS3_P4NodeEENS_4lessIS3_EELb1EEELi1ELb1EE5__getB8ue170006Ev, symObjAddr: 0xECD4, symBinAddr: 0x100010288, symSize: 0x14 }
  - { offsetInCU: 0x32AA3, offset: 0x32AA3, size: 0x8, addend: 0x0, symName: __ZNKSt3__14lessINS_5arrayIhLm16EEEEclB8ue170006ERKS2_S5_, symObjAddr: 0xECE8, symBinAddr: 0x10001029C, symSize: 0x50 }
  - { offsetInCU: 0x32AE7, offset: 0x32AE7, size: 0x8, addend: 0x0, symName: __ZNKSt3__112__value_typeINS_5arrayIhLm16EEEP4NodeE11__get_valueB8ue170006Ev, symObjAddr: 0xED38, symBinAddr: 0x1000102EC, symSize: 0x24 }
  - { offsetInCU: 0x32B0D, offset: 0x32B0D, size: 0x8, addend: 0x0, symName: __ZNSt3__16__treeINS_12__value_typeINS_5arrayIhLm16EEEP4NodeEENS_19__map_value_compareIS3_S6_NS_4lessIS3_EELb1EEENS_9allocatorIS6_EEE12__node_allocB8ue170006Ev, symObjAddr: 0xED94, symBinAddr: 0x100010348, symSize: 0x28 }
  - { offsetInCU: 0x32B33, offset: 0x32B33, size: 0x8, addend: 0x0, symName: __ZNSt3__116allocator_traitsINS_9allocatorINS_11__tree_nodeINS_12__value_typeINS_5arrayIhLm16EEEP4NodeEEPvEEEEE8allocateB8ue170006ERSB_m, symObjAddr: 0xEDBC, symBinAddr: 0x100010370, symSize: 0x2C }
  - { offsetInCU: 0x32B66, offset: 0x32B66, size: 0x8, addend: 0x0, symName: __ZNSt3__122__tree_node_destructorINS_9allocatorINS_11__tree_nodeINS_12__value_typeINS_5arrayIhLm16EEEP4NodeEEPvEEEEEC1B8ue170006ERSB_b, symObjAddr: 0xEDE8, symBinAddr: 0x10001039C, symSize: 0x48 }
  - { offsetInCU: 0x32BB4, offset: 0x32BB4, size: 0x8, addend: 0x0, symName: __ZNSt3__110unique_ptrINS_11__tree_nodeINS_12__value_typeINS_5arrayIhLm16EEEP4NodeEEPvEENS_22__tree_node_destructorINS_9allocatorIS9_EEEEEC1B8ue170006ILb1EvEEPS9_NS_16__dependent_typeINS_27__unique_ptr_deleter_sfinaeISD_EEXT_EE20__good_rval_ref_typeE, symObjAddr: 0xEE30, symBinAddr: 0x1000103E4, symSize: 0x3C }
  - { offsetInCU: 0x32C05, offset: 0x32C05, size: 0x8, addend: 0x0, symName: __ZNSt3__116allocator_traitsINS_9allocatorINS_11__tree_nodeINS_12__value_typeINS_5arrayIhLm16EEEP4NodeEEPvEEEEE9constructB8ue170006INS_4pairIKS5_S7_EEJSG_EvvEEvRSB_PT_DpOT0_, symObjAddr: 0xEE6C, symBinAddr: 0x100010420, symSize: 0x30 }
  - { offsetInCU: 0x32C59, offset: 0x32C59, size: 0x8, addend: 0x0, symName: __ZNSt3__122__tree_key_value_typesINS_12__value_typeINS_5arrayIhLm16EEEP4NodeEEE9__get_ptrB8ue170006ERS6_, symObjAddr: 0xEE9C, symBinAddr: 0x100010450, symSize: 0x24 }
  - { offsetInCU: 0x32C7D, offset: 0x32C7D, size: 0x8, addend: 0x0, symName: __ZNKSt3__110unique_ptrINS_11__tree_nodeINS_12__value_typeINS_5arrayIhLm16EEEP4NodeEEPvEENS_22__tree_node_destructorINS_9allocatorIS9_EEEEEptB8ue170006Ev, symObjAddr: 0xEEC0, symBinAddr: 0x100010474, symSize: 0x28 }
  - { offsetInCU: 0x32CA3, offset: 0x32CA3, size: 0x8, addend: 0x0, symName: __ZNSt3__110unique_ptrINS_11__tree_nodeINS_12__value_typeINS_5arrayIhLm16EEEP4NodeEEPvEENS_22__tree_node_destructorINS_9allocatorIS9_EEEEE11get_deleterB8ue170006Ev, symObjAddr: 0xEEE8, symBinAddr: 0x10001049C, symSize: 0x24 }
  - { offsetInCU: 0x32CC9, offset: 0x32CC9, size: 0x8, addend: 0x0, symName: __ZNSt3__117__compressed_pairINS_15__tree_end_nodeIPNS_16__tree_node_baseIPvEEEENS_9allocatorINS_11__tree_nodeINS_12__value_typeINS_5arrayIhLm16EEEP4NodeEES3_EEEEE6secondB8ue170006Ev, symObjAddr: 0xEF0C, symBinAddr: 0x1000104C0, symSize: 0x24 }
  - { offsetInCU: 0x32CEF, offset: 0x32CEF, size: 0x8, addend: 0x0, symName: __ZNSt3__122__compressed_pair_elemINS_9allocatorINS_11__tree_nodeINS_12__value_typeINS_5arrayIhLm16EEEP4NodeEEPvEEEELi1ELb1EE5__getB8ue170006Ev, symObjAddr: 0xEF30, symBinAddr: 0x1000104E4, symSize: 0x14 }
  - { offsetInCU: 0x32D15, offset: 0x32D15, size: 0x8, addend: 0x0, symName: __ZNSt3__19allocatorINS_11__tree_nodeINS_12__value_typeINS_5arrayIhLm16EEEP4NodeEEPvEEE8allocateB8ue170006Em, symObjAddr: 0xEF44, symBinAddr: 0x1000104F8, symSize: 0x5C }
  - { offsetInCU: 0x32D54, offset: 0x32D54, size: 0x8, addend: 0x0, symName: __ZNSt3__116allocator_traitsINS_9allocatorINS_11__tree_nodeINS_12__value_typeINS_5arrayIhLm16EEEP4NodeEEPvEEEEE8max_sizeB8ue170006ISB_vvEEmRKSB_, symObjAddr: 0xEFA0, symBinAddr: 0x100010554, symSize: 0x28 }
  - { offsetInCU: 0x32D7F, offset: 0x32D7F, size: 0x8, addend: 0x0, symName: __ZNSt3__122__tree_node_destructorINS_9allocatorINS_11__tree_nodeINS_12__value_typeINS_5arrayIhLm16EEEP4NodeEEPvEEEEEC2B8ue170006ERSB_b, symObjAddr: 0xEFC8, symBinAddr: 0x10001057C, symSize: 0x38 }
  - { offsetInCU: 0x32DC7, offset: 0x32DC7, size: 0x8, addend: 0x0, symName: __ZNSt3__110unique_ptrINS_11__tree_nodeINS_12__value_typeINS_5arrayIhLm16EEEP4NodeEEPvEENS_22__tree_node_destructorINS_9allocatorIS9_EEEEEC2B8ue170006ILb1EvEEPS9_NS_16__dependent_typeINS_27__unique_ptr_deleter_sfinaeISD_EEXT_EE20__good_rval_ref_typeE, symObjAddr: 0xF000, symBinAddr: 0x1000105B4, symSize: 0x48 }
  - { offsetInCU: 0x32E18, offset: 0x32E18, size: 0x8, addend: 0x0, symName: __ZNSt3__117__compressed_pairIPNS_11__tree_nodeINS_12__value_typeINS_5arrayIhLm16EEEP4NodeEEPvEENS_22__tree_node_destructorINS_9allocatorIS9_EEEEEC1B8ue170006IRSA_SE_EEOT_OT0_, symObjAddr: 0xF048, symBinAddr: 0x1000105FC, symSize: 0x3C }
  - { offsetInCU: 0x32E70, offset: 0x32E70, size: 0x8, addend: 0x0, symName: __ZNSt3__117__compressed_pairIPNS_11__tree_nodeINS_12__value_typeINS_5arrayIhLm16EEEP4NodeEEPvEENS_22__tree_node_destructorINS_9allocatorIS9_EEEEEC2B8ue170006IRSA_SE_EEOT_OT0_, symObjAddr: 0xF084, symBinAddr: 0x100010638, symSize: 0x48 }
  - { offsetInCU: 0x32EC8, offset: 0x32EC8, size: 0x8, addend: 0x0, symName: __ZNSt3__122__compressed_pair_elemIPNS_11__tree_nodeINS_12__value_typeINS_5arrayIhLm16EEEP4NodeEEPvEELi0ELb0EEC2B8ue170006IRSA_vEEOT_, symObjAddr: 0xF0CC, symBinAddr: 0x100010680, symSize: 0x24 }
  - { offsetInCU: 0x32F0A, offset: 0x32F0A, size: 0x8, addend: 0x0, symName: __ZNSt3__122__compressed_pair_elemINS_22__tree_node_destructorINS_9allocatorINS_11__tree_nodeINS_12__value_typeINS_5arrayIhLm16EEEP4NodeEEPvEEEEEELi1ELb0EEC2B8ue170006ISD_vEEOT_, symObjAddr: 0xF0F0, symBinAddr: 0x1000106A4, symSize: 0x24 }
  - { offsetInCU: 0x32F4C, offset: 0x32F4C, size: 0x8, addend: 0x0, symName: __ZNSt3__112__value_typeINS_5arrayIhLm16EEEP4NodeE11__get_valueB8ue170006Ev, symObjAddr: 0xF148, symBinAddr: 0x1000106FC, symSize: 0x24 }
  - { offsetInCU: 0x32F72, offset: 0x32F72, size: 0x8, addend: 0x0, symName: __ZNKSt3__117__compressed_pairIPNS_11__tree_nodeINS_12__value_typeINS_5arrayIhLm16EEEP4NodeEEPvEENS_22__tree_node_destructorINS_9allocatorIS9_EEEEE5firstB8ue170006Ev, symObjAddr: 0xF1A4, symBinAddr: 0x100010758, symSize: 0x24 }
  - { offsetInCU: 0x32F98, offset: 0x32F98, size: 0x8, addend: 0x0, symName: __ZNKSt3__122__compressed_pair_elemIPNS_11__tree_nodeINS_12__value_typeINS_5arrayIhLm16EEEP4NodeEEPvEELi0ELb0EE5__getB8ue170006Ev, symObjAddr: 0xF1C8, symBinAddr: 0x10001077C, symSize: 0x14 }
  - { offsetInCU: 0x32FBE, offset: 0x32FBE, size: 0x8, addend: 0x0, symName: __ZNSt3__117__compressed_pairIPNS_11__tree_nodeINS_12__value_typeINS_5arrayIhLm16EEEP4NodeEEPvEENS_22__tree_node_destructorINS_9allocatorIS9_EEEEE6secondB8ue170006Ev, symObjAddr: 0xF1DC, symBinAddr: 0x100010790, symSize: 0x28 }
  - { offsetInCU: 0x32FE4, offset: 0x32FE4, size: 0x8, addend: 0x0, symName: __ZNSt3__122__compressed_pair_elemINS_22__tree_node_destructorINS_9allocatorINS_11__tree_nodeINS_12__value_typeINS_5arrayIhLm16EEEP4NodeEEPvEEEEEELi1ELb0EE5__getB8ue170006Ev, symObjAddr: 0xF204, symBinAddr: 0x1000107B8, symSize: 0x14 }
  - { offsetInCU: 0x3300A, offset: 0x3300A, size: 0x8, addend: 0x0, symName: __ZNSt3__16__treeINS_12__value_typeINS_5arrayIhLm16EEEP4NodeEENS_19__map_value_compareIS3_S6_NS_4lessIS3_EELb1EEENS_9allocatorIS6_EEE4sizeB8ue170006Ev, symObjAddr: 0xF544, symBinAddr: 0x100010AF8, symSize: 0x28 }
  - { offsetInCU: 0x33030, offset: 0x33030, size: 0x8, addend: 0x0, symName: __ZNKSt3__116__tree_node_baseIPvE15__parent_unsafeB8ue170006Ev, symObjAddr: 0xF56C, symBinAddr: 0x100010B20, symSize: 0x18 }
  - { offsetInCU: 0x33056, offset: 0x33056, size: 0x8, addend: 0x0, symName: __ZNSt3__116__tree_node_baseIPvE12__set_parentB8ue170006EPS2_, symObjAddr: 0xF754, symBinAddr: 0x100010D08, symSize: 0x20 }
  - { offsetInCU: 0x3308B, offset: 0x3308B, size: 0x8, addend: 0x0, symName: __ZNSt3__117__compressed_pairImNS_19__map_value_compareINS_5arrayIhLm16EEENS_12__value_typeIS3_P4NodeEENS_4lessIS3_EELb1EEEE5firstB8ue170006Ev, symObjAddr: 0xF774, symBinAddr: 0x100010D28, symSize: 0x24 }
  - { offsetInCU: 0x330B1, offset: 0x330B1, size: 0x8, addend: 0x0, symName: __ZNSt3__117__compressed_pairIPNS_11__tree_nodeINS_12__value_typeINS_5arrayIhLm16EEEP4NodeEEPvEENS_22__tree_node_destructorINS_9allocatorIS9_EEEEE5firstB8ue170006Ev, symObjAddr: 0xF798, symBinAddr: 0x100010D4C, symSize: 0x24 }
  - { offsetInCU: 0x330D7, offset: 0x330D7, size: 0x8, addend: 0x0, symName: __ZNSt3__122__compressed_pair_elemIPNS_11__tree_nodeINS_12__value_typeINS_5arrayIhLm16EEEP4NodeEEPvEELi0ELb0EE5__getB8ue170006Ev, symObjAddr: 0xF7BC, symBinAddr: 0x100010D70, symSize: 0x14 }
  - { offsetInCU: 0x330FD, offset: 0x330FD, size: 0x8, addend: 0x0, symName: __ZNSt3__110unique_ptrINS_11__tree_nodeINS_12__value_typeINS_5arrayIhLm16EEEP4NodeEEPvEENS_22__tree_node_destructorINS_9allocatorIS9_EEEEED2B8ue170006Ev, symObjAddr: 0xF7D0, symBinAddr: 0x100010D84, symSize: 0x30 }
  - { offsetInCU: 0x33127, offset: 0x33127, size: 0x8, addend: 0x0, symName: __ZNSt3__110unique_ptrINS_11__tree_nodeINS_12__value_typeINS_5arrayIhLm16EEEP4NodeEEPvEENS_22__tree_node_destructorINS_9allocatorIS9_EEEEE5resetB8ue170006EPS9_, symObjAddr: 0xF800, symBinAddr: 0x100010DB4, symSize: 0x78 }
  - { offsetInCU: 0x3316B, offset: 0x3316B, size: 0x8, addend: 0x0, symName: __ZNSt3__122__tree_node_destructorINS_9allocatorINS_11__tree_nodeINS_12__value_typeINS_5arrayIhLm16EEEP4NodeEEPvEEEEEclB8ue170006EPSA_, symObjAddr: 0xF878, symBinAddr: 0x100010E2C, symSize: 0x98 }
  - { offsetInCU: 0x331A0, offset: 0x331A0, size: 0x8, addend: 0x0, symName: __ZNSt3__116allocator_traitsINS_9allocatorINS_11__tree_nodeINS_12__value_typeINS_5arrayIhLm16EEEP4NodeEEPvEEEEE7destroyB8ue170006INS_4pairIKS5_S7_EEvvEEvRSB_PT_, symObjAddr: 0xF910, symBinAddr: 0x100010EC4, symSize: 0x28 }
  - { offsetInCU: 0x331DA, offset: 0x331DA, size: 0x8, addend: 0x0, symName: __ZNSt3__116allocator_traitsINS_9allocatorINS_11__tree_nodeINS_12__value_typeINS_5arrayIhLm16EEEP4NodeEEPvEEEEE10deallocateB8ue170006ERSB_PSA_m, symObjAddr: 0xF938, symBinAddr: 0x100010EEC, symSize: 0x34 }
  - { offsetInCU: 0x3321C, offset: 0x3321C, size: 0x8, addend: 0x0, symName: __ZNSt3__19allocatorINS_11__tree_nodeINS_12__value_typeINS_5arrayIhLm16EEEP4NodeEEPvEEE10deallocateB8ue170006EPS9_m, symObjAddr: 0xF9A0, symBinAddr: 0x100010F54, symSize: 0x44 }
  - { offsetInCU: 0x3325E, offset: 0x3325E, size: 0x8, addend: 0x0, symName: __ZNSt3__115__tree_iteratorINS_12__value_typeINS_5arrayIhLm16EEEP4NodeEEPNS_11__tree_nodeIS6_PvEElEC2B8ue170006ESA_, symObjAddr: 0xF9E4, symBinAddr: 0x100010F98, symSize: 0x20 }
  - { offsetInCU: 0x33297, offset: 0x33297, size: 0x8, addend: 0x0, symName: __ZNSt3__14pairINS_15__tree_iteratorINS_12__value_typeINS_5arrayIhLm16EEEP4NodeEEPNS_11__tree_nodeIS7_PvEElEEbEC2B8ue170006ISC_RbLS9_0EEEOT_OT0_, symObjAddr: 0xFA04, symBinAddr: 0x100010FB8, symSize: 0x38 }
  - { offsetInCU: 0x332F5, offset: 0x332F5, size: 0x8, addend: 0x0, symName: __ZNSt3__14pairINS_14__map_iteratorINS_15__tree_iteratorINS_12__value_typeINS_5arrayIhLm16EEEP4NodeEEPNS_11__tree_nodeIS8_PvEElEEEEbEC2B8ue170006ISD_bLSA_0EEEONS0_IT_T0_EE, symObjAddr: 0xFA3C, symBinAddr: 0x100010FF0, symSize: 0x50 }
  - { offsetInCU: 0x33346, offset: 0x33346, size: 0x8, addend: 0x0, symName: __ZNSt3__114__map_iteratorINS_15__tree_iteratorINS_12__value_typeINS_5arrayIhLm16EEEP4NodeEEPNS_11__tree_nodeIS7_PvEElEEEC1B8ue170006ESC_, symObjAddr: 0xFA8C, symBinAddr: 0x100011040, symSize: 0x34 }
  - { offsetInCU: 0x3337F, offset: 0x3337F, size: 0x8, addend: 0x0, symName: __ZNSt3__114__map_iteratorINS_15__tree_iteratorINS_12__value_typeINS_5arrayIhLm16EEEP4NodeEEPNS_11__tree_nodeIS7_PvEElEEEC2B8ue170006ESC_, symObjAddr: 0xFAC0, symBinAddr: 0x100011074, symSize: 0x20 }
  - { offsetInCU: 0x333B8, offset: 0x333B8, size: 0x8, addend: 0x0, symName: __ZNSt3__14pairIKNS_5arrayIhLm16EEEP4NodeEC2B8ue170006IRS2_RS5_LPv0EEEOT_OT0_, symObjAddr: 0xFAE0, symBinAddr: 0x100011094, symSize: 0x34 }
  - { offsetInCU: 0x33416, offset: 0x33416, size: 0x8, addend: 0x0, symName: __ZNSt3__16vectorINS_10unique_ptrI4NodeNS_14default_deleteIS2_EEEENS_9allocatorIS5_EEED2B8ue170006Ev, symObjAddr: 0xFB14, symBinAddr: 0x1000110C8, symSize: 0x44 }
  - { offsetInCU: 0x33440, offset: 0x33440, size: 0x8, addend: 0x0, symName: __ZNSt3__16vectorINS_10unique_ptrI4NodeNS_14default_deleteIS2_EEEENS_9allocatorIS5_EEE16__destroy_vectorC1B8ue170006ERS8_, symObjAddr: 0xFB58, symBinAddr: 0x10001110C, symSize: 0x34 }
  - { offsetInCU: 0x33479, offset: 0x33479, size: 0x8, addend: 0x0, symName: __ZNSt3__16vectorINS_10unique_ptrI4NodeNS_14default_deleteIS2_EEEENS_9allocatorIS5_EEE16__destroy_vectorclB8ue170006Ev, symObjAddr: 0xFB8C, symBinAddr: 0x100011140, symSize: 0x90 }
  - { offsetInCU: 0x3349F, offset: 0x3349F, size: 0x8, addend: 0x0, symName: __ZNSt3__16vectorINS_10unique_ptrI4NodeNS_14default_deleteIS2_EEEENS_9allocatorIS5_EEE16__destroy_vectorC2B8ue170006ERS8_, symObjAddr: 0xFC1C, symBinAddr: 0x1000111D0, symSize: 0x20 }
  - { offsetInCU: 0x334D8, offset: 0x334D8, size: 0x8, addend: 0x0, symName: __ZNSt3__16vectorINS_10unique_ptrI4NodeNS_14default_deleteIS2_EEEENS_9allocatorIS5_EEE7__clearB8ue170006Ev, symObjAddr: 0xFC3C, symBinAddr: 0x1000111F0, symSize: 0x28 }
  - { offsetInCU: 0x334FE, offset: 0x334FE, size: 0x8, addend: 0x0, symName: __ZNKSt3__16vectorINS_10unique_ptrI4NodeNS_14default_deleteIS2_EEEENS_9allocatorIS5_EEE17__annotate_deleteB8ue170006Ev, symObjAddr: 0xFC64, symBinAddr: 0x100011218, symSize: 0xB8 }
  - { offsetInCU: 0x33524, offset: 0x33524, size: 0x8, addend: 0x0, symName: __ZNSt3__116allocator_traitsINS_9allocatorINS_10unique_ptrI4NodeNS_14default_deleteIS3_EEEEEEE10deallocateB8ue170006ERS7_PS6_m, symObjAddr: 0xFD1C, symBinAddr: 0x1000112D0, symSize: 0x34 }
  - { offsetInCU: 0x33566, offset: 0x33566, size: 0x8, addend: 0x0, symName: __ZNSt3__16vectorINS_10unique_ptrI4NodeNS_14default_deleteIS2_EEEENS_9allocatorIS5_EEE7__allocB8ue170006Ev, symObjAddr: 0xFD50, symBinAddr: 0x100011304, symSize: 0x28 }
  - { offsetInCU: 0x3358C, offset: 0x3358C, size: 0x8, addend: 0x0, symName: __ZNKSt3__16vectorINS_10unique_ptrI4NodeNS_14default_deleteIS2_EEEENS_9allocatorIS5_EEE8capacityB8ue170006Ev, symObjAddr: 0xFD78, symBinAddr: 0x10001132C, symSize: 0x40 }
  - { offsetInCU: 0x335B2, offset: 0x335B2, size: 0x8, addend: 0x0, symName: __ZNSt3__16vectorINS_10unique_ptrI4NodeNS_14default_deleteIS2_EEEENS_9allocatorIS5_EEE22__base_destruct_at_endB8ue170006EPS5_, symObjAddr: 0xFDB8, symBinAddr: 0x10001136C, symSize: 0x8C }
  - { offsetInCU: 0x335F6, offset: 0x335F6, size: 0x8, addend: 0x0, symName: __ZNSt3__116allocator_traitsINS_9allocatorINS_10unique_ptrI4NodeNS_14default_deleteIS3_EEEEEEE7destroyB8ue170006IS6_vvEEvRS7_PT_, symObjAddr: 0xFE44, symBinAddr: 0x1000113F8, symSize: 0x28 }
  - { offsetInCU: 0x33630, offset: 0x33630, size: 0x8, addend: 0x0, symName: __ZNSt3__110unique_ptrI4NodeNS_14default_deleteIS1_EEED1B8ue170006Ev, symObjAddr: 0xFEC8, symBinAddr: 0x10001147C, symSize: 0x2C }
  - { offsetInCU: 0x3365A, offset: 0x3365A, size: 0x8, addend: 0x0, symName: __ZNSt3__110unique_ptrI4NodeNS_14default_deleteIS1_EEED2B8ue170006Ev, symObjAddr: 0xFEF4, symBinAddr: 0x1000114A8, symSize: 0x30 }
  - { offsetInCU: 0x33684, offset: 0x33684, size: 0x8, addend: 0x0, symName: __ZNSt3__110unique_ptrI4NodeNS_14default_deleteIS1_EEE5resetB8ue170006EPS1_, symObjAddr: 0xFF24, symBinAddr: 0x1000114D8, symSize: 0x78 }
  - { offsetInCU: 0x336C8, offset: 0x336C8, size: 0x8, addend: 0x0, symName: __ZNSt3__117__compressed_pairIP4NodeNS_14default_deleteIS1_EEE5firstB8ue170006Ev, symObjAddr: 0xFF9C, symBinAddr: 0x100011550, symSize: 0x24 }
  - { offsetInCU: 0x336EE, offset: 0x336EE, size: 0x8, addend: 0x0, symName: __ZNSt3__117__compressed_pairIP4NodeNS_14default_deleteIS1_EEE6secondB8ue170006Ev, symObjAddr: 0xFFC0, symBinAddr: 0x100011574, symSize: 0x24 }
  - { offsetInCU: 0x33714, offset: 0x33714, size: 0x8, addend: 0x0, symName: __ZNKSt3__114default_deleteI4NodeEclB8ue170006EPS1_, symObjAddr: 0xFFE4, symBinAddr: 0x100011598, symSize: 0x4C }
  - { offsetInCU: 0x33748, offset: 0x33748, size: 0x8, addend: 0x0, symName: __ZNSt3__122__compressed_pair_elemIP4NodeLi0ELb0EE5__getB8ue170006Ev, symObjAddr: 0x10030, symBinAddr: 0x1000115E4, symSize: 0x14 }
  - { offsetInCU: 0x3376E, offset: 0x3376E, size: 0x8, addend: 0x0, symName: __ZNSt3__122__compressed_pair_elemINS_14default_deleteI4NodeEELi1ELb1EE5__getB8ue170006Ev, symObjAddr: 0x10044, symBinAddr: 0x1000115F8, symSize: 0x14 }
  - { offsetInCU: 0x33794, offset: 0x33794, size: 0x8, addend: 0x0, symName: __ZNKSt3__16vectorINS_10unique_ptrI4NodeNS_14default_deleteIS2_EEEENS_9allocatorIS5_EEE31__annotate_contiguous_containerB8ue170006EPKvSA_SA_SA_, symObjAddr: 0x10058, symBinAddr: 0x10001160C, symSize: 0x20 }
  - { offsetInCU: 0x337E6, offset: 0x337E6, size: 0x8, addend: 0x0, symName: __ZNKSt3__16vectorINS_10unique_ptrI4NodeNS_14default_deleteIS2_EEEENS_9allocatorIS5_EEE4dataB8ue170006Ev, symObjAddr: 0x10078, symBinAddr: 0x10001162C, symSize: 0x28 }
  - { offsetInCU: 0x3380C, offset: 0x3380C, size: 0x8, addend: 0x0, symName: __ZNKSt3__16vectorINS_10unique_ptrI4NodeNS_14default_deleteIS2_EEEENS_9allocatorIS5_EEE4sizeB8ue170006Ev, symObjAddr: 0x100A0, symBinAddr: 0x100011654, symSize: 0x28 }
  - { offsetInCU: 0x33832, offset: 0x33832, size: 0x8, addend: 0x0, symName: __ZNSt3__19allocatorINS_10unique_ptrI4NodeNS_14default_deleteIS2_EEEEE10deallocateB8ue170006EPS5_m, symObjAddr: 0x100C8, symBinAddr: 0x10001167C, symSize: 0x40 }
  - { offsetInCU: 0x33874, offset: 0x33874, size: 0x8, addend: 0x0, symName: __ZNSt3__117__compressed_pairIPNS_10unique_ptrI4NodeNS_14default_deleteIS2_EEEENS_9allocatorIS5_EEE6secondB8ue170006Ev, symObjAddr: 0x10108, symBinAddr: 0x1000116BC, symSize: 0x24 }
  - { offsetInCU: 0x3389A, offset: 0x3389A, size: 0x8, addend: 0x0, symName: __ZNSt3__122__compressed_pair_elemINS_9allocatorINS_10unique_ptrI4NodeNS_14default_deleteIS3_EEEEEELi1ELb1EE5__getB8ue170006Ev, symObjAddr: 0x1012C, symBinAddr: 0x1000116E0, symSize: 0x14 }
  - { offsetInCU: 0x338C0, offset: 0x338C0, size: 0x8, addend: 0x0, symName: __ZNKSt3__16vectorINS_10unique_ptrI4NodeNS_14default_deleteIS2_EEEENS_9allocatorIS5_EEE9__end_capB8ue170006Ev, symObjAddr: 0x10140, symBinAddr: 0x1000116F4, symSize: 0x28 }
  - { offsetInCU: 0x338E6, offset: 0x338E6, size: 0x8, addend: 0x0, symName: __ZNKSt3__117__compressed_pairIPNS_10unique_ptrI4NodeNS_14default_deleteIS2_EEEENS_9allocatorIS5_EEE5firstB8ue170006Ev, symObjAddr: 0x10168, symBinAddr: 0x10001171C, symSize: 0x24 }
  - { offsetInCU: 0x3390C, offset: 0x3390C, size: 0x8, addend: 0x0, symName: __ZNKSt3__122__compressed_pair_elemIPNS_10unique_ptrI4NodeNS_14default_deleteIS2_EEEELi0ELb0EE5__getB8ue170006Ev, symObjAddr: 0x1018C, symBinAddr: 0x100011740, symSize: 0x14 }
  - { offsetInCU: 0x33932, offset: 0x33932, size: 0x8, addend: 0x0, symName: __ZNSt3__13mapINS_5arrayIhLm16EEEP4NodeNS_4lessIS2_EENS_9allocatorINS_4pairIKS2_S4_EEEEED2B8ue170006Ev, symObjAddr: 0x101A0, symBinAddr: 0x100011754, symSize: 0x2C }
  - { offsetInCU: 0x3395C, offset: 0x3395C, size: 0x8, addend: 0x0, symName: __ZNSt3__16__treeINS_12__value_typeINS_5arrayIhLm16EEEP4NodeEENS_19__map_value_compareIS3_S6_NS_4lessIS3_EELb1EEENS_9allocatorIS6_EEED1Ev, symObjAddr: 0x101CC, symBinAddr: 0x100011780, symSize: 0x2C }
  - { offsetInCU: 0x33988, offset: 0x33988, size: 0x8, addend: 0x0, symName: __ZNSt3__16__treeINS_12__value_typeINS_5arrayIhLm16EEEP4NodeEENS_19__map_value_compareIS3_S6_NS_4lessIS3_EELb1EEENS_9allocatorIS6_EEED2Ev, symObjAddr: 0x101F8, symBinAddr: 0x1000117AC, symSize: 0x38 }
  - { offsetInCU: 0x339B4, offset: 0x339B4, size: 0x8, addend: 0x0, symName: __ZNSt3__16__treeINS_12__value_typeINS_5arrayIhLm16EEEP4NodeEENS_19__map_value_compareIS3_S6_NS_4lessIS3_EELb1EEENS_9allocatorIS6_EEE7destroyEPNS_11__tree_nodeIS6_PvEE, symObjAddr: 0x10230, symBinAddr: 0x1000117E4, symSize: 0xAC }
  - { offsetInCU: 0x33A00, offset: 0x33A00, size: 0x8, addend: 0x0, symName: __ZNSt3__16vectorIP4NodeNS_9allocatorIS2_EEED2B8ue170006Ev, symObjAddr: 0x102DC, symBinAddr: 0x100011890, symSize: 0x40 }
  - { offsetInCU: 0x33A2A, offset: 0x33A2A, size: 0x8, addend: 0x0, symName: __ZNSt3__110__get_pairILm0EE3getB8ue170006IKNS_5arrayIhLm16EEEP4NodeEERT_RNS_4pairIS8_T0_EE, symObjAddr: 0x1031C, symBinAddr: 0x1000118D0, symSize: 0x14 }
  - { offsetInCU: 0x33A60, offset: 0x33A60, size: 0x8, addend: 0x0, symName: __ZNSt3__110__get_pairILm1EE3getB8ue170006IKNS_5arrayIhLm16EEEP4NodeEERT0_RNS_4pairIT_S8_EE, symObjAddr: 0x10330, symBinAddr: 0x1000118E4, symSize: 0x18 }
  - { offsetInCU: 0x33A96, offset: 0x33A96, size: 0x8, addend: 0x0, symName: __ZNSt3__14pairINS_12basic_stringIcNS_11char_traitsIcEENS_9allocatorIcEEEES6_EC2B8ue170006IRA6_KcRA4_S9_LPv0EEEOT_OT0_, symObjAddr: 0x10348, symBinAddr: 0x1000118FC, symSize: 0x70 }
  - { offsetInCU: 0x33AF4, offset: 0x33AF4, size: 0x8, addend: 0x0, symName: __ZNSt3__14pairINS_12basic_stringIcNS_11char_traitsIcEENS_9allocatorIcEEEES6_EC2B8ue170006IRA7_KcSB_LPv0EEEOT_OT0_, symObjAddr: 0x103B8, symBinAddr: 0x10001196C, symSize: 0x70 }
  - { offsetInCU: 0x33B52, offset: 0x33B52, size: 0x8, addend: 0x0, symName: __ZNSt3__14pairINS_12basic_stringIcNS_11char_traitsIcEENS_9allocatorIcEEEES6_EC2B8ue170006IRA4_KcSB_LPv0EEEOT_OT0_, symObjAddr: 0x10428, symBinAddr: 0x1000119DC, symSize: 0x70 }
  - { offsetInCU: 0x33BB0, offset: 0x33BB0, size: 0x8, addend: 0x0, symName: __ZNSt3__14pairINS_12basic_stringIcNS_11char_traitsIcEENS_9allocatorIcEEEES6_EC2B8ue170006IRA6_KcRA7_S9_LPv0EEEOT_OT0_, symObjAddr: 0x10498, symBinAddr: 0x100011A4C, symSize: 0x70 }
  - { offsetInCU: 0x33C0E, offset: 0x33C0E, size: 0x8, addend: 0x0, symName: __ZNSt3__14pairINS_12basic_stringIcNS_11char_traitsIcEENS_9allocatorIcEEEES6_EC2B8ue170006IRA6_KcSB_LPv0EEEOT_OT0_, symObjAddr: 0x10508, symBinAddr: 0x100011ABC, symSize: 0x70 }
  - { offsetInCU: 0x33C6C, offset: 0x33C6C, size: 0x8, addend: 0x0, symName: __ZNSt3__14pairINS_12basic_stringIcNS_11char_traitsIcEENS_9allocatorIcEEEES6_ED2Ev, symObjAddr: 0x10578, symBinAddr: 0x100011B2C, symSize: 0x38 }
  - { offsetInCU: 0x33C98, offset: 0x33C98, size: 0x8, addend: 0x0, symName: __ZNSt3__16vectorINS_4pairINS_12basic_stringIcNS_11char_traitsIcEENS_9allocatorIcEEEES7_EENS5_IS8_EEEC2B8ue170006ESt16initializer_listIS8_E, symObjAddr: 0x105B0, symBinAddr: 0x100011B64, symSize: 0x120 }
  - { offsetInCU: 0x33CE8, offset: 0x33CE8, size: 0x8, addend: 0x0, symName: __ZNSt3__117__compressed_pairIPNS_4pairINS_12basic_stringIcNS_11char_traitsIcEENS_9allocatorIcEEEES7_EENS5_IS8_EEEC1B8ue170006IDnNS_18__default_init_tagEEEOT_OT0_, symObjAddr: 0x106D0, symBinAddr: 0x100011C84, symSize: 0x3C }
  - { offsetInCU: 0x33D40, offset: 0x33D40, size: 0x8, addend: 0x0, symName: __ZNSt3__16vectorINS_4pairINS_12basic_stringIcNS_11char_traitsIcEENS_9allocatorIcEEEES7_EENS5_IS8_EEE16__destroy_vectorC1B8ue170006ERSA_, symObjAddr: 0x1074C, symBinAddr: 0x100011D00, symSize: 0x34 }
  - { offsetInCU: 0x33D79, offset: 0x33D79, size: 0x8, addend: 0x0, symName: __ZNKSt16initializer_listINSt3__14pairINS0_12basic_stringIcNS0_11char_traitsIcEENS0_9allocatorIcEEEES7_EEE4sizeB8ue170006Ev, symObjAddr: 0x10780, symBinAddr: 0x100011D34, symSize: 0x18 }
  - { offsetInCU: 0x33D9F, offset: 0x33D9F, size: 0x8, addend: 0x0, symName: __ZNSt3__16vectorINS_4pairINS_12basic_stringIcNS_11char_traitsIcEENS_9allocatorIcEEEES7_EENS5_IS8_EEE11__vallocateB8ue170006Em, symObjAddr: 0x10798, symBinAddr: 0x100011D4C, symSize: 0xB4 }
  - { offsetInCU: 0x33DE3, offset: 0x33DE3, size: 0x8, addend: 0x0, symName: __ZNSt3__16vectorINS_4pairINS_12basic_stringIcNS_11char_traitsIcEENS_9allocatorIcEEEES7_EENS5_IS8_EEE18__construct_at_endIPKS8_SD_EEvT_T0_m, symObjAddr: 0x1084C, symBinAddr: 0x100011E00, symSize: 0x8C }
  - { offsetInCU: 0x33E59, offset: 0x33E59, size: 0x8, addend: 0x0, symName: __ZNKSt16initializer_listINSt3__14pairINS0_12basic_stringIcNS0_11char_traitsIcEENS0_9allocatorIcEEEES7_EEE5beginB8ue170006Ev, symObjAddr: 0x108D8, symBinAddr: 0x100011E8C, symSize: 0x18 }
  - { offsetInCU: 0x33E7F, offset: 0x33E7F, size: 0x8, addend: 0x0, symName: __ZNKSt16initializer_listINSt3__14pairINS0_12basic_stringIcNS0_11char_traitsIcEENS0_9allocatorIcEEEES7_EEE3endB8ue170006Ev, symObjAddr: 0x108F0, symBinAddr: 0x100011EA4, symSize: 0x28 }
  - { offsetInCU: 0x33EA5, offset: 0x33EA5, size: 0x8, addend: 0x0, symName: __ZNSt3__128__exception_guard_exceptionsINS_6vectorINS_4pairINS_12basic_stringIcNS_11char_traitsIcEENS_9allocatorIcEEEES8_EENS6_IS9_EEE16__destroy_vectorEE10__completeB8ue170006Ev, symObjAddr: 0x10918, symBinAddr: 0x100011ECC, symSize: 0x1C }
  - { offsetInCU: 0x33ECB, offset: 0x33ECB, size: 0x8, addend: 0x0, symName: __ZNSt3__128__exception_guard_exceptionsINS_6vectorINS_4pairINS_12basic_stringIcNS_11char_traitsIcEENS_9allocatorIcEEEES8_EENS6_IS9_EEE16__destroy_vectorEED1B8ue170006Ev, symObjAddr: 0x10934, symBinAddr: 0x100011EE8, symSize: 0x2C }
  - { offsetInCU: 0x33EF5, offset: 0x33EF5, size: 0x8, addend: 0x0, symName: __ZNSt3__117__compressed_pairIPNS_4pairINS_12basic_stringIcNS_11char_traitsIcEENS_9allocatorIcEEEES7_EENS5_IS8_EEEC2B8ue170006IDnNS_18__default_init_tagEEEOT_OT0_, symObjAddr: 0x10960, symBinAddr: 0x100011F14, symSize: 0x40 }
  - { offsetInCU: 0x33F4D, offset: 0x33F4D, size: 0x8, addend: 0x0, symName: __ZNSt3__122__compressed_pair_elemIPNS_4pairINS_12basic_stringIcNS_11char_traitsIcEENS_9allocatorIcEEEES7_EELi0ELb0EEC2B8ue170006IDnvEEOT_, symObjAddr: 0x109A0, symBinAddr: 0x100011F54, symSize: 0x1C }
  - { offsetInCU: 0x33F8F, offset: 0x33F8F, size: 0x8, addend: 0x0, symName: __ZNSt3__122__compressed_pair_elemINS_9allocatorINS_4pairINS_12basic_stringIcNS_11char_traitsIcEENS1_IcEEEES7_EEEELi1ELb1EEC2B8ue170006ENS_18__default_init_tagE, symObjAddr: 0x109BC, symBinAddr: 0x100011F70, symSize: 0x2C }
  - { offsetInCU: 0x33FC3, offset: 0x33FC3, size: 0x8, addend: 0x0, symName: __ZNSt3__19allocatorINS_4pairINS_12basic_stringIcNS_11char_traitsIcEENS0_IcEEEES6_EEEC2B8ue170006Ev, symObjAddr: 0x109E8, symBinAddr: 0x100011F9C, symSize: 0x2C }
  - { offsetInCU: 0x33FED, offset: 0x33FED, size: 0x8, addend: 0x0, symName: __ZNSt3__116__non_trivial_ifILb1ENS_9allocatorINS_4pairINS_12basic_stringIcNS_11char_traitsIcEENS1_IcEEEES7_EEEEEC2B8ue170006Ev, symObjAddr: 0x10A14, symBinAddr: 0x100011FC8, symSize: 0x14 }
  - { offsetInCU: 0x34017, offset: 0x34017, size: 0x8, addend: 0x0, symName: __ZNSt3__128__exception_guard_exceptionsINS_6vectorINS_4pairINS_12basic_stringIcNS_11char_traitsIcEENS_9allocatorIcEEEES8_EENS6_IS9_EEE16__destroy_vectorEEC1B8ue170006ESC_, symObjAddr: 0x10A28, symBinAddr: 0x100011FDC, symSize: 0x34 }
  - { offsetInCU: 0x3404F, offset: 0x3404F, size: 0x8, addend: 0x0, symName: __ZNSt3__128__exception_guard_exceptionsINS_6vectorINS_4pairINS_12basic_stringIcNS_11char_traitsIcEENS_9allocatorIcEEEES8_EENS6_IS9_EEE16__destroy_vectorEEC2B8ue170006ESC_, symObjAddr: 0x10A5C, symBinAddr: 0x100012010, symSize: 0x24 }
  - { offsetInCU: 0x34087, offset: 0x34087, size: 0x8, addend: 0x0, symName: __ZNSt3__16vectorINS_4pairINS_12basic_stringIcNS_11char_traitsIcEENS_9allocatorIcEEEES7_EENS5_IS8_EEE16__destroy_vectorC2B8ue170006ERSA_, symObjAddr: 0x10A80, symBinAddr: 0x100012034, symSize: 0x20 }
  - { offsetInCU: 0x340C0, offset: 0x340C0, size: 0x8, addend: 0x0, symName: __ZNKSt3__16vectorINS_4pairINS_12basic_stringIcNS_11char_traitsIcEENS_9allocatorIcEEEES7_EENS5_IS8_EEE8max_sizeEv, symObjAddr: 0x10AA0, symBinAddr: 0x100012054, symSize: 0x60 }
  - { offsetInCU: 0x340E8, offset: 0x340E8, size: 0x8, addend: 0x0, symName: __ZNKSt3__16vectorINS_4pairINS_12basic_stringIcNS_11char_traitsIcEENS_9allocatorIcEEEES7_EENS5_IS8_EEE20__throw_length_errorB8ue170006Ev, symObjAddr: 0x10B00, symBinAddr: 0x1000120B4, symSize: 0x1C }
  - { offsetInCU: 0x3410E, offset: 0x3410E, size: 0x8, addend: 0x0, symName: __ZNSt3__16vectorINS_4pairINS_12basic_stringIcNS_11char_traitsIcEENS_9allocatorIcEEEES7_EENS5_IS8_EEE7__allocB8ue170006Ev, symObjAddr: 0x10B5C, symBinAddr: 0x100012110, symSize: 0x28 }
  - { offsetInCU: 0x34134, offset: 0x34134, size: 0x8, addend: 0x0, symName: __ZNSt3__16vectorINS_4pairINS_12basic_stringIcNS_11char_traitsIcEENS_9allocatorIcEEEES7_EENS5_IS8_EEE9__end_capB8ue170006Ev, symObjAddr: 0x10B84, symBinAddr: 0x100012138, symSize: 0x28 }
  - { offsetInCU: 0x3415A, offset: 0x3415A, size: 0x8, addend: 0x0, symName: __ZNKSt3__16vectorINS_4pairINS_12basic_stringIcNS_11char_traitsIcEENS_9allocatorIcEEEES7_EENS5_IS8_EEE14__annotate_newB8ue170006Em, symObjAddr: 0x10BAC, symBinAddr: 0x100012160, symSize: 0xC8 }
  - { offsetInCU: 0x3419A, offset: 0x3419A, size: 0x8, addend: 0x0, symName: __ZNSt3__116allocator_traitsINS_9allocatorINS_4pairINS_12basic_stringIcNS_11char_traitsIcEENS1_IcEEEES7_EEEEE8max_sizeB8ue170006IS9_vvEEmRKS9_, symObjAddr: 0x10C74, symBinAddr: 0x100012228, symSize: 0x28 }
  - { offsetInCU: 0x341C5, offset: 0x341C5, size: 0x8, addend: 0x0, symName: __ZNKSt3__16vectorINS_4pairINS_12basic_stringIcNS_11char_traitsIcEENS_9allocatorIcEEEES7_EENS5_IS8_EEE7__allocB8ue170006Ev, symObjAddr: 0x10C9C, symBinAddr: 0x100012250, symSize: 0x28 }
  - { offsetInCU: 0x341EB, offset: 0x341EB, size: 0x8, addend: 0x0, symName: __ZNKSt3__117__compressed_pairIPNS_4pairINS_12basic_stringIcNS_11char_traitsIcEENS_9allocatorIcEEEES7_EENS5_IS8_EEE6secondB8ue170006Ev, symObjAddr: 0x10CC4, symBinAddr: 0x100012278, symSize: 0x24 }
  - { offsetInCU: 0x34211, offset: 0x34211, size: 0x8, addend: 0x0, symName: __ZNKSt3__122__compressed_pair_elemINS_9allocatorINS_4pairINS_12basic_stringIcNS_11char_traitsIcEENS1_IcEEEES7_EEEELi1ELb1EE5__getB8ue170006Ev, symObjAddr: 0x10CE8, symBinAddr: 0x10001229C, symSize: 0x14 }
  - { offsetInCU: 0x34237, offset: 0x34237, size: 0x8, addend: 0x0, symName: __ZNSt3__19allocatorINS_4pairINS_12basic_stringIcNS_11char_traitsIcEENS0_IcEEEES6_EEE8allocateB8ue170006Em, symObjAddr: 0x10CFC, symBinAddr: 0x1000122B0, symSize: 0x5C }
  - { offsetInCU: 0x3426B, offset: 0x3426B, size: 0x8, addend: 0x0, symName: __ZNSt3__117__compressed_pairIPNS_4pairINS_12basic_stringIcNS_11char_traitsIcEENS_9allocatorIcEEEES7_EENS5_IS8_EEE6secondB8ue170006Ev, symObjAddr: 0x10D58, symBinAddr: 0x10001230C, symSize: 0x24 }
  - { offsetInCU: 0x34291, offset: 0x34291, size: 0x8, addend: 0x0, symName: __ZNSt3__122__compressed_pair_elemINS_9allocatorINS_4pairINS_12basic_stringIcNS_11char_traitsIcEENS1_IcEEEES7_EEEELi1ELb1EE5__getB8ue170006Ev, symObjAddr: 0x10D7C, symBinAddr: 0x100012330, symSize: 0x14 }
  - { offsetInCU: 0x342B7, offset: 0x342B7, size: 0x8, addend: 0x0, symName: __ZNSt3__117__compressed_pairIPNS_4pairINS_12basic_stringIcNS_11char_traitsIcEENS_9allocatorIcEEEES7_EENS5_IS8_EEE5firstB8ue170006Ev, symObjAddr: 0x10D90, symBinAddr: 0x100012344, symSize: 0x24 }
  - { offsetInCU: 0x342DD, offset: 0x342DD, size: 0x8, addend: 0x0, symName: __ZNSt3__122__compressed_pair_elemIPNS_4pairINS_12basic_stringIcNS_11char_traitsIcEENS_9allocatorIcEEEES7_EELi0ELb0EE5__getB8ue170006Ev, symObjAddr: 0x10DB4, symBinAddr: 0x100012368, symSize: 0x14 }
  - { offsetInCU: 0x34303, offset: 0x34303, size: 0x8, addend: 0x0, symName: __ZNKSt3__16vectorINS_4pairINS_12basic_stringIcNS_11char_traitsIcEENS_9allocatorIcEEEES7_EENS5_IS8_EEE31__annotate_contiguous_containerB8ue170006EPKvSC_SC_SC_, symObjAddr: 0x10DC8, symBinAddr: 0x10001237C, symSize: 0x20 }
  - { offsetInCU: 0x34355, offset: 0x34355, size: 0x8, addend: 0x0, symName: __ZNKSt3__16vectorINS_4pairINS_12basic_stringIcNS_11char_traitsIcEENS_9allocatorIcEEEES7_EENS5_IS8_EEE4dataB8ue170006Ev, symObjAddr: 0x10DE8, symBinAddr: 0x10001239C, symSize: 0x28 }
  - { offsetInCU: 0x3437B, offset: 0x3437B, size: 0x8, addend: 0x0, symName: __ZNKSt3__16vectorINS_4pairINS_12basic_stringIcNS_11char_traitsIcEENS_9allocatorIcEEEES7_EENS5_IS8_EEE8capacityB8ue170006Ev, symObjAddr: 0x10E10, symBinAddr: 0x1000123C4, symSize: 0x40 }
  - { offsetInCU: 0x343A1, offset: 0x343A1, size: 0x8, addend: 0x0, symName: __ZNKSt3__16vectorINS_4pairINS_12basic_stringIcNS_11char_traitsIcEENS_9allocatorIcEEEES7_EENS5_IS8_EEE9__end_capB8ue170006Ev, symObjAddr: 0x10E64, symBinAddr: 0x100012418, symSize: 0x28 }
  - { offsetInCU: 0x343C7, offset: 0x343C7, size: 0x8, addend: 0x0, symName: __ZNKSt3__117__compressed_pairIPNS_4pairINS_12basic_stringIcNS_11char_traitsIcEENS_9allocatorIcEEEES7_EENS5_IS8_EEE5firstB8ue170006Ev, symObjAddr: 0x10E8C, symBinAddr: 0x100012440, symSize: 0x24 }
  - { offsetInCU: 0x343ED, offset: 0x343ED, size: 0x8, addend: 0x0, symName: __ZNKSt3__122__compressed_pair_elemIPNS_4pairINS_12basic_stringIcNS_11char_traitsIcEENS_9allocatorIcEEEES7_EELi0ELb0EE5__getB8ue170006Ev, symObjAddr: 0x10EB0, symBinAddr: 0x100012464, symSize: 0x14 }
  - { offsetInCU: 0x3442F, offset: 0x3442F, size: 0x8, addend: 0x0, symName: __ZNSt3__16vectorINS_4pairINS_12basic_stringIcNS_11char_traitsIcEENS_9allocatorIcEEEES7_EENS5_IS8_EEE21_ConstructTransactionC1B8ue170006ERSA_m, symObjAddr: 0x10EC4, symBinAddr: 0x100012478, symSize: 0x3C }
  - { offsetInCU: 0x34477, offset: 0x34477, size: 0x8, addend: 0x0, symName: __ZNSt3__16vectorINS_4pairINS_12basic_stringIcNS_11char_traitsIcEENS_9allocatorIcEEEES7_EENS5_IS8_EEE21_ConstructTransactionD1B8ue170006Ev, symObjAddr: 0x10F80, symBinAddr: 0x100012534, symSize: 0x2C }
  - { offsetInCU: 0x344A1, offset: 0x344A1, size: 0x8, addend: 0x0, symName: __ZNSt3__16vectorINS_4pairINS_12basic_stringIcNS_11char_traitsIcEENS_9allocatorIcEEEES7_EENS5_IS8_EEE21_ConstructTransactionC2B8ue170006ERSA_m, symObjAddr: 0x10FAC, symBinAddr: 0x100012560, symSize: 0x4C }
  - { offsetInCU: 0x34506, offset: 0x34506, size: 0x8, addend: 0x0, symName: __ZNSt3__119__unwrap_range_implIPKNS_4pairINS_12basic_stringIcNS_11char_traitsIcEENS_9allocatorIcEEEES7_EESA_E8__unwrapB8ue170006ESA_SA_, symObjAddr: 0x11188, symBinAddr: 0x10001273C, symSize: 0x58 }
  - { offsetInCU: 0x3453D, offset: 0x3453D, size: 0x8, addend: 0x0, symName: __ZNSt3__14pairIPKNS0_INS_12basic_stringIcNS_11char_traitsIcEENS_9allocatorIcEEEES6_EES9_EC1B8ue170006IS9_S9_LPv0EEEOT_OT0_, symObjAddr: 0x11204, symBinAddr: 0x1000127B8, symSize: 0x3C }
  - { offsetInCU: 0x3459B, offset: 0x3459B, size: 0x8, addend: 0x0, symName: __ZNSt3__118__unwrap_iter_implIPKNS_4pairINS_12basic_stringIcNS_11char_traitsIcEENS_9allocatorIcEEEES7_EELb1EE8__unwrapB8ue170006ESA_, symObjAddr: 0x11240, symBinAddr: 0x1000127F4, symSize: 0x24 }
  - { offsetInCU: 0x345BE, offset: 0x345BE, size: 0x8, addend: 0x0, symName: __ZNSt3__14pairIPKNS0_INS_12basic_stringIcNS_11char_traitsIcEENS_9allocatorIcEEEES6_EES9_EC2B8ue170006IS9_S9_LPv0EEEOT_OT0_, symObjAddr: 0x11278, symBinAddr: 0x10001282C, symSize: 0x34 }
  - { offsetInCU: 0x3461C, offset: 0x3461C, size: 0x8, addend: 0x0, symName: __ZNSt3__129_AllocatorDestroyRangeReverseINS_9allocatorINS_4pairINS_12basic_stringIcNS_11char_traitsIcEENS1_IcEEEES7_EEEEPS8_EC1B8ue170006ERS9_RSA_SD_, symObjAddr: 0x112F8, symBinAddr: 0x1000128AC, symSize: 0x44 }
  - { offsetInCU: 0x34673, offset: 0x34673, size: 0x8, addend: 0x0, symName: __ZNSt3__116allocator_traitsINS_9allocatorINS_4pairINS_12basic_stringIcNS_11char_traitsIcEENS1_IcEEEES7_EEEEE9constructB8ue170006IS8_JRKS8_EvvEEvRS9_PT_DpOT0_, symObjAddr: 0x1133C, symBinAddr: 0x1000128F0, symSize: 0x30 }
  - { offsetInCU: 0x346C7, offset: 0x346C7, size: 0x8, addend: 0x0, symName: __ZNSt3__128__exception_guard_exceptionsINS_29_AllocatorDestroyRangeReverseINS_9allocatorINS_4pairINS_12basic_stringIcNS_11char_traitsIcEENS2_IcEEEES8_EEEEPS9_EEE10__completeB8ue170006Ev, symObjAddr: 0x1136C, symBinAddr: 0x100012920, symSize: 0x1C }
  - { offsetInCU: 0x346ED, offset: 0x346ED, size: 0x8, addend: 0x0, symName: __ZNSt3__128__exception_guard_exceptionsINS_29_AllocatorDestroyRangeReverseINS_9allocatorINS_4pairINS_12basic_stringIcNS_11char_traitsIcEENS2_IcEEEES8_EEEEPS9_EEED1B8ue170006Ev, symObjAddr: 0x11388, symBinAddr: 0x10001293C, symSize: 0x2C }
  - { offsetInCU: 0x34717, offset: 0x34717, size: 0x8, addend: 0x0, symName: __ZNSt3__128__exception_guard_exceptionsINS_29_AllocatorDestroyRangeReverseINS_9allocatorINS_4pairINS_12basic_stringIcNS_11char_traitsIcEENS2_IcEEEES8_EEEEPS9_EEEC1B8ue170006ESC_, symObjAddr: 0x113B4, symBinAddr: 0x100012968, symSize: 0x34 }
  - { offsetInCU: 0x34750, offset: 0x34750, size: 0x8, addend: 0x0, symName: __ZNSt3__128__exception_guard_exceptionsINS_29_AllocatorDestroyRangeReverseINS_9allocatorINS_4pairINS_12basic_stringIcNS_11char_traitsIcEENS2_IcEEEES8_EEEEPS9_EEEC2B8ue170006ESC_, symObjAddr: 0x113E8, symBinAddr: 0x10001299C, symSize: 0x30 }
  - { offsetInCU: 0x34789, offset: 0x34789, size: 0x8, addend: 0x0, symName: __ZNSt3__129_AllocatorDestroyRangeReverseINS_9allocatorINS_4pairINS_12basic_stringIcNS_11char_traitsIcEENS1_IcEEEES7_EEEEPS8_EC2B8ue170006ERS9_RSA_SD_, symObjAddr: 0x11418, symBinAddr: 0x1000129CC, symSize: 0x38 }
  - { offsetInCU: 0x347E0, offset: 0x347E0, size: 0x8, addend: 0x0, symName: __ZNSt3__14pairINS_12basic_stringIcNS_11char_traitsIcEENS_9allocatorIcEEEES6_EC1B8ue170006ERKS7_, symObjAddr: 0x1148C, symBinAddr: 0x100012A40, symSize: 0x34 }
  - { offsetInCU: 0x34814, offset: 0x34814, size: 0x8, addend: 0x0, symName: __ZNSt3__14pairINS_12basic_stringIcNS_11char_traitsIcEENS_9allocatorIcEEEES6_EC2B8ue170006ERKS7_, symObjAddr: 0x114C0, symBinAddr: 0x100012A74, symSize: 0x70 }
  - { offsetInCU: 0x34848, offset: 0x34848, size: 0x8, addend: 0x0, symName: __ZNSt3__128__exception_guard_exceptionsINS_29_AllocatorDestroyRangeReverseINS_9allocatorINS_4pairINS_12basic_stringIcNS_11char_traitsIcEENS2_IcEEEES8_EEEEPS9_EEED2B8ue170006Ev, symObjAddr: 0x11530, symBinAddr: 0x100012AE4, symSize: 0x50 }
  - { offsetInCU: 0x34872, offset: 0x34872, size: 0x8, addend: 0x0, symName: __ZNKSt3__129_AllocatorDestroyRangeReverseINS_9allocatorINS_4pairINS_12basic_stringIcNS_11char_traitsIcEENS1_IcEEEES7_EEEEPS8_EclB8ue170006Ev, symObjAddr: 0x11580, symBinAddr: 0x100012B34, symSize: 0x68 }
  - { offsetInCU: 0x34898, offset: 0x34898, size: 0x8, addend: 0x0, symName: __ZNSt3__116reverse_iteratorIPNS_4pairINS_12basic_stringIcNS_11char_traitsIcEENS_9allocatorIcEEEES7_EEEC1B8ue170006ES9_, symObjAddr: 0x11658, symBinAddr: 0x100012C0C, symSize: 0x34 }
  - { offsetInCU: 0x348D0, offset: 0x348D0, size: 0x8, addend: 0x0, symName: __ZNSt3__116allocator_traitsINS_9allocatorINS_4pairINS_12basic_stringIcNS_11char_traitsIcEENS1_IcEEEES7_EEEEE7destroyB8ue170006IS8_vvEEvRS9_PT_, symObjAddr: 0x116D4, symBinAddr: 0x100012C88, symSize: 0x28 }
  - { offsetInCU: 0x3490A, offset: 0x3490A, size: 0x8, addend: 0x0, symName: __ZNSt3__116reverse_iteratorIPNS_4pairINS_12basic_stringIcNS_11char_traitsIcEENS_9allocatorIcEEEES7_EEEppB8ue170006Ev, symObjAddr: 0x11720, symBinAddr: 0x100012CD4, symSize: 0x20 }
  - { offsetInCU: 0x34930, offset: 0x34930, size: 0x8, addend: 0x0, symName: __ZNKSt3__116reverse_iteratorIPNS_4pairINS_12basic_stringIcNS_11char_traitsIcEENS_9allocatorIcEEEES7_EEE4baseB8ue170006Ev, symObjAddr: 0x11740, symBinAddr: 0x100012CF4, symSize: 0x18 }
  - { offsetInCU: 0x3495C, offset: 0x3495C, size: 0x8, addend: 0x0, symName: __ZNSt3__119__to_address_helperINS_16reverse_iteratorIPNS_4pairINS_12basic_stringIcNS_11char_traitsIcEENS_9allocatorIcEEEES8_EEEEvE6__callB8ue170006ERKSB_, symObjAddr: 0x117A0, symBinAddr: 0x100012D54, symSize: 0x38 }
  - { offsetInCU: 0x3497F, offset: 0x3497F, size: 0x8, addend: 0x0, symName: __ZNKSt3__116reverse_iteratorIPNS_4pairINS_12basic_stringIcNS_11char_traitsIcEENS_9allocatorIcEEEES7_EEEptB8ue170006Ev, symObjAddr: 0x117D8, symBinAddr: 0x100012D8C, symSize: 0x2C }
  - { offsetInCU: 0x349A5, offset: 0x349A5, size: 0x8, addend: 0x0, symName: __ZNSt3__116reverse_iteratorIPNS_4pairINS_12basic_stringIcNS_11char_traitsIcEENS_9allocatorIcEEEES7_EEEC2B8ue170006ES9_, symObjAddr: 0x118A8, symBinAddr: 0x100012E5C, symSize: 0x28 }
  - { offsetInCU: 0x349DD, offset: 0x349DD, size: 0x8, addend: 0x0, symName: __ZNSt3__118__unwrap_iter_implIPNS_4pairINS_12basic_stringIcNS_11char_traitsIcEENS_9allocatorIcEEEES7_EELb1EE8__unwrapB8ue170006ES9_, symObjAddr: 0x118D0, symBinAddr: 0x100012E84, symSize: 0x24 }
  - { offsetInCU: 0x34A00, offset: 0x34A00, size: 0x8, addend: 0x0, symName: __ZNSt3__118__unwrap_iter_implIPNS_4pairINS_12basic_stringIcNS_11char_traitsIcEENS_9allocatorIcEEEES7_EELb1EE8__rewrapB8ue170006ES9_S9_, symObjAddr: 0x118F4, symBinAddr: 0x100012EA8, symSize: 0x58 }
  - { offsetInCU: 0x34A31, offset: 0x34A31, size: 0x8, addend: 0x0, symName: __ZNSt3__16vectorINS_4pairINS_12basic_stringIcNS_11char_traitsIcEENS_9allocatorIcEEEES7_EENS5_IS8_EEE21_ConstructTransactionD2B8ue170006Ev, symObjAddr: 0x1194C, symBinAddr: 0x100012F00, symSize: 0x20 }
  - { offsetInCU: 0x34A5B, offset: 0x34A5B, size: 0x8, addend: 0x0, symName: __ZNSt3__128__exception_guard_exceptionsINS_6vectorINS_4pairINS_12basic_stringIcNS_11char_traitsIcEENS_9allocatorIcEEEES8_EENS6_IS9_EEE16__destroy_vectorEED2B8ue170006Ev, symObjAddr: 0x1196C, symBinAddr: 0x100012F20, symSize: 0x50 }
  - { offsetInCU: 0x34A85, offset: 0x34A85, size: 0x8, addend: 0x0, symName: __ZNSt3__16vectorINS_4pairINS_12basic_stringIcNS_11char_traitsIcEENS_9allocatorIcEEEES7_EENS5_IS8_EEE16__destroy_vectorclB8ue170006Ev, symObjAddr: 0x119BC, symBinAddr: 0x100012F70, symSize: 0x90 }
  - { offsetInCU: 0x34AAB, offset: 0x34AAB, size: 0x8, addend: 0x0, symName: __ZNSt3__16vectorINS_4pairINS_12basic_stringIcNS_11char_traitsIcEENS_9allocatorIcEEEES7_EENS5_IS8_EEE7__clearB8ue170006Ev, symObjAddr: 0x11A4C, symBinAddr: 0x100013000, symSize: 0x28 }
  - { offsetInCU: 0x34AD1, offset: 0x34AD1, size: 0x8, addend: 0x0, symName: __ZNKSt3__16vectorINS_4pairINS_12basic_stringIcNS_11char_traitsIcEENS_9allocatorIcEEEES7_EENS5_IS8_EEE17__annotate_deleteB8ue170006Ev, symObjAddr: 0x11A74, symBinAddr: 0x100013028, symSize: 0xD4 }
  - { offsetInCU: 0x34AF7, offset: 0x34AF7, size: 0x8, addend: 0x0, symName: __ZNSt3__116allocator_traitsINS_9allocatorINS_4pairINS_12basic_stringIcNS_11char_traitsIcEENS1_IcEEEES7_EEEEE10deallocateB8ue170006ERS9_PS8_m, symObjAddr: 0x11B48, symBinAddr: 0x1000130FC, symSize: 0x34 }
  - { offsetInCU: 0x34B39, offset: 0x34B39, size: 0x8, addend: 0x0, symName: __ZNSt3__16vectorINS_4pairINS_12basic_stringIcNS_11char_traitsIcEENS_9allocatorIcEEEES7_EENS5_IS8_EEE22__base_destruct_at_endB8ue170006EPS8_, symObjAddr: 0x11B7C, symBinAddr: 0x100013130, symSize: 0x8C }
  - { offsetInCU: 0x34B7D, offset: 0x34B7D, size: 0x8, addend: 0x0, symName: __ZNKSt3__16vectorINS_4pairINS_12basic_stringIcNS_11char_traitsIcEENS_9allocatorIcEEEES7_EENS5_IS8_EEE4sizeB8ue170006Ev, symObjAddr: 0x11C08, symBinAddr: 0x1000131BC, symSize: 0x28 }
  - { offsetInCU: 0x34BA3, offset: 0x34BA3, size: 0x8, addend: 0x0, symName: __ZNSt3__19allocatorINS_4pairINS_12basic_stringIcNS_11char_traitsIcEENS0_IcEEEES6_EEE10deallocateB8ue170006EPS7_m, symObjAddr: 0x11C30, symBinAddr: 0x1000131E4, symSize: 0x44 }
  - { offsetInCU: 0x34BE5, offset: 0x34BE5, size: 0x8, addend: 0x0, symName: __ZNSt3__16vectorINS_4pairINS_12basic_stringIcNS_11char_traitsIcEENS_9allocatorIcEEEES7_EENS5_IS8_EEE11__make_iterB8ue170006EPS8_, symObjAddr: 0x11C74, symBinAddr: 0x100013228, symSize: 0x30 }
  - { offsetInCU: 0x34C1A, offset: 0x34C1A, size: 0x8, addend: 0x0, symName: __ZNSt3__111__wrap_iterIPNS_4pairINS_12basic_stringIcNS_11char_traitsIcEENS_9allocatorIcEEEES7_EEEC1B8ue170006ES9_, symObjAddr: 0x11CA4, symBinAddr: 0x100013258, symSize: 0x34 }
  - { offsetInCU: 0x34C52, offset: 0x34C52, size: 0x8, addend: 0x0, symName: __ZNSt3__111__wrap_iterIPNS_4pairINS_12basic_stringIcNS_11char_traitsIcEENS_9allocatorIcEEEES7_EEEC2B8ue170006ES9_, symObjAddr: 0x11CD8, symBinAddr: 0x10001328C, symSize: 0x20 }
  - { offsetInCU: 0x34C8A, offset: 0x34C8A, size: 0x8, addend: 0x0, symName: __ZNKSt3__111__wrap_iterIPNS_4pairINS_12basic_stringIcNS_11char_traitsIcEENS_9allocatorIcEEEES7_EEE4baseB8ue170006Ev, symObjAddr: 0x11D40, symBinAddr: 0x1000132F4, symSize: 0x18 }
  - { offsetInCU: 0x34CB0, offset: 0x34CB0, size: 0x8, addend: 0x0, symName: __ZNSt3__110__get_pairILm0EE3getB8ue170006INS_12basic_stringIcNS_11char_traitsIcEENS_9allocatorIcEEEES8_EERT_RNS_4pairIS9_T0_EE, symObjAddr: 0x11D58, symBinAddr: 0x10001330C, symSize: 0x14 }
  - { offsetInCU: 0x34CE6, offset: 0x34CE6, size: 0x8, addend: 0x0, symName: __ZNSt3__110__get_pairILm1EE3getB8ue170006INS_12basic_stringIcNS_11char_traitsIcEENS_9allocatorIcEEEES8_EERT0_RNS_4pairIT_S9_EE, symObjAddr: 0x11D6C, symBinAddr: 0x100013320, symSize: 0x18 }
  - { offsetInCU: 0x34D1C, offset: 0x34D1C, size: 0x8, addend: 0x0, symName: __ZN9data_nodeC2ERKNSt3__112basic_stringIcNS0_11char_traitsIcEENS0_9allocatorIcEEEES8_, symObjAddr: 0x11D84, symBinAddr: 0x100013338, symSize: 0x110 }
  - { offsetInCU: 0x34D62, offset: 0x34D62, size: 0x8, addend: 0x0, symName: __ZNSt3__112basic_stringIcNS_11char_traitsIcEENS_9allocatorIcEEEaSB8ue170006EOS5_, symObjAddr: 0x11E94, symBinAddr: 0x100013448, symSize: 0x34 }
  - { offsetInCU: 0x34D97, offset: 0x34D97, size: 0x8, addend: 0x0, symName: __ZNSt3__112basic_stringIcNS_11char_traitsIcEENS_9allocatorIcEEE13__move_assignB8ue170006ERS5_NS_17integral_constantIbLb1EEE, symObjAddr: 0x11EC8, symBinAddr: 0x10001347C, symSize: 0xC8 }
  - { offsetInCU: 0x34DD9, offset: 0x34DD9, size: 0x8, addend: 0x0, symName: __ZNSt3__116allocator_traitsINS_9allocatorIcEEE10deallocateB8ue170006ERS2_Pcm, symObjAddr: 0x11F90, symBinAddr: 0x100013544, symSize: 0x34 }
  - { offsetInCU: 0x34E1B, offset: 0x34E1B, size: 0x8, addend: 0x0, symName: __ZNSt3__112basic_stringIcNS_11char_traitsIcEENS_9allocatorIcEEE7__allocB8ue170006Ev, symObjAddr: 0x11FC4, symBinAddr: 0x100013578, symSize: 0x24 }
  - { offsetInCU: 0x34E41, offset: 0x34E41, size: 0x8, addend: 0x0, symName: __ZNSt3__112basic_stringIcNS_11char_traitsIcEENS_9allocatorIcEEE18__get_long_pointerB8ue170006Ev, symObjAddr: 0x11FE8, symBinAddr: 0x10001359C, symSize: 0x28 }
  - { offsetInCU: 0x34E67, offset: 0x34E67, size: 0x8, addend: 0x0, symName: __ZNKSt3__112basic_stringIcNS_11char_traitsIcEENS_9allocatorIcEEE14__get_long_capB8ue170006Ev, symObjAddr: 0x12010, symBinAddr: 0x1000135C4, symSize: 0x30 }
  - { offsetInCU: 0x34E8D, offset: 0x34E8D, size: 0x8, addend: 0x0, symName: __ZNSt3__112basic_stringIcNS_11char_traitsIcEENS_9allocatorIcEEE19__move_assign_allocB8ue170006ERS5_, symObjAddr: 0x12040, symBinAddr: 0x1000135F4, symSize: 0x2C }
  - { offsetInCU: 0x34EC2, offset: 0x34EC2, size: 0x8, addend: 0x0, symName: __ZNSt3__112basic_stringIcNS_11char_traitsIcEENS_9allocatorIcEEE16__set_short_sizeB8ue170006Em, symObjAddr: 0x1206C, symBinAddr: 0x100013620, symSize: 0x78 }
  - { offsetInCU: 0x34EF7, offset: 0x34EF7, size: 0x8, addend: 0x0, symName: __ZNSt3__111char_traitsIcE6assignB8ue170006ERcRKc, symObjAddr: 0x120E4, symBinAddr: 0x100013698, symSize: 0x24 }
  - { offsetInCU: 0x34F28, offset: 0x34F28, size: 0x8, addend: 0x0, symName: __ZNSt3__112basic_stringIcNS_11char_traitsIcEENS_9allocatorIcEEE19__get_short_pointerB8ue170006Ev, symObjAddr: 0x12108, symBinAddr: 0x1000136BC, symSize: 0x28 }
  - { offsetInCU: 0x34F4E, offset: 0x34F4E, size: 0x8, addend: 0x0, symName: __ZNSt3__19allocatorIcE10deallocateB8ue170006EPcm, symObjAddr: 0x12130, symBinAddr: 0x1000136E4, symSize: 0x40 }
  - { offsetInCU: 0x34F90, offset: 0x34F90, size: 0x8, addend: 0x0, symName: __ZNSt3__117__compressed_pairINS_12basic_stringIcNS_11char_traitsIcEENS_9allocatorIcEEE5__repES5_E6secondB8ue170006Ev, symObjAddr: 0x12170, symBinAddr: 0x100013724, symSize: 0x24 }
  - { offsetInCU: 0x34FB6, offset: 0x34FB6, size: 0x8, addend: 0x0, symName: __ZNSt3__122__compressed_pair_elemINS_9allocatorIcEELi1ELb1EE5__getB8ue170006Ev, symObjAddr: 0x12194, symBinAddr: 0x100013748, symSize: 0x14 }
  - { offsetInCU: 0x34FDC, offset: 0x34FDC, size: 0x8, addend: 0x0, symName: __ZNSt3__112basic_stringIcNS_11char_traitsIcEENS_9allocatorIcEEE19__move_assign_allocB8ue170006ERS5_NS_17integral_constantIbLb1EEE, symObjAddr: 0x121A8, symBinAddr: 0x10001375C, symSize: 0x38 }
  - { offsetInCU: 0x3501C, offset: 0x3501C, size: 0x8, addend: 0x0, symName: __ZNSt3__114pointer_traitsIPcE10pointer_toB8ue170006ERc, symObjAddr: 0x121E0, symBinAddr: 0x100013794, symSize: 0x14 }
  - { offsetInCU: 0x3503F, offset: 0x3503F, size: 0x8, addend: 0x0, symName: __ZN4Ring18get_node_locationsEP9data_nodei, symObjAddr: 0x121F4, symBinAddr: 0x1000137A8, symSize: 0x2CC }
  - { offsetInCU: 0x350CB, offset: 0x350CB, size: 0x8, addend: 0x0, symName: __ZNSt3__16vectorIP4NodeNS_9allocatorIS2_EEEixB8ue170006Em, symObjAddr: 0x124C0, symBinAddr: 0x100013A74, symSize: 0x24 }
  - { offsetInCU: 0x35102, offset: 0x35102, size: 0x8, addend: 0x0, symName: __ZNSt3__113unordered_mapINS_12basic_stringIcNS_11char_traitsIcEENS_9allocatorIcEEEE9data_nodeNS_4hashIS6_EENS_8equal_toIS6_EENS4_INS_4pairIKS6_S7_EEEEE7emplaceB8ue170006IJRS6_RS7_EEENSC_INS_19__hash_map_iteratorINS_15__hash_iteratorIPNS_11__hash_nodeINS_17__hash_value_typeIS6_S7_EEPvEEEEEEbEEDpOT_, symObjAddr: 0x124E4, symBinAddr: 0x100013A98, symSize: 0x54 }
  - { offsetInCU: 0x35156, offset: 0x35156, size: 0x8, addend: 0x0, symName: __ZNSt3__16vectorIP4NodeNS_9allocatorIS2_EEE5frontB8ue170006Ev, symObjAddr: 0x12538, symBinAddr: 0x100013AEC, symSize: 0x18 }
  - { offsetInCU: 0x3517C, offset: 0x3517C, size: 0x8, addend: 0x0, symName: __ZNSt3__16vectorIP4NodeNS_9allocatorIS2_EEEC1B8ue170006Ev, symObjAddr: 0x12550, symBinAddr: 0x100013B04, symSize: 0x2C }
  - { offsetInCU: 0x352D7, offset: 0x352D7, size: 0x8, addend: 0x0, symName: __ZNSt3__13setIP4NodeNS_4lessIS2_EENS_9allocatorIS2_EEEC1B8ue170006Ev, symObjAddr: 0x1257C, symBinAddr: 0x100013B30, symSize: 0x2C }
  - { offsetInCU: 0x35301, offset: 0x35301, size: 0x8, addend: 0x0, symName: __ZNKSt3__13mapINS_5arrayIhLm16EEEP4NodeNS_4lessIS2_EENS_9allocatorINS_4pairIKS2_S4_EEEEE5emptyB8ue170006Ev, symObjAddr: 0x125D4, symBinAddr: 0x100013B88, symSize: 0x34 }
  - { offsetInCU: 0x35327, offset: 0x35327, size: 0x8, addend: 0x0, symName: __ZNSt3__13mapINS_5arrayIhLm16EEEP4NodeNS_4lessIS2_EENS_9allocatorINS_4pairIKS2_S4_EEEEE11upper_boundB8ue170006ERS9_, symObjAddr: 0x12608, symBinAddr: 0x100013BBC, symSize: 0x40 }
  - { offsetInCU: 0x3535C, offset: 0x3535C, size: 0x8, addend: 0x0, symName: __ZNKSt3__13setIP4NodeNS_4lessIS2_EENS_9allocatorIS2_EEE4sizeB8ue170006Ev, symObjAddr: 0x12678, symBinAddr: 0x100013C2C, symSize: 0x28 }
  - { offsetInCU: 0x35382, offset: 0x35382, size: 0x8, addend: 0x0, symName: __ZNKSt3__114__map_iteratorINS_15__tree_iteratorINS_12__value_typeINS_5arrayIhLm16EEEP4NodeEEPNS_11__tree_nodeIS7_PvEElEEEptB8ue170006Ev, symObjAddr: 0x126A0, symBinAddr: 0x100013C54, symSize: 0x2C }
  - { offsetInCU: 0x353A8, offset: 0x353A8, size: 0x8, addend: 0x0, symName: __ZNKSt3__13setIP4NodeNS_4lessIS2_EENS_9allocatorIS2_EEE8containsB8ue170006ERKS2_, symObjAddr: 0x126CC, symBinAddr: 0x100013C80, symSize: 0x60 }
  - { offsetInCU: 0x353DD, offset: 0x353DD, size: 0x8, addend: 0x0, symName: __ZNSt3__16vectorIP4NodeNS_9allocatorIS2_EEE9push_backB8ue170006ERKS2_, symObjAddr: 0x1272C, symBinAddr: 0x100013CE0, symSize: 0x6C }
  - { offsetInCU: 0x35414, offset: 0x35414, size: 0x8, addend: 0x0, symName: __ZNSt3__13setIP4NodeNS_4lessIS2_EENS_9allocatorIS2_EEE6insertB8ue170006ERKS2_, symObjAddr: 0x12798, symBinAddr: 0x100013D4C, symSize: 0x4C }
  - { offsetInCU: 0x35449, offset: 0x35449, size: 0x8, addend: 0x0, symName: __ZNSt3__114__map_iteratorINS_15__tree_iteratorINS_12__value_typeINS_5arrayIhLm16EEEP4NodeEEPNS_11__tree_nodeIS7_PvEElEEEppB8ue170006Ei, symObjAddr: 0x127E4, symBinAddr: 0x100013D98, symSize: 0x34 }
  - { offsetInCU: 0x35489, offset: 0x35489, size: 0x8, addend: 0x0, symName: __ZNSt3__13setIP4NodeNS_4lessIS2_EENS_9allocatorIS2_EEED1B8ue170006Ev, symObjAddr: 0x12818, symBinAddr: 0x100013DCC, symSize: 0x2C }
  - { offsetInCU: 0x354B3, offset: 0x354B3, size: 0x8, addend: 0x0, symName: __ZNSt3__16vectorIP4NodeNS_9allocatorIS2_EEEC2B8ue170006Ev, symObjAddr: 0x12844, symBinAddr: 0x100013DF8, symSize: 0x4C }
  - { offsetInCU: 0x354DD, offset: 0x354DD, size: 0x8, addend: 0x0, symName: __ZNSt3__13setIP4NodeNS_4lessIS2_EENS_9allocatorIS2_EEEC2B8ue170006Ev, symObjAddr: 0x12890, symBinAddr: 0x100013E44, symSize: 0x30 }
  - { offsetInCU: 0x35507, offset: 0x35507, size: 0x8, addend: 0x0, symName: __ZNSt3__16__treeIP4NodeNS_4lessIS2_EENS_9allocatorIS2_EEEC1ERKS4_, symObjAddr: 0x128C0, symBinAddr: 0x100013E74, symSize: 0x34 }
  - { offsetInCU: 0x35542, offset: 0x35542, size: 0x8, addend: 0x0, symName: __ZNSt3__16__treeIP4NodeNS_4lessIS2_EENS_9allocatorIS2_EEEC2ERKS4_, symObjAddr: 0x128F4, symBinAddr: 0x100013EA8, symSize: 0x7C }
  - { offsetInCU: 0x3557D, offset: 0x3557D, size: 0x8, addend: 0x0, symName: __ZNSt3__117__compressed_pairINS_15__tree_end_nodeIPNS_16__tree_node_baseIPvEEEENS_9allocatorINS_11__tree_nodeIP4NodeS3_EEEEEC1B8ue170006ILb1EvEEv, symObjAddr: 0x12970, symBinAddr: 0x100013F24, symSize: 0x2C }
  - { offsetInCU: 0x355B2, offset: 0x355B2, size: 0x8, addend: 0x0, symName: __ZNSt3__117__compressed_pairImNS_4lessIP4NodeEEEC1B8ue170006IiRKS4_EEOT_OT0_, symObjAddr: 0x1299C, symBinAddr: 0x100013F50, symSize: 0x3C }
  - { offsetInCU: 0x3560A, offset: 0x3560A, size: 0x8, addend: 0x0, symName: __ZNSt3__16__treeIP4NodeNS_4lessIS2_EENS_9allocatorIS2_EEE10__end_nodeB8ue170006Ev, symObjAddr: 0x129D8, symBinAddr: 0x100013F8C, symSize: 0x2C }
  - { offsetInCU: 0x35630, offset: 0x35630, size: 0x8, addend: 0x0, symName: __ZNSt3__16__treeIP4NodeNS_4lessIS2_EENS_9allocatorIS2_EEE12__begin_nodeB8ue170006Ev, symObjAddr: 0x12A04, symBinAddr: 0x100013FB8, symSize: 0x14 }
  - { offsetInCU: 0x35656, offset: 0x35656, size: 0x8, addend: 0x0, symName: __ZNSt3__117__compressed_pairINS_15__tree_end_nodeIPNS_16__tree_node_baseIPvEEEENS_9allocatorINS_11__tree_nodeIP4NodeS3_EEEEEC2B8ue170006ILb1EvEEv, symObjAddr: 0x12A18, symBinAddr: 0x100013FCC, symSize: 0x34 }
  - { offsetInCU: 0x3568B, offset: 0x3568B, size: 0x8, addend: 0x0, symName: __ZNSt3__122__compressed_pair_elemINS_9allocatorINS_11__tree_nodeIP4NodePvEEEELi1ELb1EEC2B8ue170006ENS_16__value_init_tagE, symObjAddr: 0x12A4C, symBinAddr: 0x100014000, symSize: 0x2C }
  - { offsetInCU: 0x356BF, offset: 0x356BF, size: 0x8, addend: 0x0, symName: __ZNSt3__19allocatorINS_11__tree_nodeIP4NodePvEEEC2B8ue170006Ev, symObjAddr: 0x12A78, symBinAddr: 0x10001402C, symSize: 0x2C }
  - { offsetInCU: 0x356E9, offset: 0x356E9, size: 0x8, addend: 0x0, symName: __ZNSt3__116__non_trivial_ifILb1ENS_9allocatorINS_11__tree_nodeIP4NodePvEEEEEC2B8ue170006Ev, symObjAddr: 0x12AA4, symBinAddr: 0x100014058, symSize: 0x14 }
  - { offsetInCU: 0x35713, offset: 0x35713, size: 0x8, addend: 0x0, symName: __ZNSt3__117__compressed_pairImNS_4lessIP4NodeEEEC2B8ue170006IiRKS4_EEOT_OT0_, symObjAddr: 0x12AB8, symBinAddr: 0x10001406C, symSize: 0x44 }
  - { offsetInCU: 0x3576B, offset: 0x3576B, size: 0x8, addend: 0x0, symName: __ZNSt3__122__compressed_pair_elemINS_4lessIP4NodeEELi1ELb1EEC2B8ue170006IRKS4_vEEOT_, symObjAddr: 0x12AFC, symBinAddr: 0x1000140B0, symSize: 0x18 }
  - { offsetInCU: 0x357AD, offset: 0x357AD, size: 0x8, addend: 0x0, symName: __ZNSt3__117__compressed_pairINS_15__tree_end_nodeIPNS_16__tree_node_baseIPvEEEENS_9allocatorINS_11__tree_nodeIP4NodeS3_EEEEE5firstB8ue170006Ev, symObjAddr: 0x12B14, symBinAddr: 0x1000140C8, symSize: 0x24 }
  - { offsetInCU: 0x357D9, offset: 0x357D9, size: 0x8, addend: 0x0, symName: __ZNKSt3__16__lessIvvEclB8ue170006IiiEEbRKT_RKT0_, symObjAddr: 0x12B8C, symBinAddr: 0x100014140, symSize: 0x34 }
  - { offsetInCU: 0x3582D, offset: 0x3582D, size: 0x8, addend: 0x0, symName: __ZNKSt3__16__treeINS_12__value_typeINS_5arrayIhLm16EEEP4NodeEENS_19__map_value_compareIS3_S6_NS_4lessIS3_EELb1EEENS_9allocatorIS6_EEE4sizeB8ue170006Ev, symObjAddr: 0x12BC0, symBinAddr: 0x100014174, symSize: 0x28 }
  - { offsetInCU: 0x35853, offset: 0x35853, size: 0x8, addend: 0x0, symName: __ZNKSt3__117__compressed_pairImNS_19__map_value_compareINS_5arrayIhLm16EEENS_12__value_typeIS3_P4NodeEENS_4lessIS3_EELb1EEEE5firstB8ue170006Ev, symObjAddr: 0x12BE8, symBinAddr: 0x10001419C, symSize: 0x24 }
  - { offsetInCU: 0x35879, offset: 0x35879, size: 0x8, addend: 0x0, symName: __ZNKSt3__122__compressed_pair_elemImLi0ELb0EE5__getB8ue170006Ev, symObjAddr: 0x12C0C, symBinAddr: 0x1000141C0, symSize: 0x14 }
  - { offsetInCU: 0x3589F, offset: 0x3589F, size: 0x8, addend: 0x0, symName: __ZNSt3__16__treeINS_12__value_typeINS_5arrayIhLm16EEEP4NodeEENS_19__map_value_compareIS3_S6_NS_4lessIS3_EELb1EEENS_9allocatorIS6_EEE11upper_boundB8ue170006IS3_EENS_15__tree_iteratorIS6_PNS_11__tree_nodeIS6_PvEElEERKT_, symObjAddr: 0x12C20, symBinAddr: 0x1000141D4, symSize: 0x60 }
  - { offsetInCU: 0x358DD, offset: 0x358DD, size: 0x8, addend: 0x0, symName: __ZNSt3__16__treeINS_12__value_typeINS_5arrayIhLm16EEEP4NodeEENS_19__map_value_compareIS3_S6_NS_4lessIS3_EELb1EEENS_9allocatorIS6_EEE13__upper_boundIS3_EENS_15__tree_iteratorIS6_PNS_11__tree_nodeIS6_PvEElEERKT_SJ_PNS_15__tree_end_nodeIPNS_16__tree_node_baseISH_EEEE, symObjAddr: 0x12C80, symBinAddr: 0x100014234, symSize: 0xA4 }
  - { offsetInCU: 0x3593B, offset: 0x3593B, size: 0x8, addend: 0x0, symName: __ZNSt3__115__tree_iteratorINS_12__value_typeINS_5arrayIhLm16EEEP4NodeEEPNS_11__tree_nodeIS6_PvEElEC1B8ue170006EPNS_15__tree_end_nodeIPNS_16__tree_node_baseIS8_EEEE, symObjAddr: 0x12D24, symBinAddr: 0x1000142D8, symSize: 0x34 }
  - { offsetInCU: 0x35974, offset: 0x35974, size: 0x8, addend: 0x0, symName: __ZNSt3__115__tree_iteratorINS_12__value_typeINS_5arrayIhLm16EEEP4NodeEEPNS_11__tree_nodeIS6_PvEElEC2B8ue170006EPNS_15__tree_end_nodeIPNS_16__tree_node_baseIS8_EEEE, symObjAddr: 0x12D58, symBinAddr: 0x10001430C, symSize: 0x20 }
  - { offsetInCU: 0x359AD, offset: 0x359AD, size: 0x8, addend: 0x0, symName: __ZNKSt3__16__treeIP4NodeNS_4lessIS2_EENS_9allocatorIS2_EEE4sizeB8ue170006Ev, symObjAddr: 0x12DA8, symBinAddr: 0x10001435C, symSize: 0x28 }
  - { offsetInCU: 0x359D3, offset: 0x359D3, size: 0x8, addend: 0x0, symName: __ZNKSt3__117__compressed_pairImNS_4lessIP4NodeEEE5firstB8ue170006Ev, symObjAddr: 0x12DD0, symBinAddr: 0x100014384, symSize: 0x24 }
  - { offsetInCU: 0x359F9, offset: 0x359F9, size: 0x8, addend: 0x0, symName: __ZNSt3__114pointer_traitsIPNS_4pairIKNS_5arrayIhLm16EEEP4NodeEEE10pointer_toB8ue170006ERS7_, symObjAddr: 0x12DF4, symBinAddr: 0x1000143A8, symSize: 0x14 }
  - { offsetInCU: 0x35A1C, offset: 0x35A1C, size: 0x8, addend: 0x0, symName: __ZNKSt3__115__tree_iteratorINS_12__value_typeINS_5arrayIhLm16EEEP4NodeEEPNS_11__tree_nodeIS6_PvEElEptB8ue170006Ev, symObjAddr: 0x12E08, symBinAddr: 0x1000143BC, symSize: 0x2C }
  - { offsetInCU: 0x35A42, offset: 0x35A42, size: 0x8, addend: 0x0, symName: __ZNSt3__114pointer_traitsIPNS_12__value_typeINS_5arrayIhLm16EEEP4NodeEEE10pointer_toB8ue170006ERS6_, symObjAddr: 0x12E34, symBinAddr: 0x1000143E8, symSize: 0x14 }
  - { offsetInCU: 0x35A65, offset: 0x35A65, size: 0x8, addend: 0x0, symName: __ZNKSt3__115__tree_iteratorINS_12__value_typeINS_5arrayIhLm16EEEP4NodeEEPNS_11__tree_nodeIS6_PvEElE8__get_npB8ue170006Ev, symObjAddr: 0x12E48, symBinAddr: 0x1000143FC, symSize: 0x18 }
  - { offsetInCU: 0x35A8B, offset: 0x35A8B, size: 0x8, addend: 0x0, symName: __ZNKSt3__13setIP4NodeNS_4lessIS2_EENS_9allocatorIS2_EEE4findB8ue170006ERKS2_, symObjAddr: 0x12E94, symBinAddr: 0x100014448, symSize: 0x34 }
  - { offsetInCU: 0x35AC0, offset: 0x35AC0, size: 0x8, addend: 0x0, symName: __ZNKSt3__13setIP4NodeNS_4lessIS2_EENS_9allocatorIS2_EEE3endB8ue170006Ev, symObjAddr: 0x12EC8, symBinAddr: 0x10001447C, symSize: 0x2C }
  - { offsetInCU: 0x35AE6, offset: 0x35AE6, size: 0x8, addend: 0x0, symName: __ZNKSt3__16__treeIP4NodeNS_4lessIS2_EENS_9allocatorIS2_EEE4findIS2_EENS_21__tree_const_iteratorIS2_PNS_11__tree_nodeIS2_PvEElEERKT_, symObjAddr: 0x12F24, symBinAddr: 0x1000144D8, symSize: 0xF8 }
  - { offsetInCU: 0x35B35, offset: 0x35B35, size: 0x8, addend: 0x0, symName: __ZNKSt3__16__treeIP4NodeNS_4lessIS2_EENS_9allocatorIS2_EEE13__lower_boundIS2_EENS_21__tree_const_iteratorIS2_PNS_11__tree_nodeIS2_PvEElEERKT_SD_PNS_15__tree_end_nodeIPNS_16__tree_node_baseISB_EEEE, symObjAddr: 0x1301C, symBinAddr: 0x1000145D0, symSize: 0xA4 }
  - { offsetInCU: 0x35B93, offset: 0x35B93, size: 0x8, addend: 0x0, symName: __ZNKSt3__16__treeIP4NodeNS_4lessIS2_EENS_9allocatorIS2_EEE6__rootB8ue170006Ev, symObjAddr: 0x130C0, symBinAddr: 0x100014674, symSize: 0x28 }
  - { offsetInCU: 0x35BB9, offset: 0x35BB9, size: 0x8, addend: 0x0, symName: __ZNKSt3__16__treeIP4NodeNS_4lessIS2_EENS_9allocatorIS2_EEE10__end_nodeB8ue170006Ev, symObjAddr: 0x130E8, symBinAddr: 0x10001469C, symSize: 0x2C }
  - { offsetInCU: 0x35BDF, offset: 0x35BDF, size: 0x8, addend: 0x0, symName: __ZNKSt3__16__treeIP4NodeNS_4lessIS2_EENS_9allocatorIS2_EEE3endB8ue170006Ev, symObjAddr: 0x13114, symBinAddr: 0x1000146C8, symSize: 0x34 }
  - { offsetInCU: 0x35C05, offset: 0x35C05, size: 0x8, addend: 0x0, symName: __ZNKSt3__16__treeIP4NodeNS_4lessIS2_EENS_9allocatorIS2_EEE10value_compB8ue170006Ev, symObjAddr: 0x13148, symBinAddr: 0x1000146FC, symSize: 0x28 }
  - { offsetInCU: 0x35C2B, offset: 0x35C2B, size: 0x8, addend: 0x0, symName: __ZNKSt3__14lessIP4NodeEclB8ue170006ERKS2_S5_, symObjAddr: 0x13170, symBinAddr: 0x100014724, symSize: 0x34 }
  - { offsetInCU: 0x35C6F, offset: 0x35C6F, size: 0x8, addend: 0x0, symName: __ZNKSt3__121__tree_const_iteratorIP4NodePNS_11__tree_nodeIS2_PvEElEdeB8ue170006Ev, symObjAddr: 0x131A4, symBinAddr: 0x100014758, symSize: 0x28 }
  - { offsetInCU: 0x35C95, offset: 0x35C95, size: 0x8, addend: 0x0, symName: __ZNSt3__121__tree_const_iteratorIP4NodePNS_11__tree_nodeIS2_PvEElEC1B8ue170006EPNS_15__tree_end_nodeIPNS_16__tree_node_baseIS4_EEEE, symObjAddr: 0x131CC, symBinAddr: 0x100014780, symSize: 0x34 }
  - { offsetInCU: 0x35CCE, offset: 0x35CCE, size: 0x8, addend: 0x0, symName: __ZNSt3__121__tree_const_iteratorIP4NodePNS_11__tree_nodeIS2_PvEElEC2B8ue170006EPNS_15__tree_end_nodeIPNS_16__tree_node_baseIS4_EEEE, symObjAddr: 0x13200, symBinAddr: 0x1000147B4, symSize: 0x20 }
  - { offsetInCU: 0x35D07, offset: 0x35D07, size: 0x8, addend: 0x0, symName: __ZNKSt3__117__compressed_pairINS_15__tree_end_nodeIPNS_16__tree_node_baseIPvEEEENS_9allocatorINS_11__tree_nodeIP4NodeS3_EEEEE5firstB8ue170006Ev, symObjAddr: 0x13220, symBinAddr: 0x1000147D4, symSize: 0x24 }
  - { offsetInCU: 0x35D2D, offset: 0x35D2D, size: 0x8, addend: 0x0, symName: __ZNKSt3__117__compressed_pairImNS_4lessIP4NodeEEE6secondB8ue170006Ev, symObjAddr: 0x13244, symBinAddr: 0x1000147F8, symSize: 0x24 }
  - { offsetInCU: 0x35D53, offset: 0x35D53, size: 0x8, addend: 0x0, symName: __ZNKSt3__122__compressed_pair_elemINS_4lessIP4NodeEELi1ELb1EE5__getB8ue170006Ev, symObjAddr: 0x13268, symBinAddr: 0x10001481C, symSize: 0x14 }
  - { offsetInCU: 0x35D79, offset: 0x35D79, size: 0x8, addend: 0x0, symName: __ZNKSt3__121__tree_const_iteratorIP4NodePNS_11__tree_nodeIS2_PvEElE8__get_npB8ue170006Ev, symObjAddr: 0x1327C, symBinAddr: 0x100014830, symSize: 0x18 }
  - { offsetInCU: 0x35D9F, offset: 0x35D9F, size: 0x8, addend: 0x0, symName: __ZNSt3__16vectorIP4NodeNS_9allocatorIS2_EEE22__construct_one_at_endB8ue170006IJRKS2_EEEvDpOT_, symObjAddr: 0x13294, symBinAddr: 0x100014848, symSize: 0x90 }
  - { offsetInCU: 0x35DEE, offset: 0x35DEE, size: 0x8, addend: 0x0, symName: __ZNSt3__16vectorIP4NodeNS_9allocatorIS2_EEE21__push_back_slow_pathIRKS2_EEvOT_, symObjAddr: 0x13324, symBinAddr: 0x1000148D8, symSize: 0xD8 }
  - { offsetInCU: 0x35E4C, offset: 0x35E4C, size: 0x8, addend: 0x0, symName: __ZNSt3__116allocator_traitsINS_9allocatorIP4NodeEEE9constructB8ue170006IS3_JRKS3_EvvEEvRS4_PT_DpOT0_, symObjAddr: 0x133FC, symBinAddr: 0x1000149B0, symSize: 0x30 }
  - { offsetInCU: 0x35EA0, offset: 0x35EA0, size: 0x8, addend: 0x0, symName: __ZNKSt3__16vectorIP4NodeNS_9allocatorIS2_EEE11__recommendB8ue170006Em, symObjAddr: 0x13458, symBinAddr: 0x100014A0C, symSize: 0xB4 }
  - { offsetInCU: 0x35EF5, offset: 0x35EF5, size: 0x8, addend: 0x0, symName: __ZNSt3__114__split_bufferIP4NodeRNS_9allocatorIS2_EEEC1EmmS5_, symObjAddr: 0x1350C, symBinAddr: 0x100014AC0, symSize: 0x44 }
  - { offsetInCU: 0x35F4B, offset: 0x35F4B, size: 0x8, addend: 0x0, symName: __ZNSt3__114__split_bufferIP4NodeRNS_9allocatorIS2_EEED1Ev, symObjAddr: 0x13660, symBinAddr: 0x100014C14, symSize: 0x2C }
  - { offsetInCU: 0x35F77, offset: 0x35F77, size: 0x8, addend: 0x0, symName: __ZNSt3__114__split_bufferIP4NodeRNS_9allocatorIS2_EEEC2EmmS5_, symObjAddr: 0x1368C, symBinAddr: 0x100014C40, symSize: 0xD4 }
  - { offsetInCU: 0x35FEA, offset: 0x35FEA, size: 0x8, addend: 0x0, symName: __ZNSt3__117__compressed_pairIPP4NodeRNS_9allocatorIS2_EEEC1B8ue170006IDnS6_EEOT_OT0_, symObjAddr: 0x13760, symBinAddr: 0x100014D14, symSize: 0x3C }
  - { offsetInCU: 0x36042, offset: 0x36042, size: 0x8, addend: 0x0, symName: __ZNSt3__114__split_bufferIP4NodeRNS_9allocatorIS2_EEE7__allocB8ue170006Ev, symObjAddr: 0x1379C, symBinAddr: 0x100014D50, symSize: 0x28 }
  - { offsetInCU: 0x36068, offset: 0x36068, size: 0x8, addend: 0x0, symName: __ZNSt3__114__split_bufferIP4NodeRNS_9allocatorIS2_EEE9__end_capB8ue170006Ev, symObjAddr: 0x137C4, symBinAddr: 0x100014D78, symSize: 0x28 }
  - { offsetInCU: 0x3608E, offset: 0x3608E, size: 0x8, addend: 0x0, symName: __ZNSt3__117__compressed_pairIPP4NodeRNS_9allocatorIS2_EEEC2B8ue170006IDnS6_EEOT_OT0_, symObjAddr: 0x137EC, symBinAddr: 0x100014DA0, symSize: 0x48 }
  - { offsetInCU: 0x360E6, offset: 0x360E6, size: 0x8, addend: 0x0, symName: __ZNSt3__122__compressed_pair_elemIRNS_9allocatorIP4NodeEELi1ELb0EEC2B8ue170006IS5_vEEOT_, symObjAddr: 0x13834, symBinAddr: 0x100014DE8, symSize: 0x20 }
  - { offsetInCU: 0x36128, offset: 0x36128, size: 0x8, addend: 0x0, symName: __ZNSt3__117__compressed_pairIPP4NodeRNS_9allocatorIS2_EEE6secondB8ue170006Ev, symObjAddr: 0x13854, symBinAddr: 0x100014E08, symSize: 0x28 }
  - { offsetInCU: 0x3614E, offset: 0x3614E, size: 0x8, addend: 0x0, symName: __ZNSt3__122__compressed_pair_elemIRNS_9allocatorIP4NodeEELi1ELb0EE5__getB8ue170006Ev, symObjAddr: 0x1387C, symBinAddr: 0x100014E30, symSize: 0x18 }
  - { offsetInCU: 0x36174, offset: 0x36174, size: 0x8, addend: 0x0, symName: __ZNSt3__117__compressed_pairIPP4NodeRNS_9allocatorIS2_EEE5firstB8ue170006Ev, symObjAddr: 0x13894, symBinAddr: 0x100014E48, symSize: 0x24 }
  - { offsetInCU: 0x3619A, offset: 0x3619A, size: 0x8, addend: 0x0, symName: __ZNSt3__116reverse_iteratorIPP4NodeEC1B8ue170006ES3_, symObjAddr: 0x13930, symBinAddr: 0x100014EE4, symSize: 0x34 }
  - { offsetInCU: 0x361D2, offset: 0x361D2, size: 0x8, addend: 0x0, symName: __ZNKSt3__116reverse_iteratorIPP4NodeE4baseB8ue170006Ev, symObjAddr: 0x13964, symBinAddr: 0x100014F18, symSize: 0x18 }
  - { offsetInCU: 0x36220, offset: 0x36220, size: 0x8, addend: 0x0, symName: __ZNKSt3__111__move_loopINS_17_ClassicAlgPolicyEEclB8ue170006INS_16reverse_iteratorIPP4NodeEES8_S8_EENS_4pairIT_T1_EESA_T0_SB_, symObjAddr: 0x13C70, symBinAddr: 0x100015224, symSize: 0xA0 }
  - { offsetInCU: 0x3628B, offset: 0x3628B, size: 0x8, addend: 0x0, symName: __ZNSt3__119__unwrap_range_implINS_16reverse_iteratorIPP4NodeEES5_E8__unwrapB8ue170006ES5_S5_, symObjAddr: 0x13E5C, symBinAddr: 0x100015410, symSize: 0x84 }
  - { offsetInCU: 0x362C2, offset: 0x362C2, size: 0x8, addend: 0x0, symName: __ZNSt3__14pairINS_16reverse_iteratorIPP4NodeEES5_EC1B8ue170006IS5_S5_LPv0EEEOT_OT0_, symObjAddr: 0x13EE0, symBinAddr: 0x100015494, symSize: 0x3C }
  - { offsetInCU: 0x36320, offset: 0x36320, size: 0x8, addend: 0x0, symName: __ZNSt3__14pairINS_16reverse_iteratorIPP4NodeEES5_EC2B8ue170006IS5_S5_LPv0EEEOT_OT0_, symObjAddr: 0x13F1C, symBinAddr: 0x1000154D0, symSize: 0x34 }
  - { offsetInCU: 0x36384, offset: 0x36384, size: 0x8, addend: 0x0, symName: __ZNSt3__18_IterOpsINS_17_ClassicAlgPolicyEE11__iter_moveB8ue170006IRNS_16reverse_iteratorIPP4NodeEEEENS_9enable_ifIXsr12is_referenceIDTdeclsr3stdE7declvalIRT_EEEEE5valueEDTclsr3stdE4movedeclsr3stdE7declvalISC_EEEEE4typeEOSB_, symObjAddr: 0x13F98, symBinAddr: 0x10001554C, symSize: 0x28 }
  - { offsetInCU: 0x363B0, offset: 0x363B0, size: 0x8, addend: 0x0, symName: __ZNKSt3__116reverse_iteratorIPP4NodeEdeB8ue170006Ev, symObjAddr: 0x13FC0, symBinAddr: 0x100015574, symSize: 0x28 }
  - { offsetInCU: 0x363E4, offset: 0x363E4, size: 0x8, addend: 0x0, symName: __ZNSt3__116reverse_iteratorIPP4NodeEppB8ue170006Ev, symObjAddr: 0x13FE8, symBinAddr: 0x10001559C, symSize: 0x20 }
  - { offsetInCU: 0x3640A, offset: 0x3640A, size: 0x8, addend: 0x0, symName: __ZNSt3__18_IterOpsINS_17_ClassicAlgPolicyEE25__validate_iter_referenceB8ue170006IRNS_16reverse_iteratorIPP4NodeEEEEvv, symObjAddr: 0x14008, symBinAddr: 0x1000155BC, symSize: 0x4 }
  - { offsetInCU: 0x36428, offset: 0x36428, size: 0x8, addend: 0x0, symName: __ZNSt3__118__unwrap_iter_implINS_16reverse_iteratorIPP4NodeEELb0EE8__unwrapB8ue170006ES5_, symObjAddr: 0x1400C, symBinAddr: 0x1000155C0, symSize: 0x24 }
  - { offsetInCU: 0x3644B, offset: 0x3644B, size: 0x8, addend: 0x0, symName: __ZNSt3__119__unwrap_range_implINS_16reverse_iteratorIPP4NodeEES5_E8__rewrapB8ue170006ES5_S5_, symObjAddr: 0x14030, symBinAddr: 0x1000155E4, symSize: 0x5C }
  - { offsetInCU: 0x3647C, offset: 0x3647C, size: 0x8, addend: 0x0, symName: __ZNSt3__118__unwrap_iter_implINS_16reverse_iteratorIPP4NodeEELb0EE8__rewrapB8ue170006ES5_S5_, symObjAddr: 0x1408C, symBinAddr: 0x100015640, symSize: 0x2C }
  - { offsetInCU: 0x364A9, offset: 0x364A9, size: 0x8, addend: 0x0, symName: __ZNSt3__116reverse_iteratorIPP4NodeEC2B8ue170006ES3_, symObjAddr: 0x140B8, symBinAddr: 0x10001566C, symSize: 0x28 }
  - { offsetInCU: 0x364E1, offset: 0x364E1, size: 0x8, addend: 0x0, symName: __ZNSt3__114__split_bufferIP4NodeRNS_9allocatorIS2_EEED2Ev, symObjAddr: 0x140E0, symBinAddr: 0x100015694, symSize: 0x8C }
  - { offsetInCU: 0x3650D, offset: 0x3650D, size: 0x8, addend: 0x0, symName: __ZNSt3__114__split_bufferIP4NodeRNS_9allocatorIS2_EEE5clearB8ue170006Ev, symObjAddr: 0x1416C, symBinAddr: 0x100015720, symSize: 0x28 }
  - { offsetInCU: 0x36533, offset: 0x36533, size: 0x8, addend: 0x0, symName: __ZNKSt3__114__split_bufferIP4NodeRNS_9allocatorIS2_EEE8capacityB8ue170006Ev, symObjAddr: 0x14194, symBinAddr: 0x100015748, symSize: 0x40 }
  - { offsetInCU: 0x36559, offset: 0x36559, size: 0x8, addend: 0x0, symName: __ZNSt3__114__split_bufferIP4NodeRNS_9allocatorIS2_EEE17__destruct_at_endB8ue170006EPS2_, symObjAddr: 0x141D4, symBinAddr: 0x100015788, symSize: 0x2C }
  - { offsetInCU: 0x3658D, offset: 0x3658D, size: 0x8, addend: 0x0, symName: __ZNSt3__114__split_bufferIP4NodeRNS_9allocatorIS2_EEE17__destruct_at_endB8ue170006EPS2_NS_17integral_constantIbLb0EEE, symObjAddr: 0x14200, symBinAddr: 0x1000157B4, symSize: 0x80 }
  - { offsetInCU: 0x365CD, offset: 0x365CD, size: 0x8, addend: 0x0, symName: __ZNKSt3__114__split_bufferIP4NodeRNS_9allocatorIS2_EEE9__end_capB8ue170006Ev, symObjAddr: 0x14280, symBinAddr: 0x100015834, symSize: 0x28 }
  - { offsetInCU: 0x365F3, offset: 0x365F3, size: 0x8, addend: 0x0, symName: __ZNKSt3__117__compressed_pairIPP4NodeRNS_9allocatorIS2_EEE5firstB8ue170006Ev, symObjAddr: 0x142A8, symBinAddr: 0x10001585C, symSize: 0x24 }
  - { offsetInCU: 0x36619, offset: 0x36619, size: 0x8, addend: 0x0, symName: __ZNSt3__16__treeIP4NodeNS_4lessIS2_EENS_9allocatorIS2_EEE15__insert_uniqueB8ue170006ERKS2_, symObjAddr: 0x142CC, symBinAddr: 0x100015880, symSize: 0x50 }
  - { offsetInCU: 0x3664E, offset: 0x3664E, size: 0x8, addend: 0x0, symName: __ZNSt3__14pairINS_21__tree_const_iteratorIP4NodePNS_11__tree_nodeIS3_PvEElEEbEC1B8ue170006INS_15__tree_iteratorIS3_S7_lEEbLS5_0EEEONS0_IT_T0_EE, symObjAddr: 0x1431C, symBinAddr: 0x1000158D0, symSize: 0x34 }
  - { offsetInCU: 0x3669F, offset: 0x3669F, size: 0x8, addend: 0x0, symName: __ZNSt3__16__treeIP4NodeNS_4lessIS2_EENS_9allocatorIS2_EEE25__emplace_unique_key_argsIS2_JRKS2_EEENS_4pairINS_15__tree_iteratorIS2_PNS_11__tree_nodeIS2_PvEElEEbEERKT_DpOT0_, symObjAddr: 0x14350, symBinAddr: 0x100015904, symSize: 0xF0 }
  - { offsetInCU: 0x3674B, offset: 0x3674B, size: 0x8, addend: 0x0, symName: __ZNSt3__122__tree_key_value_typesIP4NodeE9__get_keyB8ue170006ERKS2_, symObjAddr: 0x14440, symBinAddr: 0x1000159F4, symSize: 0x14 }
  - { offsetInCU: 0x3676F, offset: 0x3676F, size: 0x8, addend: 0x0, symName: __ZNSt3__16__treeIP4NodeNS_4lessIS2_EENS_9allocatorIS2_EEE12__find_equalIS2_EERPNS_16__tree_node_baseIPvEERPNS_15__tree_end_nodeISC_EERKT_, symObjAddr: 0x14454, symBinAddr: 0x100015A08, symSize: 0x184 }
  - { offsetInCU: 0x367DC, offset: 0x367DC, size: 0x8, addend: 0x0, symName: __ZNSt3__16__treeIP4NodeNS_4lessIS2_EENS_9allocatorIS2_EEE16__construct_nodeIJRKS2_EEENS_10unique_ptrINS_11__tree_nodeIS2_PvEENS_22__tree_node_destructorINS5_ISE_EEEEEEDpOT_, symObjAddr: 0x145D8, symBinAddr: 0x100015B8C, symSize: 0x110 }
  - { offsetInCU: 0x3683D, offset: 0x3683D, size: 0x8, addend: 0x0, symName: __ZNSt3__16__treeIP4NodeNS_4lessIS2_EENS_9allocatorIS2_EEE16__insert_node_atEPNS_15__tree_end_nodeIPNS_16__tree_node_baseIPvEEEERSC_SC_, symObjAddr: 0x146E8, symBinAddr: 0x100015C9C, symSize: 0xCC }
  - { offsetInCU: 0x36892, offset: 0x36892, size: 0x8, addend: 0x0, symName: __ZNKSt3__110unique_ptrINS_11__tree_nodeIP4NodePvEENS_22__tree_node_destructorINS_9allocatorIS5_EEEEE3getB8ue170006Ev, symObjAddr: 0x147B4, symBinAddr: 0x100015D68, symSize: 0x28 }
  - { offsetInCU: 0x368B8, offset: 0x368B8, size: 0x8, addend: 0x0, symName: __ZNSt3__110unique_ptrINS_11__tree_nodeIP4NodePvEENS_22__tree_node_destructorINS_9allocatorIS5_EEEEE7releaseB8ue170006Ev, symObjAddr: 0x147DC, symBinAddr: 0x100015D90, symSize: 0x44 }
  - { offsetInCU: 0x368ED, offset: 0x368ED, size: 0x8, addend: 0x0, symName: __ZNSt3__110unique_ptrINS_11__tree_nodeIP4NodePvEENS_22__tree_node_destructorINS_9allocatorIS5_EEEEED1B8ue170006Ev, symObjAddr: 0x14820, symBinAddr: 0x100015DD4, symSize: 0x2C }
  - { offsetInCU: 0x36917, offset: 0x36917, size: 0x8, addend: 0x0, symName: __ZNSt3__115__tree_iteratorIP4NodePNS_11__tree_nodeIS2_PvEElEC1B8ue170006ES6_, symObjAddr: 0x1484C, symBinAddr: 0x100015E00, symSize: 0x34 }
  - { offsetInCU: 0x36956, offset: 0x36956, size: 0x8, addend: 0x0, symName: __ZNSt3__14pairINS_15__tree_iteratorIP4NodePNS_11__tree_nodeIS3_PvEElEEbEC1B8ue170006IS8_RbLS5_0EEEOT_OT0_, symObjAddr: 0x14880, symBinAddr: 0x100015E34, symSize: 0x3C }
  - { offsetInCU: 0x369B4, offset: 0x369B4, size: 0x8, addend: 0x0, symName: __ZNKSt3__16__treeIP4NodeNS_4lessIS2_EENS_9allocatorIS2_EEE10__root_ptrB8ue170006Ev, symObjAddr: 0x148BC, symBinAddr: 0x100015E70, symSize: 0x24 }
  - { offsetInCU: 0x369DA, offset: 0x369DA, size: 0x8, addend: 0x0, symName: __ZNSt3__16__treeIP4NodeNS_4lessIS2_EENS_9allocatorIS2_EEE10value_compB8ue170006Ev, symObjAddr: 0x148E0, symBinAddr: 0x100015E94, symSize: 0x28 }
  - { offsetInCU: 0x36A00, offset: 0x36A00, size: 0x8, addend: 0x0, symName: __ZNSt3__117__compressed_pairImNS_4lessIP4NodeEEE6secondB8ue170006Ev, symObjAddr: 0x14908, symBinAddr: 0x100015EBC, symSize: 0x24 }
  - { offsetInCU: 0x36A26, offset: 0x36A26, size: 0x8, addend: 0x0, symName: __ZNSt3__122__compressed_pair_elemINS_4lessIP4NodeEELi1ELb1EE5__getB8ue170006Ev, symObjAddr: 0x1492C, symBinAddr: 0x100015EE0, symSize: 0x14 }
  - { offsetInCU: 0x36A4C, offset: 0x36A4C, size: 0x8, addend: 0x0, symName: __ZNSt3__16__treeIP4NodeNS_4lessIS2_EENS_9allocatorIS2_EEE12__node_allocB8ue170006Ev, symObjAddr: 0x14940, symBinAddr: 0x100015EF4, symSize: 0x28 }
  - { offsetInCU: 0x36A72, offset: 0x36A72, size: 0x8, addend: 0x0, symName: __ZNSt3__116allocator_traitsINS_9allocatorINS_11__tree_nodeIP4NodePvEEEEE8allocateB8ue170006ERS7_m, symObjAddr: 0x14968, symBinAddr: 0x100015F1C, symSize: 0x2C }
  - { offsetInCU: 0x36AA5, offset: 0x36AA5, size: 0x8, addend: 0x0, symName: __ZNSt3__122__tree_node_destructorINS_9allocatorINS_11__tree_nodeIP4NodePvEEEEEC1B8ue170006ERS7_b, symObjAddr: 0x14994, symBinAddr: 0x100015F48, symSize: 0x48 }
  - { offsetInCU: 0x36AF3, offset: 0x36AF3, size: 0x8, addend: 0x0, symName: __ZNSt3__110unique_ptrINS_11__tree_nodeIP4NodePvEENS_22__tree_node_destructorINS_9allocatorIS5_EEEEEC1B8ue170006ILb1EvEEPS5_NS_16__dependent_typeINS_27__unique_ptr_deleter_sfinaeIS9_EEXT_EE20__good_rval_ref_typeE, symObjAddr: 0x149DC, symBinAddr: 0x100015F90, symSize: 0x3C }
  - { offsetInCU: 0x36B44, offset: 0x36B44, size: 0x8, addend: 0x0, symName: __ZNSt3__116allocator_traitsINS_9allocatorINS_11__tree_nodeIP4NodePvEEEEE9constructB8ue170006IS4_JRKS4_EvvEEvRS7_PT_DpOT0_, symObjAddr: 0x14A18, symBinAddr: 0x100015FCC, symSize: 0x30 }
  - { offsetInCU: 0x36B98, offset: 0x36B98, size: 0x8, addend: 0x0, symName: __ZNSt3__122__tree_key_value_typesIP4NodeE9__get_ptrB8ue170006ERS2_, symObjAddr: 0x14A48, symBinAddr: 0x100015FFC, symSize: 0x14 }
  - { offsetInCU: 0x36BBC, offset: 0x36BBC, size: 0x8, addend: 0x0, symName: __ZNKSt3__110unique_ptrINS_11__tree_nodeIP4NodePvEENS_22__tree_node_destructorINS_9allocatorIS5_EEEEEptB8ue170006Ev, symObjAddr: 0x14A5C, symBinAddr: 0x100016010, symSize: 0x28 }
  - { offsetInCU: 0x36BE2, offset: 0x36BE2, size: 0x8, addend: 0x0, symName: __ZNSt3__110unique_ptrINS_11__tree_nodeIP4NodePvEENS_22__tree_node_destructorINS_9allocatorIS5_EEEEE11get_deleterB8ue170006Ev, symObjAddr: 0x14A84, symBinAddr: 0x100016038, symSize: 0x24 }
  - { offsetInCU: 0x36C08, offset: 0x36C08, size: 0x8, addend: 0x0, symName: __ZNSt3__117__compressed_pairINS_15__tree_end_nodeIPNS_16__tree_node_baseIPvEEEENS_9allocatorINS_11__tree_nodeIP4NodeS3_EEEEE6secondB8ue170006Ev, symObjAddr: 0x14AA8, symBinAddr: 0x10001605C, symSize: 0x24 }
  - { offsetInCU: 0x36C2E, offset: 0x36C2E, size: 0x8, addend: 0x0, symName: __ZNSt3__122__compressed_pair_elemINS_9allocatorINS_11__tree_nodeIP4NodePvEEEELi1ELb1EE5__getB8ue170006Ev, symObjAddr: 0x14ACC, symBinAddr: 0x100016080, symSize: 0x14 }
  - { offsetInCU: 0x36C54, offset: 0x36C54, size: 0x8, addend: 0x0, symName: __ZNSt3__19allocatorINS_11__tree_nodeIP4NodePvEEE8allocateB8ue170006Em, symObjAddr: 0x14AE0, symBinAddr: 0x100016094, symSize: 0x5C }
  - { offsetInCU: 0x36C93, offset: 0x36C93, size: 0x8, addend: 0x0, symName: __ZNSt3__116allocator_traitsINS_9allocatorINS_11__tree_nodeIP4NodePvEEEEE8max_sizeB8ue170006IS7_vvEEmRKS7_, symObjAddr: 0x14B3C, symBinAddr: 0x1000160F0, symSize: 0x28 }
  - { offsetInCU: 0x36CBE, offset: 0x36CBE, size: 0x8, addend: 0x0, symName: __ZNSt3__122__tree_node_destructorINS_9allocatorINS_11__tree_nodeIP4NodePvEEEEEC2B8ue170006ERS7_b, symObjAddr: 0x14B64, symBinAddr: 0x100016118, symSize: 0x38 }
  - { offsetInCU: 0x36D06, offset: 0x36D06, size: 0x8, addend: 0x0, symName: __ZNSt3__110unique_ptrINS_11__tree_nodeIP4NodePvEENS_22__tree_node_destructorINS_9allocatorIS5_EEEEEC2B8ue170006ILb1EvEEPS5_NS_16__dependent_typeINS_27__unique_ptr_deleter_sfinaeIS9_EEXT_EE20__good_rval_ref_typeE, symObjAddr: 0x14B9C, symBinAddr: 0x100016150, symSize: 0x48 }
  - { offsetInCU: 0x36D57, offset: 0x36D57, size: 0x8, addend: 0x0, symName: __ZNSt3__117__compressed_pairIPNS_11__tree_nodeIP4NodePvEENS_22__tree_node_destructorINS_9allocatorIS5_EEEEEC1B8ue170006IRS6_SA_EEOT_OT0_, symObjAddr: 0x14BE4, symBinAddr: 0x100016198, symSize: 0x3C }
  - { offsetInCU: 0x36DAF, offset: 0x36DAF, size: 0x8, addend: 0x0, symName: __ZNSt3__117__compressed_pairIPNS_11__tree_nodeIP4NodePvEENS_22__tree_node_destructorINS_9allocatorIS5_EEEEEC2B8ue170006IRS6_SA_EEOT_OT0_, symObjAddr: 0x14C20, symBinAddr: 0x1000161D4, symSize: 0x48 }
  - { offsetInCU: 0x36E07, offset: 0x36E07, size: 0x8, addend: 0x0, symName: __ZNSt3__122__compressed_pair_elemIPNS_11__tree_nodeIP4NodePvEELi0ELb0EEC2B8ue170006IRS6_vEEOT_, symObjAddr: 0x14C68, symBinAddr: 0x10001621C, symSize: 0x24 }
  - { offsetInCU: 0x36E49, offset: 0x36E49, size: 0x8, addend: 0x0, symName: __ZNSt3__122__compressed_pair_elemINS_22__tree_node_destructorINS_9allocatorINS_11__tree_nodeIP4NodePvEEEEEELi1ELb0EEC2B8ue170006IS9_vEEOT_, symObjAddr: 0x14C8C, symBinAddr: 0x100016240, symSize: 0x24 }
  - { offsetInCU: 0x36E8B, offset: 0x36E8B, size: 0x8, addend: 0x0, symName: __ZNKSt3__117__compressed_pairIPNS_11__tree_nodeIP4NodePvEENS_22__tree_node_destructorINS_9allocatorIS5_EEEEE5firstB8ue170006Ev, symObjAddr: 0x14CB0, symBinAddr: 0x100016264, symSize: 0x24 }
  - { offsetInCU: 0x36EB1, offset: 0x36EB1, size: 0x8, addend: 0x0, symName: __ZNKSt3__122__compressed_pair_elemIPNS_11__tree_nodeIP4NodePvEELi0ELb0EE5__getB8ue170006Ev, symObjAddr: 0x14CD4, symBinAddr: 0x100016288, symSize: 0x14 }
  - { offsetInCU: 0x36ED7, offset: 0x36ED7, size: 0x8, addend: 0x0, symName: __ZNSt3__117__compressed_pairIPNS_11__tree_nodeIP4NodePvEENS_22__tree_node_destructorINS_9allocatorIS5_EEEEE6secondB8ue170006Ev, symObjAddr: 0x14CE8, symBinAddr: 0x10001629C, symSize: 0x28 }
  - { offsetInCU: 0x36EFD, offset: 0x36EFD, size: 0x8, addend: 0x0, symName: __ZNSt3__122__compressed_pair_elemINS_22__tree_node_destructorINS_9allocatorINS_11__tree_nodeIP4NodePvEEEEEELi1ELb0EE5__getB8ue170006Ev, symObjAddr: 0x14D10, symBinAddr: 0x1000162C4, symSize: 0x14 }
  - { offsetInCU: 0x36F23, offset: 0x36F23, size: 0x8, addend: 0x0, symName: __ZNSt3__16__treeIP4NodeNS_4lessIS2_EENS_9allocatorIS2_EEE4sizeB8ue170006Ev, symObjAddr: 0x14D24, symBinAddr: 0x1000162D8, symSize: 0x28 }
  - { offsetInCU: 0x36F49, offset: 0x36F49, size: 0x8, addend: 0x0, symName: __ZNSt3__117__compressed_pairImNS_4lessIP4NodeEEE5firstB8ue170006Ev, symObjAddr: 0x14D4C, symBinAddr: 0x100016300, symSize: 0x24 }
  - { offsetInCU: 0x36F6F, offset: 0x36F6F, size: 0x8, addend: 0x0, symName: __ZNSt3__117__compressed_pairIPNS_11__tree_nodeIP4NodePvEENS_22__tree_node_destructorINS_9allocatorIS5_EEEEE5firstB8ue170006Ev, symObjAddr: 0x14D70, symBinAddr: 0x100016324, symSize: 0x24 }
  - { offsetInCU: 0x36F95, offset: 0x36F95, size: 0x8, addend: 0x0, symName: __ZNSt3__122__compressed_pair_elemIPNS_11__tree_nodeIP4NodePvEELi0ELb0EE5__getB8ue170006Ev, symObjAddr: 0x14D94, symBinAddr: 0x100016348, symSize: 0x14 }
  - { offsetInCU: 0x36FBB, offset: 0x36FBB, size: 0x8, addend: 0x0, symName: __ZNSt3__110unique_ptrINS_11__tree_nodeIP4NodePvEENS_22__tree_node_destructorINS_9allocatorIS5_EEEEED2B8ue170006Ev, symObjAddr: 0x14DA8, symBinAddr: 0x10001635C, symSize: 0x30 }
  - { offsetInCU: 0x36FE5, offset: 0x36FE5, size: 0x8, addend: 0x0, symName: __ZNSt3__110unique_ptrINS_11__tree_nodeIP4NodePvEENS_22__tree_node_destructorINS_9allocatorIS5_EEEEE5resetB8ue170006EPS5_, symObjAddr: 0x14DD8, symBinAddr: 0x10001638C, symSize: 0x78 }
  - { offsetInCU: 0x37029, offset: 0x37029, size: 0x8, addend: 0x0, symName: __ZNSt3__122__tree_node_destructorINS_9allocatorINS_11__tree_nodeIP4NodePvEEEEEclB8ue170006EPS6_, symObjAddr: 0x14E50, symBinAddr: 0x100016404, symSize: 0x90 }
  - { offsetInCU: 0x3705E, offset: 0x3705E, size: 0x8, addend: 0x0, symName: __ZNSt3__116allocator_traitsINS_9allocatorINS_11__tree_nodeIP4NodePvEEEEE7destroyB8ue170006IS4_vvEEvRS7_PT_, symObjAddr: 0x14EE0, symBinAddr: 0x100016494, symSize: 0x28 }
  - { offsetInCU: 0x37098, offset: 0x37098, size: 0x8, addend: 0x0, symName: __ZNSt3__116allocator_traitsINS_9allocatorINS_11__tree_nodeIP4NodePvEEEEE10deallocateB8ue170006ERS7_PS6_m, symObjAddr: 0x14F08, symBinAddr: 0x1000164BC, symSize: 0x34 }
  - { offsetInCU: 0x370DA, offset: 0x370DA, size: 0x8, addend: 0x0, symName: __ZNSt3__19allocatorINS_11__tree_nodeIP4NodePvEEE10deallocateB8ue170006EPS5_m, symObjAddr: 0x14F3C, symBinAddr: 0x1000164F0, symSize: 0x44 }
  - { offsetInCU: 0x3711C, offset: 0x3711C, size: 0x8, addend: 0x0, symName: __ZNSt3__115__tree_iteratorIP4NodePNS_11__tree_nodeIS2_PvEElEC2B8ue170006ES6_, symObjAddr: 0x14F80, symBinAddr: 0x100016534, symSize: 0x20 }
  - { offsetInCU: 0x37155, offset: 0x37155, size: 0x8, addend: 0x0, symName: __ZNSt3__14pairINS_15__tree_iteratorIP4NodePNS_11__tree_nodeIS3_PvEElEEbEC2B8ue170006IS8_RbLS5_0EEEOT_OT0_, symObjAddr: 0x14FA0, symBinAddr: 0x100016554, symSize: 0x38 }
  - { offsetInCU: 0x371B3, offset: 0x371B3, size: 0x8, addend: 0x0, symName: __ZNSt3__14pairINS_21__tree_const_iteratorIP4NodePNS_11__tree_nodeIS3_PvEElEEbEC2B8ue170006INS_15__tree_iteratorIS3_S7_lEEbLS5_0EEEONS0_IT_T0_EE, symObjAddr: 0x14FD8, symBinAddr: 0x10001658C, symSize: 0x50 }
  - { offsetInCU: 0x37204, offset: 0x37204, size: 0x8, addend: 0x0, symName: __ZNSt3__121__tree_const_iteratorIP4NodePNS_11__tree_nodeIS2_PvEElEC1B8ue170006ENS_15__tree_iteratorIS2_S6_lEE, symObjAddr: 0x15028, symBinAddr: 0x1000165DC, symSize: 0x34 }
  - { offsetInCU: 0x3723D, offset: 0x3723D, size: 0x8, addend: 0x0, symName: __ZNSt3__121__tree_const_iteratorIP4NodePNS_11__tree_nodeIS2_PvEElEC2B8ue170006ENS_15__tree_iteratorIS2_S6_lEE, symObjAddr: 0x1505C, symBinAddr: 0x100016610, symSize: 0x20 }
  - { offsetInCU: 0x37276, offset: 0x37276, size: 0x8, addend: 0x0, symName: __ZNSt3__13setIP4NodeNS_4lessIS2_EENS_9allocatorIS2_EEED2B8ue170006Ev, symObjAddr: 0x1507C, symBinAddr: 0x100016630, symSize: 0x2C }
  - { offsetInCU: 0x372A0, offset: 0x372A0, size: 0x8, addend: 0x0, symName: __ZNSt3__16__treeIP4NodeNS_4lessIS2_EENS_9allocatorIS2_EEED1Ev, symObjAddr: 0x150A8, symBinAddr: 0x10001665C, symSize: 0x2C }
  - { offsetInCU: 0x372CC, offset: 0x372CC, size: 0x8, addend: 0x0, symName: __ZNSt3__16__treeIP4NodeNS_4lessIS2_EENS_9allocatorIS2_EEED2Ev, symObjAddr: 0x150D4, symBinAddr: 0x100016688, symSize: 0x38 }
  - { offsetInCU: 0x372F8, offset: 0x372F8, size: 0x8, addend: 0x0, symName: __ZNSt3__16__treeIP4NodeNS_4lessIS2_EENS_9allocatorIS2_EEE7destroyEPNS_11__tree_nodeIS2_PvEE, symObjAddr: 0x1510C, symBinAddr: 0x1000166C0, symSize: 0xA4 }
  - { offsetInCU: 0x37344, offset: 0x37344, size: 0x8, addend: 0x0, symName: __ZNSt3__112__hash_tableINS_17__hash_value_typeINS_12basic_stringIcNS_11char_traitsIcEENS_9allocatorIcEEEE9data_nodeEENS_22__unordered_map_hasherIS7_S9_NS_4hashIS7_EENS_8equal_toIS7_EELb1EEENS_21__unordered_map_equalIS7_S9_SE_SC_Lb1EEENS5_IS9_EEE16__emplace_uniqueB8ue170006IRS7_RS8_EENS_9enable_ifIXsr21__can_extract_map_keyIT_S7_NS_4pairIKS7_S8_EEEE5valueENSP_INS_15__hash_iteratorIPNS_11__hash_nodeIS9_PvEEEEbEEE4typeEOSO_OT0_, symObjAddr: 0x151B0, symBinAddr: 0x100016764, symSize: 0x48 }
  - { offsetInCU: 0x3739A, offset: 0x3739A, size: 0x8, addend: 0x0, symName: __ZNSt3__14pairINS_19__hash_map_iteratorINS_15__hash_iteratorIPNS_11__hash_nodeINS_17__hash_value_typeINS_12basic_stringIcNS_11char_traitsIcEENS_9allocatorIcEEEE9data_nodeEEPvEEEEEEbEC1B8ue170006ISG_bLSD_0EEEONS0_IT_T0_EE, symObjAddr: 0x151F8, symBinAddr: 0x1000167AC, symSize: 0x34 }
  - { offsetInCU: 0x373EB, offset: 0x373EB, size: 0x8, addend: 0x0, symName: __ZNSt3__112__hash_tableINS_17__hash_value_typeINS_12basic_stringIcNS_11char_traitsIcEENS_9allocatorIcEEEE9data_nodeEENS_22__unordered_map_hasherIS7_S9_NS_4hashIS7_EENS_8equal_toIS7_EELb1EEENS_21__unordered_map_equalIS7_S9_SE_SC_Lb1EEENS5_IS9_EEE25__emplace_unique_key_argsIS7_JRS7_RS8_EEENS_4pairINS_15__hash_iteratorIPNS_11__hash_nodeIS9_PvEEEEbEERKT_DpOT0_, symObjAddr: 0x1522C, symBinAddr: 0x1000167E0, symSize: 0x4E0 }
  - { offsetInCU: 0x374E0, offset: 0x374E0, size: 0x8, addend: 0x0, symName: __ZNSt3__112__hash_tableINS_17__hash_value_typeINS_12basic_stringIcNS_11char_traitsIcEENS_9allocatorIcEEEE9data_nodeEENS_22__unordered_map_hasherIS7_S9_NS_4hashIS7_EENS_8equal_toIS7_EELb1EEENS_21__unordered_map_equalIS7_S9_SE_SC_Lb1EEENS5_IS9_EEE13hash_functionB8ue170006Ev, symObjAddr: 0x1570C, symBinAddr: 0x100016CC0, symSize: 0x28 }
  - { offsetInCU: 0x37506, offset: 0x37506, size: 0x8, addend: 0x0, symName: __ZNKSt3__122__unordered_map_hasherINS_12basic_stringIcNS_11char_traitsIcEENS_9allocatorIcEEEENS_17__hash_value_typeIS6_9data_nodeEENS_4hashIS6_EENS_8equal_toIS6_EELb1EEclB8ue170006ERKS6_, symObjAddr: 0x15734, symBinAddr: 0x100016CE8, symSize: 0x2C }
  - { offsetInCU: 0x3753B, offset: 0x3753B, size: 0x8, addend: 0x0, symName: __ZNKSt3__112__hash_tableINS_17__hash_value_typeINS_12basic_stringIcNS_11char_traitsIcEENS_9allocatorIcEEEE9data_nodeEENS_22__unordered_map_hasherIS7_S9_NS_4hashIS7_EENS_8equal_toIS7_EELb1EEENS_21__unordered_map_equalIS7_S9_SE_SC_Lb1EEENS5_IS9_EEE12bucket_countB8ue170006Ev, symObjAddr: 0x15760, symBinAddr: 0x100016D14, symSize: 0x28 }
  - { offsetInCU: 0x37561, offset: 0x37561, size: 0x8, addend: 0x0, symName: __ZNKSt3__110unique_ptrIA_PNS_16__hash_node_baseIPNS_11__hash_nodeINS_17__hash_value_typeINS_12basic_stringIcNS_11char_traitsIcEENS_9allocatorIcEEEE9data_nodeEEPvEEEENS_25__bucket_list_deallocatorINS7_ISG_EEEEEixB8ue170006Em, symObjAddr: 0x15820, symBinAddr: 0x100016DD4, symSize: 0x34 }
  - { offsetInCU: 0x37596, offset: 0x37596, size: 0x8, addend: 0x0, symName: __ZNKSt3__116__hash_node_baseIPNS_11__hash_nodeINS_17__hash_value_typeINS_12basic_stringIcNS_11char_traitsIcEENS_9allocatorIcEEEE9data_nodeEEPvEEE6__hashB8ue170006Ev, symObjAddr: 0x15854, symBinAddr: 0x100016E08, symSize: 0x18 }
  - { offsetInCU: 0x375BC, offset: 0x375BC, size: 0x8, addend: 0x0, symName: __ZNSt3__112__hash_tableINS_17__hash_value_typeINS_12basic_stringIcNS_11char_traitsIcEENS_9allocatorIcEEEE9data_nodeEENS_22__unordered_map_hasherIS7_S9_NS_4hashIS7_EENS_8equal_toIS7_EELb1EEENS_21__unordered_map_equalIS7_S9_SE_SC_Lb1EEENS5_IS9_EEE6key_eqB8ue170006Ev, symObjAddr: 0x1586C, symBinAddr: 0x100016E20, symSize: 0x28 }
  - { offsetInCU: 0x375E2, offset: 0x375E2, size: 0x8, addend: 0x0, symName: __ZNKSt3__121__unordered_map_equalINS_12basic_stringIcNS_11char_traitsIcEENS_9allocatorIcEEEENS_17__hash_value_typeIS6_9data_nodeEENS_8equal_toIS6_EENS_4hashIS6_EELb1EEclB8ue170006ERKS9_RKS6_, symObjAddr: 0x15894, symBinAddr: 0x100016E48, symSize: 0x48 }
  - { offsetInCU: 0x37626, offset: 0x37626, size: 0x8, addend: 0x0, symName: __ZNSt3__112__hash_tableINS_17__hash_value_typeINS_12basic_stringIcNS_11char_traitsIcEENS_9allocatorIcEEEE9data_nodeEENS_22__unordered_map_hasherIS7_S9_NS_4hashIS7_EENS_8equal_toIS7_EELb1EEENS_21__unordered_map_equalIS7_S9_SE_SC_Lb1EEENS5_IS9_EEE21__construct_node_hashIRS7_JRS8_EEENS_10unique_ptrINS_11__hash_nodeIS9_PvEENS_22__hash_node_destructorINS5_ISQ_EEEEEEmOT_DpOT0_, symObjAddr: 0x158DC, symBinAddr: 0x100016E90, symSize: 0x148 }
  - { offsetInCU: 0x376AE, offset: 0x376AE, size: 0x8, addend: 0x0, symName: __ZNSt3__112__hash_tableINS_17__hash_value_typeINS_12basic_stringIcNS_11char_traitsIcEENS_9allocatorIcEEEE9data_nodeEENS_22__unordered_map_hasherIS7_S9_NS_4hashIS7_EENS_8equal_toIS7_EELb1EEENS_21__unordered_map_equalIS7_S9_SE_SC_Lb1EEENS5_IS9_EEE4sizeB8ue170006Ev, symObjAddr: 0x15A24, symBinAddr: 0x100016FD8, symSize: 0x28 }
  - { offsetInCU: 0x376D4, offset: 0x376D4, size: 0x8, addend: 0x0, symName: __ZNSt3__112__hash_tableINS_17__hash_value_typeINS_12basic_stringIcNS_11char_traitsIcEENS_9allocatorIcEEEE9data_nodeEENS_22__unordered_map_hasherIS7_S9_NS_4hashIS7_EENS_8equal_toIS7_EELb1EEENS_21__unordered_map_equalIS7_S9_SE_SC_Lb1EEENS5_IS9_EEE15max_load_factorB8ue170006Ev, symObjAddr: 0x15A4C, symBinAddr: 0x100017000, symSize: 0x28 }
  - { offsetInCU: 0x376FA, offset: 0x376FA, size: 0x8, addend: 0x0, symName: __ZNSt3__112__hash_tableINS_17__hash_value_typeINS_12basic_stringIcNS_11char_traitsIcEENS_9allocatorIcEEEE9data_nodeEENS_22__unordered_map_hasherIS7_S9_NS_4hashIS7_EENS_8equal_toIS7_EELb1EEENS_21__unordered_map_equalIS7_S9_SE_SC_Lb1EEENS5_IS9_EEE15__rehash_uniqueB8ue170006Em, symObjAddr: 0x15A74, symBinAddr: 0x100017028, symSize: 0x2C }
  - { offsetInCU: 0x3772E, offset: 0x3772E, size: 0x8, addend: 0x0, symName: __Z4ceilB8ue170006f, symObjAddr: 0x15AF0, symBinAddr: 0x1000170A4, symSize: 0x18 }
  - { offsetInCU: 0x3775D, offset: 0x3775D, size: 0x8, addend: 0x0, symName: __ZNSt3__116__hash_node_baseIPNS_11__hash_nodeINS_17__hash_value_typeINS_12basic_stringIcNS_11char_traitsIcEENS_9allocatorIcEEEE9data_nodeEEPvEEE5__ptrB8ue170006Ev, symObjAddr: 0x15B08, symBinAddr: 0x1000170BC, symSize: 0x24 }
  - { offsetInCU: 0x37783, offset: 0x37783, size: 0x8, addend: 0x0, symName: __ZNKSt3__110unique_ptrINS_11__hash_nodeINS_17__hash_value_typeINS_12basic_stringIcNS_11char_traitsIcEENS_9allocatorIcEEEE9data_nodeEEPvEENS_22__hash_node_destructorINS6_ISC_EEEEEptB8ue170006Ev, symObjAddr: 0x15B2C, symBinAddr: 0x1000170E0, symSize: 0x28 }
  - { offsetInCU: 0x377A9, offset: 0x377A9, size: 0x8, addend: 0x0, symName: __ZNKSt3__110unique_ptrINS_11__hash_nodeINS_17__hash_value_typeINS_12basic_stringIcNS_11char_traitsIcEENS_9allocatorIcEEEE9data_nodeEEPvEENS_22__hash_node_destructorINS6_ISC_EEEEE3getB8ue170006Ev, symObjAddr: 0x15B54, symBinAddr: 0x100017108, symSize: 0x28 }
  - { offsetInCU: 0x377CF, offset: 0x377CF, size: 0x8, addend: 0x0, symName: __ZNSt3__110unique_ptrINS_11__hash_nodeINS_17__hash_value_typeINS_12basic_stringIcNS_11char_traitsIcEENS_9allocatorIcEEEE9data_nodeEEPvEENS_22__hash_node_destructorINS6_ISC_EEEEE7releaseB8ue170006Ev, symObjAddr: 0x15B7C, symBinAddr: 0x100017130, symSize: 0x44 }
  - { offsetInCU: 0x37804, offset: 0x37804, size: 0x8, addend: 0x0, symName: __ZNSt3__110unique_ptrINS_11__hash_nodeINS_17__hash_value_typeINS_12basic_stringIcNS_11char_traitsIcEENS_9allocatorIcEEEE9data_nodeEEPvEENS_22__hash_node_destructorINS6_ISC_EEEEED1B8ue170006Ev, symObjAddr: 0x15BC0, symBinAddr: 0x100017174, symSize: 0x2C }
  - { offsetInCU: 0x3782E, offset: 0x3782E, size: 0x8, addend: 0x0, symName: __ZNSt3__115__hash_iteratorIPNS_11__hash_nodeINS_17__hash_value_typeINS_12basic_stringIcNS_11char_traitsIcEENS_9allocatorIcEEEE9data_nodeEEPvEEEC1B8ue170006EPNS_16__hash_node_baseISD_EE, symObjAddr: 0x15BEC, symBinAddr: 0x1000171A0, symSize: 0x34 }
  - { offsetInCU: 0x3786D, offset: 0x3786D, size: 0x8, addend: 0x0, symName: __ZNSt3__14pairINS_15__hash_iteratorIPNS_11__hash_nodeINS_17__hash_value_typeINS_12basic_stringIcNS_11char_traitsIcEENS_9allocatorIcEEEE9data_nodeEEPvEEEEbEC1B8ue170006ISF_RbLSC_0EEEOT_OT0_, symObjAddr: 0x15C20, symBinAddr: 0x1000171D4, symSize: 0x3C }
  - { offsetInCU: 0x378CB, offset: 0x378CB, size: 0x8, addend: 0x0, symName: __ZNSt3__117__compressed_pairImNS_22__unordered_map_hasherINS_12basic_stringIcNS_11char_traitsIcEENS_9allocatorIcEEEENS_17__hash_value_typeIS7_9data_nodeEENS_4hashIS7_EENS_8equal_toIS7_EELb1EEEE6secondB8ue170006Ev, symObjAddr: 0x15C5C, symBinAddr: 0x100017210, symSize: 0x24 }
  - { offsetInCU: 0x378F1, offset: 0x378F1, size: 0x8, addend: 0x0, symName: __ZNSt3__122__compressed_pair_elemINS_22__unordered_map_hasherINS_12basic_stringIcNS_11char_traitsIcEENS_9allocatorIcEEEENS_17__hash_value_typeIS7_9data_nodeEENS_4hashIS7_EENS_8equal_toIS7_EELb1EEELi1ELb1EE5__getB8ue170006Ev, symObjAddr: 0x15C80, symBinAddr: 0x100017234, symSize: 0x14 }
  - { offsetInCU: 0x37917, offset: 0x37917, size: 0x8, addend: 0x0, symName: __ZNKSt3__113__string_hashIcNS_9allocatorIcEEEclB8ue170006ERKNS_12basic_stringIcNS_11char_traitsIcEES2_EE, symObjAddr: 0x15C94, symBinAddr: 0x100017248, symSize: 0x64 }
  - { offsetInCU: 0x3794C, offset: 0x3794C, size: 0x8, addend: 0x0, symName: __ZNKSt3__121__murmur2_or_cityhashImLm64EEclB8ue170006EPKvm, symObjAddr: 0x15D34, symBinAddr: 0x1000172E8, symSize: 0x410 }
  - { offsetInCU: 0x379E6, offset: 0x379E6, size: 0x8, addend: 0x0, symName: __ZNSt3__121__murmur2_or_cityhashImLm64EE18__hash_len_0_to_16B8ue170006EPKcm, symObjAddr: 0x16144, symBinAddr: 0x1000176F8, symSize: 0x1C0 }
  - { offsetInCU: 0x37ABF, offset: 0x37ABF, size: 0x8, addend: 0x0, symName: __ZNSt3__121__murmur2_or_cityhashImLm64EE19__hash_len_17_to_32B8ue170006EPKcm, symObjAddr: 0x16304, symBinAddr: 0x1000178B8, symSize: 0x130 }
  - { offsetInCU: 0x37B28, offset: 0x37B28, size: 0x8, addend: 0x0, symName: __ZNSt3__121__murmur2_or_cityhashImLm64EE19__hash_len_33_to_64B8ue170006EPKcm, symObjAddr: 0x16434, symBinAddr: 0x1000179E8, symSize: 0x2B8 }
  - { offsetInCU: 0x37BDD, offset: 0x37BDD, size: 0x8, addend: 0x0, symName: __ZNSt3__121__murmur2_or_cityhashImLm64EE13__hash_len_16B8ue170006Emm, symObjAddr: 0x1670C, symBinAddr: 0x100017CC0, symSize: 0x80 }
  - { offsetInCU: 0x37C38, offset: 0x37C38, size: 0x8, addend: 0x0, symName: __ZNSt3__121__murmur2_or_cityhashImLm64EE29__weak_hash_len_32_with_seedsB8ue170006EPKcmm, symObjAddr: 0x1678C, symBinAddr: 0x100017D40, symSize: 0x88 }
  - { offsetInCU: 0x37C77, offset: 0x37C77, size: 0x8, addend: 0x0, symName: __ZNSt3__121__murmur2_or_cityhashImLm64EE8__rotateB8ue170006Emi, symObjAddr: 0x16814, symBinAddr: 0x100017DC8, symSize: 0x64 }
  - { offsetInCU: 0x37CA8, offset: 0x37CA8, size: 0x8, addend: 0x0, symName: __ZNSt3__14pairImmEaSB8ue170006EOS1_, symObjAddr: 0x16878, symBinAddr: 0x100017E2C, symSize: 0x30 }
  - { offsetInCU: 0x37CDD, offset: 0x37CDD, size: 0x8, addend: 0x0, symName: __ZNSt3__121__murmur2_or_cityhashImLm64EE11__shift_mixB8ue170006Em, symObjAddr: 0x168E4, symBinAddr: 0x100017E98, symSize: 0x1C }
  - { offsetInCU: 0x37D00, offset: 0x37D00, size: 0x8, addend: 0x0, symName: __ZNSt3__121__murmur2_or_cityhashImLm64EE22__rotate_by_at_least_1B8ue170006Emi, symObjAddr: 0x16900, symBinAddr: 0x100017EB4, symSize: 0x38 }
  - { offsetInCU: 0x37D31, offset: 0x37D31, size: 0x8, addend: 0x0, symName: __ZNSt3__121__murmur2_or_cityhashImLm64EE29__weak_hash_len_32_with_seedsB8ue170006Emmmmmm, symObjAddr: 0x16958, symBinAddr: 0x100017F0C, symSize: 0xD8 }
  - { offsetInCU: 0x37DAE, offset: 0x37DAE, size: 0x8, addend: 0x0, symName: __ZNSt3__14pairImmEC1B8ue170006ImmLPv0EEEOT_OT0_, symObjAddr: 0x16A30, symBinAddr: 0x100017FE4, symSize: 0x3C }
  - { offsetInCU: 0x37E0C, offset: 0x37E0C, size: 0x8, addend: 0x0, symName: __ZNSt3__14pairImmEC2B8ue170006ImmLPv0EEEOT_OT0_, symObjAddr: 0x16A6C, symBinAddr: 0x100018020, symSize: 0x34 }
  - { offsetInCU: 0x37E6A, offset: 0x37E6A, size: 0x8, addend: 0x0, symName: __ZNKSt3__110unique_ptrIA_PNS_16__hash_node_baseIPNS_11__hash_nodeINS_17__hash_value_typeINS_12basic_stringIcNS_11char_traitsIcEENS_9allocatorIcEEEE9data_nodeEEPvEEEENS_25__bucket_list_deallocatorINS7_ISG_EEEEE11get_deleterB8ue170006Ev, symObjAddr: 0x16AA0, symBinAddr: 0x100018054, symSize: 0x24 }
  - { offsetInCU: 0x37E90, offset: 0x37E90, size: 0x8, addend: 0x0, symName: __ZNKSt3__125__bucket_list_deallocatorINS_9allocatorIPNS_16__hash_node_baseIPNS_11__hash_nodeINS_17__hash_value_typeINS_12basic_stringIcNS_11char_traitsIcEENS1_IcEEEE9data_nodeEEPvEEEEEEE4sizeB8ue170006Ev, symObjAddr: 0x16AC4, symBinAddr: 0x100018078, symSize: 0x28 }
  - { offsetInCU: 0x37EB6, offset: 0x37EB6, size: 0x8, addend: 0x0, symName: __ZNKSt3__117__compressed_pairIPPNS_16__hash_node_baseIPNS_11__hash_nodeINS_17__hash_value_typeINS_12basic_stringIcNS_11char_traitsIcEENS_9allocatorIcEEEE9data_nodeEEPvEEEENS_25__bucket_list_deallocatorINS7_ISG_EEEEE6secondB8ue170006Ev, symObjAddr: 0x16AEC, symBinAddr: 0x1000180A0, symSize: 0x28 }
  - { offsetInCU: 0x37EDC, offset: 0x37EDC, size: 0x8, addend: 0x0, symName: __ZNKSt3__122__compressed_pair_elemINS_25__bucket_list_deallocatorINS_9allocatorIPNS_16__hash_node_baseIPNS_11__hash_nodeINS_17__hash_value_typeINS_12basic_stringIcNS_11char_traitsIcEENS2_IcEEEE9data_nodeEEPvEEEEEEEELi1ELb0EE5__getB8ue170006Ev, symObjAddr: 0x16B14, symBinAddr: 0x1000180C8, symSize: 0x14 }
  - { offsetInCU: 0x37F02, offset: 0x37F02, size: 0x8, addend: 0x0, symName: __ZNKSt3__117__compressed_pairImNS_9allocatorIPNS_16__hash_node_baseIPNS_11__hash_nodeINS_17__hash_value_typeINS_12basic_stringIcNS_11char_traitsIcEENS1_IcEEEE9data_nodeEEPvEEEEEEE5firstB8ue170006Ev, symObjAddr: 0x16B28, symBinAddr: 0x1000180DC, symSize: 0x24 }
  - { offsetInCU: 0x37F28, offset: 0x37F28, size: 0x8, addend: 0x0, symName: __ZNKSt3__117__compressed_pairIPPNS_16__hash_node_baseIPNS_11__hash_nodeINS_17__hash_value_typeINS_12basic_stringIcNS_11char_traitsIcEENS_9allocatorIcEEEE9data_nodeEEPvEEEENS_25__bucket_list_deallocatorINS7_ISG_EEEEE5firstB8ue170006Ev, symObjAddr: 0x16B4C, symBinAddr: 0x100018100, symSize: 0x24 }
  - { offsetInCU: 0x37F4E, offset: 0x37F4E, size: 0x8, addend: 0x0, symName: __ZNKSt3__122__compressed_pair_elemIPPNS_16__hash_node_baseIPNS_11__hash_nodeINS_17__hash_value_typeINS_12basic_stringIcNS_11char_traitsIcEENS_9allocatorIcEEEE9data_nodeEEPvEEEELi0ELb0EE5__getB8ue170006Ev, symObjAddr: 0x16B70, symBinAddr: 0x100018124, symSize: 0x14 }
  - { offsetInCU: 0x37F74, offset: 0x37F74, size: 0x8, addend: 0x0, symName: __ZNSt3__117__compressed_pairIfNS_21__unordered_map_equalINS_12basic_stringIcNS_11char_traitsIcEENS_9allocatorIcEEEENS_17__hash_value_typeIS7_9data_nodeEENS_8equal_toIS7_EENS_4hashIS7_EELb1EEEE6secondB8ue170006Ev, symObjAddr: 0x16B84, symBinAddr: 0x100018138, symSize: 0x24 }
  - { offsetInCU: 0x37F9A, offset: 0x37F9A, size: 0x8, addend: 0x0, symName: __ZNSt3__122__compressed_pair_elemINS_21__unordered_map_equalINS_12basic_stringIcNS_11char_traitsIcEENS_9allocatorIcEEEENS_17__hash_value_typeIS7_9data_nodeEENS_8equal_toIS7_EENS_4hashIS7_EELb1EEELi1ELb1EE5__getB8ue170006Ev, symObjAddr: 0x16BA8, symBinAddr: 0x10001815C, symSize: 0x14 }
  - { offsetInCU: 0x37FC0, offset: 0x37FC0, size: 0x8, addend: 0x0, symName: __ZNKSt3__18equal_toINS_12basic_stringIcNS_11char_traitsIcEENS_9allocatorIcEEEEEclB8ue170006ERKS6_S9_, symObjAddr: 0x16BBC, symBinAddr: 0x100018170, symSize: 0x34 }
  - { offsetInCU: 0x38004, offset: 0x38004, size: 0x8, addend: 0x0, symName: __ZNKSt3__117__hash_value_typeINS_12basic_stringIcNS_11char_traitsIcEENS_9allocatorIcEEEE9data_nodeE11__get_valueB8ue170006Ev, symObjAddr: 0x16BF0, symBinAddr: 0x1000181A4, symSize: 0x24 }
  - { offsetInCU: 0x3802A, offset: 0x3802A, size: 0x8, addend: 0x0, symName: __ZNSt3__116allocator_traitsINS_9allocatorINS_11__hash_nodeINS_17__hash_value_typeINS_12basic_stringIcNS_11char_traitsIcEENS1_IcEEEE9data_nodeEEPvEEEEE8allocateB8ue170006ERSD_m, symObjAddr: 0x16C4C, symBinAddr: 0x100018200, symSize: 0x2C }
  - { offsetInCU: 0x3805D, offset: 0x3805D, size: 0x8, addend: 0x0, symName: __ZNSt3__122__hash_node_destructorINS_9allocatorINS_11__hash_nodeINS_17__hash_value_typeINS_12basic_stringIcNS_11char_traitsIcEENS1_IcEEEE9data_nodeEEPvEEEEEC1B8ue170006ERSD_b, symObjAddr: 0x16C78, symBinAddr: 0x10001822C, symSize: 0x48 }
  - { offsetInCU: 0x380AB, offset: 0x380AB, size: 0x8, addend: 0x0, symName: __ZNSt3__110unique_ptrINS_11__hash_nodeINS_17__hash_value_typeINS_12basic_stringIcNS_11char_traitsIcEENS_9allocatorIcEEEE9data_nodeEEPvEENS_22__hash_node_destructorINS6_ISC_EEEEEC1B8ue170006ILb1EvEEPSC_NS_16__dependent_typeINS_27__unique_ptr_deleter_sfinaeISF_EEXT_EE20__good_rval_ref_typeE, symObjAddr: 0x16CC0, symBinAddr: 0x100018274, symSize: 0x3C }
  - { offsetInCU: 0x380FC, offset: 0x380FC, size: 0x8, addend: 0x0, symName: __ZNSt3__116allocator_traitsINS_9allocatorINS_11__hash_nodeINS_17__hash_value_typeINS_12basic_stringIcNS_11char_traitsIcEENS1_IcEEEE9data_nodeEEPvEEEEE9constructB8ue170006INS_4pairIKS8_S9_EEJRS8_RS9_EvvEEvRSD_PT_DpOT0_, symObjAddr: 0x16CFC, symBinAddr: 0x1000182B0, symSize: 0x38 }
  - { offsetInCU: 0x38164, offset: 0x38164, size: 0x8, addend: 0x0, symName: __ZNSt3__110unique_ptrINS_11__hash_nodeINS_17__hash_value_typeINS_12basic_stringIcNS_11char_traitsIcEENS_9allocatorIcEEEE9data_nodeEEPvEENS_22__hash_node_destructorINS6_ISC_EEEEE11get_deleterB8ue170006Ev, symObjAddr: 0x16D34, symBinAddr: 0x1000182E8, symSize: 0x24 }
  - { offsetInCU: 0x3818A, offset: 0x3818A, size: 0x8, addend: 0x0, symName: __ZNSt3__19allocatorINS_11__hash_nodeINS_17__hash_value_typeINS_12basic_stringIcNS_11char_traitsIcEENS0_IcEEEE9data_nodeEEPvEEE8allocateB8ue170006Em, symObjAddr: 0x16D58, symBinAddr: 0x10001830C, symSize: 0x5C }
  - { offsetInCU: 0x381C9, offset: 0x381C9, size: 0x8, addend: 0x0, symName: __ZNSt3__116allocator_traitsINS_9allocatorINS_11__hash_nodeINS_17__hash_value_typeINS_12basic_stringIcNS_11char_traitsIcEENS1_IcEEEE9data_nodeEEPvEEEEE8max_sizeB8ue170006ISD_vvEEmRKSD_, symObjAddr: 0x16DB4, symBinAddr: 0x100018368, symSize: 0x28 }
  - { offsetInCU: 0x381F4, offset: 0x381F4, size: 0x8, addend: 0x0, symName: __ZNSt3__122__hash_node_destructorINS_9allocatorINS_11__hash_nodeINS_17__hash_value_typeINS_12basic_stringIcNS_11char_traitsIcEENS1_IcEEEE9data_nodeEEPvEEEEEC2B8ue170006ERSD_b, symObjAddr: 0x16DDC, symBinAddr: 0x100018390, symSize: 0x38 }
  - { offsetInCU: 0x3823C, offset: 0x3823C, size: 0x8, addend: 0x0, symName: __ZNSt3__110unique_ptrINS_11__hash_nodeINS_17__hash_value_typeINS_12basic_stringIcNS_11char_traitsIcEENS_9allocatorIcEEEE9data_nodeEEPvEENS_22__hash_node_destructorINS6_ISC_EEEEEC2B8ue170006ILb1EvEEPSC_NS_16__dependent_typeINS_27__unique_ptr_deleter_sfinaeISF_EEXT_EE20__good_rval_ref_typeE, symObjAddr: 0x16E14, symBinAddr: 0x1000183C8, symSize: 0x48 }
  - { offsetInCU: 0x3828D, offset: 0x3828D, size: 0x8, addend: 0x0, symName: __ZNSt3__117__compressed_pairIPNS_11__hash_nodeINS_17__hash_value_typeINS_12basic_stringIcNS_11char_traitsIcEENS_9allocatorIcEEEE9data_nodeEEPvEENS_22__hash_node_destructorINS6_ISC_EEEEEC1B8ue170006IRSD_SG_EEOT_OT0_, symObjAddr: 0x16E5C, symBinAddr: 0x100018410, symSize: 0x3C }
  - { offsetInCU: 0x382E5, offset: 0x382E5, size: 0x8, addend: 0x0, symName: __ZNSt3__117__compressed_pairIPNS_11__hash_nodeINS_17__hash_value_typeINS_12basic_stringIcNS_11char_traitsIcEENS_9allocatorIcEEEE9data_nodeEEPvEENS_22__hash_node_destructorINS6_ISC_EEEEEC2B8ue170006IRSD_SG_EEOT_OT0_, symObjAddr: 0x16E98, symBinAddr: 0x10001844C, symSize: 0x48 }
  - { offsetInCU: 0x3833D, offset: 0x3833D, size: 0x8, addend: 0x0, symName: __ZNSt3__122__compressed_pair_elemIPNS_11__hash_nodeINS_17__hash_value_typeINS_12basic_stringIcNS_11char_traitsIcEENS_9allocatorIcEEEE9data_nodeEEPvEELi0ELb0EEC2B8ue170006IRSD_vEEOT_, symObjAddr: 0x16EE0, symBinAddr: 0x100018494, symSize: 0x24 }
  - { offsetInCU: 0x3837F, offset: 0x3837F, size: 0x8, addend: 0x0, symName: __ZNSt3__122__compressed_pair_elemINS_22__hash_node_destructorINS_9allocatorINS_11__hash_nodeINS_17__hash_value_typeINS_12basic_stringIcNS_11char_traitsIcEENS2_IcEEEE9data_nodeEEPvEEEEEELi1ELb0EEC2B8ue170006ISF_vEEOT_, symObjAddr: 0x16F04, symBinAddr: 0x1000184B8, symSize: 0x24 }
  - { offsetInCU: 0x383C1, offset: 0x383C1, size: 0x8, addend: 0x0, symName: __ZNSt3__14pairIKNS_12basic_stringIcNS_11char_traitsIcEENS_9allocatorIcEEEE9data_nodeEC1B8ue170006IRS6_RS8_LPv0EEEOT_OT0_, symObjAddr: 0x16F6C, symBinAddr: 0x100018520, symSize: 0x3C }
  - { offsetInCU: 0x3841F, offset: 0x3841F, size: 0x8, addend: 0x0, symName: __ZNSt3__14pairIKNS_12basic_stringIcNS_11char_traitsIcEENS_9allocatorIcEEEE9data_nodeEC2B8ue170006IRS6_RS8_LPv0EEEOT_OT0_, symObjAddr: 0x16FA8, symBinAddr: 0x10001855C, symSize: 0x70 }
  - { offsetInCU: 0x3847D, offset: 0x3847D, size: 0x8, addend: 0x0, symName: __ZN9data_nodeC1ERKS_, symObjAddr: 0x17018, symBinAddr: 0x1000185CC, symSize: 0x34 }
  - { offsetInCU: 0x384B2, offset: 0x384B2, size: 0x8, addend: 0x0, symName: __ZN9data_nodeC2ERKS_, symObjAddr: 0x1704C, symBinAddr: 0x100018600, symSize: 0x7C }
  - { offsetInCU: 0x384E7, offset: 0x384E7, size: 0x8, addend: 0x0, symName: __ZNSt3__117__compressed_pairIPNS_11__hash_nodeINS_17__hash_value_typeINS_12basic_stringIcNS_11char_traitsIcEENS_9allocatorIcEEEE9data_nodeEEPvEENS_22__hash_node_destructorINS6_ISC_EEEEE6secondB8ue170006Ev, symObjAddr: 0x170C8, symBinAddr: 0x10001867C, symSize: 0x28 }
  - { offsetInCU: 0x3850D, offset: 0x3850D, size: 0x8, addend: 0x0, symName: __ZNSt3__122__compressed_pair_elemINS_22__hash_node_destructorINS_9allocatorINS_11__hash_nodeINS_17__hash_value_typeINS_12basic_stringIcNS_11char_traitsIcEENS2_IcEEEE9data_nodeEEPvEEEEEELi1ELb0EE5__getB8ue170006Ev, symObjAddr: 0x170F0, symBinAddr: 0x1000186A4, symSize: 0x14 }
  - { offsetInCU: 0x38533, offset: 0x38533, size: 0x8, addend: 0x0, symName: __ZNSt3__117__compressed_pairImNS_22__unordered_map_hasherINS_12basic_stringIcNS_11char_traitsIcEENS_9allocatorIcEEEENS_17__hash_value_typeIS7_9data_nodeEENS_4hashIS7_EENS_8equal_toIS7_EELb1EEEE5firstB8ue170006Ev, symObjAddr: 0x17104, symBinAddr: 0x1000186B8, symSize: 0x24 }
  - { offsetInCU: 0x38559, offset: 0x38559, size: 0x8, addend: 0x0, symName: __ZNSt3__117__compressed_pairIfNS_21__unordered_map_equalINS_12basic_stringIcNS_11char_traitsIcEENS_9allocatorIcEEEENS_17__hash_value_typeIS7_9data_nodeEENS_8equal_toIS7_EENS_4hashIS7_EELb1EEEE5firstB8ue170006Ev, symObjAddr: 0x17128, symBinAddr: 0x1000186DC, symSize: 0x24 }
  - { offsetInCU: 0x3857F, offset: 0x3857F, size: 0x8, addend: 0x0, symName: __ZNSt3__122__compressed_pair_elemIfLi0ELb0EE5__getB8ue170006Ev, symObjAddr: 0x1714C, symBinAddr: 0x100018700, symSize: 0x14 }
  - { offsetInCU: 0x385A5, offset: 0x385A5, size: 0x8, addend: 0x0, symName: __ZNSt3__112__hash_tableINS_17__hash_value_typeINS_12basic_stringIcNS_11char_traitsIcEENS_9allocatorIcEEEE9data_nodeEENS_22__unordered_map_hasherIS7_S9_NS_4hashIS7_EENS_8equal_toIS7_EELb1EEENS_21__unordered_map_equalIS7_S9_SE_SC_Lb1EEENS5_IS9_EEE8__rehashILb1EEEvm, symObjAddr: 0x17160, symBinAddr: 0x100018714, symSize: 0x1A8 }
  - { offsetInCU: 0x385F5, offset: 0x385F5, size: 0x8, addend: 0x0, symName: __ZNSt3__112__hash_tableINS_17__hash_value_typeINS_12basic_stringIcNS_11char_traitsIcEENS_9allocatorIcEEEE9data_nodeEENS_22__unordered_map_hasherIS7_S9_NS_4hashIS7_EENS_8equal_toIS7_EELb1EEENS_21__unordered_map_equalIS7_S9_SE_SC_Lb1EEENS5_IS9_EEE11__do_rehashILb1EEEvm, symObjAddr: 0x17308, symBinAddr: 0x1000188BC, symSize: 0x288 }
  - { offsetInCU: 0x386D8, offset: 0x386D8, size: 0x8, addend: 0x0, symName: __ZNSt3__110unique_ptrIA_PNS_16__hash_node_baseIPNS_11__hash_nodeINS_17__hash_value_typeINS_12basic_stringIcNS_11char_traitsIcEENS_9allocatorIcEEEE9data_nodeEEPvEEEENS_25__bucket_list_deallocatorINS7_ISG_EEEEE11get_deleterB8ue170006Ev, symObjAddr: 0x175FC, symBinAddr: 0x100018BB0, symSize: 0x24 }
  - { offsetInCU: 0x386FE, offset: 0x386FE, size: 0x8, addend: 0x0, symName: __ZNSt3__110unique_ptrIA_PNS_16__hash_node_baseIPNS_11__hash_nodeINS_17__hash_value_typeINS_12basic_stringIcNS_11char_traitsIcEENS_9allocatorIcEEEE9data_nodeEEPvEEEENS_25__bucket_list_deallocatorINS7_ISG_EEEEE5resetB8ue170006IPSG_EENS_9enable_ifIXsr28_CheckArrayPointerConversionIT_EE5valueEvE4typeESP_, symObjAddr: 0x17620, symBinAddr: 0x100018BD4, symSize: 0x78 }
  - { offsetInCU: 0x3874B, offset: 0x3874B, size: 0x8, addend: 0x0, symName: __ZNSt3__116allocator_traitsINS_9allocatorIPNS_16__hash_node_baseIPNS_11__hash_nodeINS_17__hash_value_typeINS_12basic_stringIcNS_11char_traitsIcEENS1_IcEEEE9data_nodeEEPvEEEEEEE8allocateB8ue170006ERSH_m, symObjAddr: 0x17698, symBinAddr: 0x100018C4C, symSize: 0x2C }
  - { offsetInCU: 0x3877E, offset: 0x3877E, size: 0x8, addend: 0x0, symName: __ZNSt3__19allocatorIPNS_16__hash_node_baseIPNS_11__hash_nodeINS_17__hash_value_typeINS_12basic_stringIcNS_11char_traitsIcEENS0_IcEEEE9data_nodeEEPvEEEEE8allocateB8ue170006Em, symObjAddr: 0x176C4, symBinAddr: 0x100018C78, symSize: 0x58 }
  - { offsetInCU: 0x387BD, offset: 0x387BD, size: 0x8, addend: 0x0, symName: __ZNSt3__116allocator_traitsINS_9allocatorIPNS_16__hash_node_baseIPNS_11__hash_nodeINS_17__hash_value_typeINS_12basic_stringIcNS_11char_traitsIcEENS1_IcEEEE9data_nodeEEPvEEEEEEE8max_sizeB8ue170006ISH_vvEEmRKSH_, symObjAddr: 0x1771C, symBinAddr: 0x100018CD0, symSize: 0x28 }
  - { offsetInCU: 0x387E8, offset: 0x387E8, size: 0x8, addend: 0x0, symName: __ZNKSt3__117__compressed_pairIPNS_11__hash_nodeINS_17__hash_value_typeINS_12basic_stringIcNS_11char_traitsIcEENS_9allocatorIcEEEE9data_nodeEEPvEENS_22__hash_node_destructorINS6_ISC_EEEEE5firstB8ue170006Ev, symObjAddr: 0x17744, symBinAddr: 0x100018CF8, symSize: 0x24 }
  - { offsetInCU: 0x3880E, offset: 0x3880E, size: 0x8, addend: 0x0, symName: __ZNKSt3__122__compressed_pair_elemIPNS_11__hash_nodeINS_17__hash_value_typeINS_12basic_stringIcNS_11char_traitsIcEENS_9allocatorIcEEEE9data_nodeEEPvEELi0ELb0EE5__getB8ue170006Ev, symObjAddr: 0x17768, symBinAddr: 0x100018D1C, symSize: 0x14 }
  - { offsetInCU: 0x38834, offset: 0x38834, size: 0x8, addend: 0x0, symName: __ZNSt3__117__compressed_pairIPNS_11__hash_nodeINS_17__hash_value_typeINS_12basic_stringIcNS_11char_traitsIcEENS_9allocatorIcEEEE9data_nodeEEPvEENS_22__hash_node_destructorINS6_ISC_EEEEE5firstB8ue170006Ev, symObjAddr: 0x1777C, symBinAddr: 0x100018D30, symSize: 0x24 }
  - { offsetInCU: 0x3885A, offset: 0x3885A, size: 0x8, addend: 0x0, symName: __ZNSt3__122__compressed_pair_elemIPNS_11__hash_nodeINS_17__hash_value_typeINS_12basic_stringIcNS_11char_traitsIcEENS_9allocatorIcEEEE9data_nodeEEPvEELi0ELb0EE5__getB8ue170006Ev, symObjAddr: 0x177A0, symBinAddr: 0x100018D54, symSize: 0x14 }
  - { offsetInCU: 0x38880, offset: 0x38880, size: 0x8, addend: 0x0, symName: __ZNSt3__110unique_ptrINS_11__hash_nodeINS_17__hash_value_typeINS_12basic_stringIcNS_11char_traitsIcEENS_9allocatorIcEEEE9data_nodeEEPvEENS_22__hash_node_destructorINS6_ISC_EEEEED2B8ue170006Ev, symObjAddr: 0x177B4, symBinAddr: 0x100018D68, symSize: 0x30 }
  - { offsetInCU: 0x388AA, offset: 0x388AA, size: 0x8, addend: 0x0, symName: __ZNSt3__110unique_ptrINS_11__hash_nodeINS_17__hash_value_typeINS_12basic_stringIcNS_11char_traitsIcEENS_9allocatorIcEEEE9data_nodeEEPvEENS_22__hash_node_destructorINS6_ISC_EEEEE5resetB8ue170006EPSC_, symObjAddr: 0x177E4, symBinAddr: 0x100018D98, symSize: 0x78 }
  - { offsetInCU: 0x388EE, offset: 0x388EE, size: 0x8, addend: 0x0, symName: __ZNSt3__122__hash_node_destructorINS_9allocatorINS_11__hash_nodeINS_17__hash_value_typeINS_12basic_stringIcNS_11char_traitsIcEENS1_IcEEEE9data_nodeEEPvEEEEEclB8ue170006EPSC_, symObjAddr: 0x1785C, symBinAddr: 0x100018E10, symSize: 0x98 }
  - { offsetInCU: 0x38923, offset: 0x38923, size: 0x8, addend: 0x0, symName: __ZNSt3__115__hash_iteratorIPNS_11__hash_nodeINS_17__hash_value_typeINS_12basic_stringIcNS_11char_traitsIcEENS_9allocatorIcEEEE9data_nodeEEPvEEEC2B8ue170006EPNS_16__hash_node_baseISD_EE, symObjAddr: 0x178F4, symBinAddr: 0x100018EA8, symSize: 0x20 }
  - { offsetInCU: 0x3895C, offset: 0x3895C, size: 0x8, addend: 0x0, symName: __ZNSt3__14pairINS_15__hash_iteratorIPNS_11__hash_nodeINS_17__hash_value_typeINS_12basic_stringIcNS_11char_traitsIcEENS_9allocatorIcEEEE9data_nodeEEPvEEEEbEC2B8ue170006ISF_RbLSC_0EEEOT_OT0_, symObjAddr: 0x17914, symBinAddr: 0x100018EC8, symSize: 0x38 }
  - { offsetInCU: 0x389BA, offset: 0x389BA, size: 0x8, addend: 0x0, symName: __ZNSt3__14pairINS_19__hash_map_iteratorINS_15__hash_iteratorIPNS_11__hash_nodeINS_17__hash_value_typeINS_12basic_stringIcNS_11char_traitsIcEENS_9allocatorIcEEEE9data_nodeEEPvEEEEEEbEC2B8ue170006ISG_bLSD_0EEEONS0_IT_T0_EE, symObjAddr: 0x1794C, symBinAddr: 0x100018F00, symSize: 0x50 }
  - { offsetInCU: 0x38A0B, offset: 0x38A0B, size: 0x8, addend: 0x0, symName: __ZNSt3__119__hash_map_iteratorINS_15__hash_iteratorIPNS_11__hash_nodeINS_17__hash_value_typeINS_12basic_stringIcNS_11char_traitsIcEENS_9allocatorIcEEEE9data_nodeEEPvEEEEEC1B8ue170006ESF_, symObjAddr: 0x1799C, symBinAddr: 0x100018F50, symSize: 0x34 }
  - { offsetInCU: 0x38A44, offset: 0x38A44, size: 0x8, addend: 0x0, symName: __ZNSt3__119__hash_map_iteratorINS_15__hash_iteratorIPNS_11__hash_nodeINS_17__hash_value_typeINS_12basic_stringIcNS_11char_traitsIcEENS_9allocatorIcEEEE9data_nodeEEPvEEEEEC2B8ue170006ESF_, symObjAddr: 0x179D0, symBinAddr: 0x100018F84, symSize: 0x20 }
  - { offsetInCU: 0x38A7D, offset: 0x38A7D, size: 0x8, addend: 0x0, symName: __ZN9data_nodeD2Ev, symObjAddr: 0x179F0, symBinAddr: 0x100018FA4, symSize: 0x38 }
  - { offsetInCU: 0x38AA7, offset: 0x38AA7, size: 0x8, addend: 0x0, symName: __ZNSt3__113unordered_mapINS_12basic_stringIcNS_11char_traitsIcEENS_9allocatorIcEEEE9data_nodeNS_4hashIS6_EENS_8equal_toIS6_EENS4_INS_4pairIKS6_S7_EEEEE4findB8ue170006ERSD_, symObjAddr: 0x17A28, symBinAddr: 0x100018FDC, symSize: 0x40 }
  - { offsetInCU: 0x38ADC, offset: 0x38ADC, size: 0x8, addend: 0x0, symName: __ZNSt3__113unordered_mapINS_12basic_stringIcNS_11char_traitsIcEENS_9allocatorIcEEEE9data_nodeNS_4hashIS6_EENS_8equal_toIS6_EENS4_INS_4pairIKS6_S7_EEEEE3endB8ue170006Ev, symObjAddr: 0x17A98, symBinAddr: 0x10001904C, symSize: 0x38 }
  - { offsetInCU: 0x38B02, offset: 0x38B02, size: 0x8, addend: 0x0, symName: __ZNKSt3__119__hash_map_iteratorINS_15__hash_iteratorIPNS_11__hash_nodeINS_17__hash_value_typeINS_12basic_stringIcNS_11char_traitsIcEENS_9allocatorIcEEEE9data_nodeEEPvEEEEEptB8ue170006Ev, symObjAddr: 0x17AD0, symBinAddr: 0x100019084, symSize: 0x2C }
  - { offsetInCU: 0x38B28, offset: 0x38B28, size: 0x8, addend: 0x0, symName: __ZNSt3__112__hash_tableINS_17__hash_value_typeINS_12basic_stringIcNS_11char_traitsIcEENS_9allocatorIcEEEE9data_nodeEENS_22__unordered_map_hasherIS7_S9_NS_4hashIS7_EENS_8equal_toIS7_EELb1EEENS_21__unordered_map_equalIS7_S9_SE_SC_Lb1EEENS5_IS9_EEE4findIS7_EENS_15__hash_iteratorIPNS_11__hash_nodeIS9_PvEEEERKT_, symObjAddr: 0x17AFC, symBinAddr: 0x1000190B0, symSize: 0x1B0 }
  - { offsetInCU: 0x38BB2, offset: 0x38BB2, size: 0x8, addend: 0x0, symName: __ZNSt3__112__hash_tableINS_17__hash_value_typeINS_12basic_stringIcNS_11char_traitsIcEENS_9allocatorIcEEEE9data_nodeEENS_22__unordered_map_hasherIS7_S9_NS_4hashIS7_EENS_8equal_toIS7_EELb1EEENS_21__unordered_map_equalIS7_S9_SE_SC_Lb1EEENS5_IS9_EEE3endEv, symObjAddr: 0x17CAC, symBinAddr: 0x100019260, symSize: 0x2C }
  - { offsetInCU: 0x38BDA, offset: 0x38BDA, size: 0x8, addend: 0x0, symName: __ZNSt3__114pointer_traitsIPNS_4pairIKNS_12basic_stringIcNS_11char_traitsIcEENS_9allocatorIcEEEE9data_nodeEEE10pointer_toB8ue170006ERSA_, symObjAddr: 0x17D08, symBinAddr: 0x1000192BC, symSize: 0x14 }
  - { offsetInCU: 0x38BFD, offset: 0x38BFD, size: 0x8, addend: 0x0, symName: __ZNKSt3__115__hash_iteratorIPNS_11__hash_nodeINS_17__hash_value_typeINS_12basic_stringIcNS_11char_traitsIcEENS_9allocatorIcEEEE9data_nodeEEPvEEEptB8ue170006Ev, symObjAddr: 0x17D1C, symBinAddr: 0x1000192D0, symSize: 0x30 }
  - { offsetInCU: 0x38C23, offset: 0x38C23, size: 0x8, addend: 0x0, symName: __ZNSt3__114pointer_traitsIPNS_17__hash_value_typeINS_12basic_stringIcNS_11char_traitsIcEENS_9allocatorIcEEEE9data_nodeEEE10pointer_toB8ue170006ERS9_, symObjAddr: 0x17D4C, symBinAddr: 0x100019300, symSize: 0x14 }
  - { offsetInCU: 0x38C46, offset: 0x38C46, size: 0x8, addend: 0x0, symName: __ZNSt3__111char_traitsIcE7compareB8ue170006EPKcS3_m, symObjAddr: 0x17D60, symBinAddr: 0x100019314, symSize: 0x34 }
  - { offsetInCU: 0x38C85, offset: 0x38C85, size: 0x8, addend: 0x0, symName: __ZNSt3__16vectorINS_12basic_stringIcNS_11char_traitsIcEENS_9allocatorIcEEEENS4_IS6_EEEC2B8ue170006Ev, symObjAddr: 0x17D94, symBinAddr: 0x100019348, symSize: 0x4C }
  - { offsetInCU: 0x38CAF, offset: 0x38CAF, size: 0x8, addend: 0x0, symName: __ZNSt3__117__compressed_pairIPNS_12basic_stringIcNS_11char_traitsIcEENS_9allocatorIcEEEENS4_IS6_EEEC1B8ue170006IDnNS_18__default_init_tagEEEOT_OT0_, symObjAddr: 0x17DE0, symBinAddr: 0x100019394, symSize: 0x3C }
  - { offsetInCU: 0x38D07, offset: 0x38D07, size: 0x8, addend: 0x0, symName: __ZNSt3__117__compressed_pairIPNS_12basic_stringIcNS_11char_traitsIcEENS_9allocatorIcEEEENS4_IS6_EEEC2B8ue170006IDnNS_18__default_init_tagEEEOT_OT0_, symObjAddr: 0x17E1C, symBinAddr: 0x1000193D0, symSize: 0x40 }
  - { offsetInCU: 0x38D5F, offset: 0x38D5F, size: 0x8, addend: 0x0, symName: __ZNSt3__122__compressed_pair_elemIPNS_12basic_stringIcNS_11char_traitsIcEENS_9allocatorIcEEEELi0ELb0EEC2B8ue170006IDnvEEOT_, symObjAddr: 0x17E5C, symBinAddr: 0x100019410, symSize: 0x1C }
  - { offsetInCU: 0x38DA1, offset: 0x38DA1, size: 0x8, addend: 0x0, symName: __ZNSt3__122__compressed_pair_elemINS_9allocatorINS_12basic_stringIcNS_11char_traitsIcEENS1_IcEEEEEELi1ELb1EEC2B8ue170006ENS_18__default_init_tagE, symObjAddr: 0x17E78, symBinAddr: 0x10001942C, symSize: 0x2C }
  - { offsetInCU: 0x38DD5, offset: 0x38DD5, size: 0x8, addend: 0x0, symName: __ZNSt3__19allocatorINS_12basic_stringIcNS_11char_traitsIcEENS0_IcEEEEEC2B8ue170006Ev, symObjAddr: 0x17EA4, symBinAddr: 0x100019458, symSize: 0x2C }
  - { offsetInCU: 0x38DFF, offset: 0x38DFF, size: 0x8, addend: 0x0, symName: __ZNSt3__116__non_trivial_ifILb1ENS_9allocatorINS_12basic_stringIcNS_11char_traitsIcEENS1_IcEEEEEEEC2B8ue170006Ev, symObjAddr: 0x17ED0, symBinAddr: 0x100019484, symSize: 0x14 }
  - { offsetInCU: 0x38E29, offset: 0x38E29, size: 0x8, addend: 0x0, symName: __ZNSt3__16vectorINS_12basic_stringIcNS_11char_traitsIcEENS_9allocatorIcEEEENS4_IS6_EEE9__end_capB8ue170006Ev, symObjAddr: 0x17EE4, symBinAddr: 0x100019498, symSize: 0x28 }
  - { offsetInCU: 0x38E55, offset: 0x38E55, size: 0x8, addend: 0x0, symName: __ZNSt3__16vectorINS_12basic_stringIcNS_11char_traitsIcEENS_9allocatorIcEEEENS4_IS6_EEE22__construct_one_at_endB8ue170006IJS6_EEEvDpOT_, symObjAddr: 0x17F0C, symBinAddr: 0x1000194C0, symSize: 0x90 }
  - { offsetInCU: 0x38EA4, offset: 0x38EA4, size: 0x8, addend: 0x0, symName: __ZNSt3__16vectorINS_12basic_stringIcNS_11char_traitsIcEENS_9allocatorIcEEEENS4_IS6_EEE21__push_back_slow_pathIS6_EEvOT_, symObjAddr: 0x17F9C, symBinAddr: 0x100019550, symSize: 0xD8 }
  - { offsetInCU: 0x38F02, offset: 0x38F02, size: 0x8, addend: 0x0, symName: __ZNSt3__117__compressed_pairIPNS_12basic_stringIcNS_11char_traitsIcEENS_9allocatorIcEEEENS4_IS6_EEE5firstB8ue170006Ev, symObjAddr: 0x18074, symBinAddr: 0x100019628, symSize: 0x24 }
  - { offsetInCU: 0x38F28, offset: 0x38F28, size: 0x8, addend: 0x0, symName: __ZNSt3__122__compressed_pair_elemIPNS_12basic_stringIcNS_11char_traitsIcEENS_9allocatorIcEEEELi0ELb0EE5__getB8ue170006Ev, symObjAddr: 0x18098, symBinAddr: 0x10001964C, symSize: 0x14 }
  - { offsetInCU: 0x38F6A, offset: 0x38F6A, size: 0x8, addend: 0x0, symName: __ZNSt3__16vectorINS_12basic_stringIcNS_11char_traitsIcEENS_9allocatorIcEEEENS4_IS6_EEE21_ConstructTransactionC1B8ue170006ERS8_m, symObjAddr: 0x180AC, symBinAddr: 0x100019660, symSize: 0x3C }
  - { offsetInCU: 0x38FB2, offset: 0x38FB2, size: 0x8, addend: 0x0, symName: __ZNSt3__116allocator_traitsINS_9allocatorINS_12basic_stringIcNS_11char_traitsIcEENS1_IcEEEEEEE9constructB8ue170006IS6_JS6_EvvEEvRS7_PT_DpOT0_, symObjAddr: 0x180E8, symBinAddr: 0x10001969C, symSize: 0x30 }
  - { offsetInCU: 0x39006, offset: 0x39006, size: 0x8, addend: 0x0, symName: __ZNSt3__16vectorINS_12basic_stringIcNS_11char_traitsIcEENS_9allocatorIcEEEENS4_IS6_EEE7__allocB8ue170006Ev, symObjAddr: 0x18118, symBinAddr: 0x1000196CC, symSize: 0x28 }
  - { offsetInCU: 0x3902C, offset: 0x3902C, size: 0x8, addend: 0x0, symName: __ZNSt3__16vectorINS_12basic_stringIcNS_11char_traitsIcEENS_9allocatorIcEEEENS4_IS6_EEE21_ConstructTransactionD1B8ue170006Ev, symObjAddr: 0x18154, symBinAddr: 0x100019708, symSize: 0x2C }
  - { offsetInCU: 0x39056, offset: 0x39056, size: 0x8, addend: 0x0, symName: __ZNSt3__16vectorINS_12basic_stringIcNS_11char_traitsIcEENS_9allocatorIcEEEENS4_IS6_EEE21_ConstructTransactionC2B8ue170006ERS8_m, symObjAddr: 0x18180, symBinAddr: 0x100019734, symSize: 0x4C }
  - { offsetInCU: 0x3909E, offset: 0x3909E, size: 0x8, addend: 0x0, symName: __ZNSt3__117__compressed_pairIPNS_12basic_stringIcNS_11char_traitsIcEENS_9allocatorIcEEEENS4_IS6_EEE6secondB8ue170006Ev, symObjAddr: 0x18208, symBinAddr: 0x1000197BC, symSize: 0x24 }
  - { offsetInCU: 0x390C4, offset: 0x390C4, size: 0x8, addend: 0x0, symName: __ZNSt3__122__compressed_pair_elemINS_9allocatorINS_12basic_stringIcNS_11char_traitsIcEENS1_IcEEEEEELi1ELb1EE5__getB8ue170006Ev, symObjAddr: 0x1822C, symBinAddr: 0x1000197E0, symSize: 0x14 }
  - { offsetInCU: 0x390EA, offset: 0x390EA, size: 0x8, addend: 0x0, symName: __ZNSt3__16vectorINS_12basic_stringIcNS_11char_traitsIcEENS_9allocatorIcEEEENS4_IS6_EEE21_ConstructTransactionD2B8ue170006Ev, symObjAddr: 0x18240, symBinAddr: 0x1000197F4, symSize: 0x20 }
  - { offsetInCU: 0x39114, offset: 0x39114, size: 0x8, addend: 0x0, symName: __ZNKSt3__16vectorINS_12basic_stringIcNS_11char_traitsIcEENS_9allocatorIcEEEENS4_IS6_EEE11__recommendB8ue170006Em, symObjAddr: 0x18260, symBinAddr: 0x100019814, symSize: 0xB4 }
  - { offsetInCU: 0x39169, offset: 0x39169, size: 0x8, addend: 0x0, symName: __ZNKSt3__16vectorINS_12basic_stringIcNS_11char_traitsIcEENS_9allocatorIcEEEENS4_IS6_EEE4sizeB8ue170006Ev, symObjAddr: 0x18314, symBinAddr: 0x1000198C8, symSize: 0x28 }
  - { offsetInCU: 0x3918F, offset: 0x3918F, size: 0x8, addend: 0x0, symName: __ZNSt3__114__split_bufferINS_12basic_stringIcNS_11char_traitsIcEENS_9allocatorIcEEEERNS4_IS6_EEEC1EmmS8_, symObjAddr: 0x1833C, symBinAddr: 0x1000198F0, symSize: 0x44 }
  - { offsetInCU: 0x391E5, offset: 0x391E5, size: 0x8, addend: 0x0, symName: __ZNSt3__114__split_bufferINS_12basic_stringIcNS_11char_traitsIcEENS_9allocatorIcEEEERNS4_IS6_EEED1Ev, symObjAddr: 0x18490, symBinAddr: 0x100019A44, symSize: 0x2C }
  - { offsetInCU: 0x39211, offset: 0x39211, size: 0x8, addend: 0x0, symName: __ZNKSt3__16vectorINS_12basic_stringIcNS_11char_traitsIcEENS_9allocatorIcEEEENS4_IS6_EEE8max_sizeEv, symObjAddr: 0x184BC, symBinAddr: 0x100019A70, symSize: 0x60 }
  - { offsetInCU: 0x39239, offset: 0x39239, size: 0x8, addend: 0x0, symName: __ZNKSt3__16vectorINS_12basic_stringIcNS_11char_traitsIcEENS_9allocatorIcEEEENS4_IS6_EEE20__throw_length_errorB8ue170006Ev, symObjAddr: 0x1851C, symBinAddr: 0x100019AD0, symSize: 0x1C }
  - { offsetInCU: 0x3925F, offset: 0x3925F, size: 0x8, addend: 0x0, symName: __ZNKSt3__16vectorINS_12basic_stringIcNS_11char_traitsIcEENS_9allocatorIcEEEENS4_IS6_EEE8capacityB8ue170006Ev, symObjAddr: 0x18538, symBinAddr: 0x100019AEC, symSize: 0x40 }
  - { offsetInCU: 0x39290, offset: 0x39290, size: 0x8, addend: 0x0, symName: __ZNSt3__116allocator_traitsINS_9allocatorINS_12basic_stringIcNS_11char_traitsIcEENS1_IcEEEEEEE8max_sizeB8ue170006IS7_vvEEmRKS7_, symObjAddr: 0x18578, symBinAddr: 0x100019B2C, symSize: 0x28 }
  - { offsetInCU: 0x392BB, offset: 0x392BB, size: 0x8, addend: 0x0, symName: __ZNKSt3__16vectorINS_12basic_stringIcNS_11char_traitsIcEENS_9allocatorIcEEEENS4_IS6_EEE7__allocB8ue170006Ev, symObjAddr: 0x185A0, symBinAddr: 0x100019B54, symSize: 0x28 }
  - { offsetInCU: 0x392E1, offset: 0x392E1, size: 0x8, addend: 0x0, symName: __ZNKSt3__117__compressed_pairIPNS_12basic_stringIcNS_11char_traitsIcEENS_9allocatorIcEEEENS4_IS6_EEE6secondB8ue170006Ev, symObjAddr: 0x185C8, symBinAddr: 0x100019B7C, symSize: 0x24 }
  - { offsetInCU: 0x39307, offset: 0x39307, size: 0x8, addend: 0x0, symName: __ZNKSt3__122__compressed_pair_elemINS_9allocatorINS_12basic_stringIcNS_11char_traitsIcEENS1_IcEEEEEELi1ELb1EE5__getB8ue170006Ev, symObjAddr: 0x185EC, symBinAddr: 0x100019BA0, symSize: 0x14 }
  - { offsetInCU: 0x3932D, offset: 0x3932D, size: 0x8, addend: 0x0, symName: __ZNKSt3__16vectorINS_12basic_stringIcNS_11char_traitsIcEENS_9allocatorIcEEEENS4_IS6_EEE9__end_capB8ue170006Ev, symObjAddr: 0x18600, symBinAddr: 0x100019BB4, symSize: 0x28 }
  - { offsetInCU: 0x39353, offset: 0x39353, size: 0x8, addend: 0x0, symName: __ZNKSt3__117__compressed_pairIPNS_12basic_stringIcNS_11char_traitsIcEENS_9allocatorIcEEEENS4_IS6_EEE5firstB8ue170006Ev, symObjAddr: 0x18628, symBinAddr: 0x100019BDC, symSize: 0x24 }
  - { offsetInCU: 0x39379, offset: 0x39379, size: 0x8, addend: 0x0, symName: __ZNKSt3__122__compressed_pair_elemIPNS_12basic_stringIcNS_11char_traitsIcEENS_9allocatorIcEEEELi0ELb0EE5__getB8ue170006Ev, symObjAddr: 0x1864C, symBinAddr: 0x100019C00, symSize: 0x14 }
  - { offsetInCU: 0x3939F, offset: 0x3939F, size: 0x8, addend: 0x0, symName: __ZNSt3__114__split_bufferINS_12basic_stringIcNS_11char_traitsIcEENS_9allocatorIcEEEERNS4_IS6_EEEC2EmmS8_, symObjAddr: 0x18660, symBinAddr: 0x100019C14, symSize: 0xE0 }
  - { offsetInCU: 0x39412, offset: 0x39412, size: 0x8, addend: 0x0, symName: __ZNSt3__117__compressed_pairIPNS_12basic_stringIcNS_11char_traitsIcEENS_9allocatorIcEEEERNS4_IS6_EEEC1B8ue170006IDnS9_EEOT_OT0_, symObjAddr: 0x18740, symBinAddr: 0x100019CF4, symSize: 0x3C }
  - { offsetInCU: 0x3946A, offset: 0x3946A, size: 0x8, addend: 0x0, symName: __ZNSt3__114__split_bufferINS_12basic_stringIcNS_11char_traitsIcEENS_9allocatorIcEEEERNS4_IS6_EEE7__allocB8ue170006Ev, symObjAddr: 0x187BC, symBinAddr: 0x100019D70, symSize: 0x28 }
  - { offsetInCU: 0x39490, offset: 0x39490, size: 0x8, addend: 0x0, symName: __ZNSt3__114__split_bufferINS_12basic_stringIcNS_11char_traitsIcEENS_9allocatorIcEEEERNS4_IS6_EEE9__end_capB8ue170006Ev, symObjAddr: 0x187E4, symBinAddr: 0x100019D98, symSize: 0x28 }
  - { offsetInCU: 0x394B6, offset: 0x394B6, size: 0x8, addend: 0x0, symName: __ZNSt3__117__compressed_pairIPNS_12basic_stringIcNS_11char_traitsIcEENS_9allocatorIcEEEERNS4_IS6_EEEC2B8ue170006IDnS9_EEOT_OT0_, symObjAddr: 0x1880C, symBinAddr: 0x100019DC0, symSize: 0x48 }
  - { offsetInCU: 0x3950E, offset: 0x3950E, size: 0x8, addend: 0x0, symName: __ZNSt3__122__compressed_pair_elemIRNS_9allocatorINS_12basic_stringIcNS_11char_traitsIcEENS1_IcEEEEEELi1ELb0EEC2B8ue170006IS8_vEEOT_, symObjAddr: 0x18854, symBinAddr: 0x100019E08, symSize: 0x20 }
  - { offsetInCU: 0x39550, offset: 0x39550, size: 0x8, addend: 0x0, symName: __ZNSt3__19allocatorINS_12basic_stringIcNS_11char_traitsIcEENS0_IcEEEEE8allocateB8ue170006Em, symObjAddr: 0x18874, symBinAddr: 0x100019E28, symSize: 0x5C }
  - { offsetInCU: 0x39584, offset: 0x39584, size: 0x8, addend: 0x0, symName: __ZNSt3__117__compressed_pairIPNS_12basic_stringIcNS_11char_traitsIcEENS_9allocatorIcEEEERNS4_IS6_EEE6secondB8ue170006Ev, symObjAddr: 0x188D0, symBinAddr: 0x100019E84, symSize: 0x28 }
  - { offsetInCU: 0x395AA, offset: 0x395AA, size: 0x8, addend: 0x0, symName: __ZNSt3__122__compressed_pair_elemIRNS_9allocatorINS_12basic_stringIcNS_11char_traitsIcEENS1_IcEEEEEELi1ELb0EE5__getB8ue170006Ev, symObjAddr: 0x188F8, symBinAddr: 0x100019EAC, symSize: 0x18 }
  - { offsetInCU: 0x395D0, offset: 0x395D0, size: 0x8, addend: 0x0, symName: __ZNSt3__117__compressed_pairIPNS_12basic_stringIcNS_11char_traitsIcEENS_9allocatorIcEEEERNS4_IS6_EEE5firstB8ue170006Ev, symObjAddr: 0x18910, symBinAddr: 0x100019EC4, symSize: 0x24 }
  - { offsetInCU: 0x395F6, offset: 0x395F6, size: 0x8, addend: 0x0, symName: __ZNKSt3__16vectorINS_12basic_stringIcNS_11char_traitsIcEENS_9allocatorIcEEEENS4_IS6_EEE17__annotate_deleteB8ue170006Ev, symObjAddr: 0x18934, symBinAddr: 0x100019EE8, symSize: 0xD4 }
  - { offsetInCU: 0x3961C, offset: 0x3961C, size: 0x8, addend: 0x0, symName: __ZNSt3__116reverse_iteratorIPNS_12basic_stringIcNS_11char_traitsIcEENS_9allocatorIcEEEEEC1B8ue170006ES7_, symObjAddr: 0x18B34, symBinAddr: 0x10001A0E8, symSize: 0x34 }
  - { offsetInCU: 0x39654, offset: 0x39654, size: 0x8, addend: 0x0, symName: __ZNKSt3__116reverse_iteratorIPNS_12basic_stringIcNS_11char_traitsIcEENS_9allocatorIcEEEEE4baseB8ue170006Ev, symObjAddr: 0x18B68, symBinAddr: 0x10001A11C, symSize: 0x18 }
  - { offsetInCU: 0x3967A, offset: 0x3967A, size: 0x8, addend: 0x0, symName: __ZNKSt3__16vectorINS_12basic_stringIcNS_11char_traitsIcEENS_9allocatorIcEEEENS4_IS6_EEE14__annotate_newB8ue170006Em, symObjAddr: 0x18BBC, symBinAddr: 0x10001A170, symSize: 0xC8 }
  - { offsetInCU: 0x396AF, offset: 0x396AF, size: 0x8, addend: 0x0, symName: __ZNKSt3__16vectorINS_12basic_stringIcNS_11char_traitsIcEENS_9allocatorIcEEEENS4_IS6_EEE31__annotate_contiguous_containerB8ue170006EPKvSA_SA_SA_, symObjAddr: 0x18C84, symBinAddr: 0x10001A238, symSize: 0x20 }
  - { offsetInCU: 0x39701, offset: 0x39701, size: 0x8, addend: 0x0, symName: __ZNKSt3__16vectorINS_12basic_stringIcNS_11char_traitsIcEENS_9allocatorIcEEEENS4_IS6_EEE4dataB8ue170006Ev, symObjAddr: 0x18CA4, symBinAddr: 0x10001A258, symSize: 0x28 }
  - { offsetInCU: 0x39727, offset: 0x39727, size: 0x8, addend: 0x0, symName: __ZNSt3__129_AllocatorDestroyRangeReverseINS_9allocatorINS_12basic_stringIcNS_11char_traitsIcEENS1_IcEEEEEENS_16reverse_iteratorIPS6_EEEC1B8ue170006ERS7_RSA_SD_, symObjAddr: 0x18D18, symBinAddr: 0x10001A2CC, symSize: 0x44 }
  - { offsetInCU: 0x3977E, offset: 0x3977E, size: 0x8, addend: 0x0, symName: __ZNKSt3__116reverse_iteratorIPNS_12basic_stringIcNS_11char_traitsIcEENS_9allocatorIcEEEEEdeB8ue170006Ev, symObjAddr: 0x18DC8, symBinAddr: 0x10001A37C, symSize: 0x28 }
  - { offsetInCU: 0x397B2, offset: 0x397B2, size: 0x8, addend: 0x0, symName: __ZNSt3__116reverse_iteratorIPNS_12basic_stringIcNS_11char_traitsIcEENS_9allocatorIcEEEEEppB8ue170006Ev, symObjAddr: 0x18DF0, symBinAddr: 0x10001A3A4, symSize: 0x20 }
  - { offsetInCU: 0x397D8, offset: 0x397D8, size: 0x8, addend: 0x0, symName: __ZNSt3__128__exception_guard_exceptionsINS_29_AllocatorDestroyRangeReverseINS_9allocatorINS_12basic_stringIcNS_11char_traitsIcEENS2_IcEEEEEENS_16reverse_iteratorIPS7_EEEEE10__completeB8ue170006Ev, symObjAddr: 0x18E10, symBinAddr: 0x10001A3C4, symSize: 0x1C }
  - { offsetInCU: 0x397FE, offset: 0x397FE, size: 0x8, addend: 0x0, symName: __ZNSt3__128__exception_guard_exceptionsINS_29_AllocatorDestroyRangeReverseINS_9allocatorINS_12basic_stringIcNS_11char_traitsIcEENS2_IcEEEEEENS_16reverse_iteratorIPS7_EEEEED1B8ue170006Ev, symObjAddr: 0x18E2C, symBinAddr: 0x10001A3E0, symSize: 0x2C }
  - { offsetInCU: 0x39828, offset: 0x39828, size: 0x8, addend: 0x0, symName: __ZNSt3__128__exception_guard_exceptionsINS_29_AllocatorDestroyRangeReverseINS_9allocatorINS_12basic_stringIcNS_11char_traitsIcEENS2_IcEEEEEENS_16reverse_iteratorIPS7_EEEEEC1B8ue170006ESC_, symObjAddr: 0x18E58, symBinAddr: 0x10001A40C, symSize: 0x34 }
  - { offsetInCU: 0x39861, offset: 0x39861, size: 0x8, addend: 0x0, symName: __ZNSt3__128__exception_guard_exceptionsINS_29_AllocatorDestroyRangeReverseINS_9allocatorINS_12basic_stringIcNS_11char_traitsIcEENS2_IcEEEEEENS_16reverse_iteratorIPS7_EEEEEC2B8ue170006ESC_, symObjAddr: 0x18E8C, symBinAddr: 0x10001A440, symSize: 0x30 }
  - { offsetInCU: 0x3989A, offset: 0x3989A, size: 0x8, addend: 0x0, symName: __ZNSt3__129_AllocatorDestroyRangeReverseINS_9allocatorINS_12basic_stringIcNS_11char_traitsIcEENS1_IcEEEEEENS_16reverse_iteratorIPS6_EEEC2B8ue170006ERS7_RSA_SD_, symObjAddr: 0x18EBC, symBinAddr: 0x10001A470, symSize: 0x38 }
  - { offsetInCU: 0x398F7, offset: 0x398F7, size: 0x8, addend: 0x0, symName: __ZNSt3__119__to_address_helperINS_16reverse_iteratorIPNS_12basic_stringIcNS_11char_traitsIcEENS_9allocatorIcEEEEEEvE6__callB8ue170006ERKS9_, symObjAddr: 0x18EF4, symBinAddr: 0x10001A4A8, symSize: 0x38 }
  - { offsetInCU: 0x3991A, offset: 0x3991A, size: 0x8, addend: 0x0, symName: __ZNKSt3__116reverse_iteratorIPNS_12basic_stringIcNS_11char_traitsIcEENS_9allocatorIcEEEEEptB8ue170006Ev, symObjAddr: 0x18F2C, symBinAddr: 0x10001A4E0, symSize: 0x2C }
  - { offsetInCU: 0x39940, offset: 0x39940, size: 0x8, addend: 0x0, symName: __ZNSt3__128__exception_guard_exceptionsINS_29_AllocatorDestroyRangeReverseINS_9allocatorINS_12basic_stringIcNS_11char_traitsIcEENS2_IcEEEEEENS_16reverse_iteratorIPS7_EEEEED2B8ue170006Ev, symObjAddr: 0x18FFC, symBinAddr: 0x10001A5B0, symSize: 0x50 }
  - { offsetInCU: 0x3996A, offset: 0x3996A, size: 0x8, addend: 0x0, symName: __ZNKSt3__129_AllocatorDestroyRangeReverseINS_9allocatorINS_12basic_stringIcNS_11char_traitsIcEENS1_IcEEEEEENS_16reverse_iteratorIPS6_EEEclB8ue170006Ev, symObjAddr: 0x1904C, symBinAddr: 0x10001A600, symSize: 0xB4 }
  - { offsetInCU: 0x39991, offset: 0x39991, size: 0x8, addend: 0x0, symName: __ZNSt3__116reverse_iteratorINS0_IPNS_12basic_stringIcNS_11char_traitsIcEENS_9allocatorIcEEEEEEEC1B8ue170006ES8_, symObjAddr: 0x19170, symBinAddr: 0x10001A724, symSize: 0x3C }
  - { offsetInCU: 0x399C9, offset: 0x399C9, size: 0x8, addend: 0x0, symName: __ZNSt3__116allocator_traitsINS_9allocatorINS_12basic_stringIcNS_11char_traitsIcEENS1_IcEEEEEEE7destroyB8ue170006IS6_vvEEvRS7_PT_, symObjAddr: 0x1920C, symBinAddr: 0x10001A7C0, symSize: 0x28 }
  - { offsetInCU: 0x39A03, offset: 0x39A03, size: 0x8, addend: 0x0, symName: __ZNSt3__116reverse_iteratorINS0_IPNS_12basic_stringIcNS_11char_traitsIcEENS_9allocatorIcEEEEEEEppB8ue170006Ev, symObjAddr: 0x19258, symBinAddr: 0x10001A80C, symSize: 0x30 }
  - { offsetInCU: 0x39A29, offset: 0x39A29, size: 0x8, addend: 0x0, symName: __ZNKSt3__116reverse_iteratorINS0_IPNS_12basic_stringIcNS_11char_traitsIcEENS_9allocatorIcEEEEEEE4baseB8ue170006Ev, symObjAddr: 0x19288, symBinAddr: 0x10001A83C, symSize: 0x24 }
  - { offsetInCU: 0x39A55, offset: 0x39A55, size: 0x8, addend: 0x0, symName: __ZNSt3__119__to_address_helperINS_16reverse_iteratorINS1_IPNS_12basic_stringIcNS_11char_traitsIcEENS_9allocatorIcEEEEEEEEvE6__callB8ue170006ERKSA_, symObjAddr: 0x192F4, symBinAddr: 0x10001A8A8, symSize: 0x38 }
  - { offsetInCU: 0x39A78, offset: 0x39A78, size: 0x8, addend: 0x0, symName: __ZNKSt3__116reverse_iteratorINS0_IPNS_12basic_stringIcNS_11char_traitsIcEENS_9allocatorIcEEEEEEEptB8ue170006Ev, symObjAddr: 0x1932C, symBinAddr: 0x10001A8E0, symSize: 0x4C }
  - { offsetInCU: 0x39A9E, offset: 0x39A9E, size: 0x8, addend: 0x0, symName: __ZNSt3__116reverse_iteratorIPNS_12basic_stringIcNS_11char_traitsIcEENS_9allocatorIcEEEEEpLB8ue170006El, symObjAddr: 0x19428, symBinAddr: 0x10001A9DC, symSize: 0x30 }
  - { offsetInCU: 0x39AD2, offset: 0x39AD2, size: 0x8, addend: 0x0, symName: __ZNSt3__116reverse_iteratorIPNS_12basic_stringIcNS_11char_traitsIcEENS_9allocatorIcEEEEEmmB8ue170006Ev, symObjAddr: 0x19458, symBinAddr: 0x10001AA0C, symSize: 0x20 }
  - { offsetInCU: 0x39AF8, offset: 0x39AF8, size: 0x8, addend: 0x0, symName: __ZNSt3__116reverse_iteratorINS0_IPNS_12basic_stringIcNS_11char_traitsIcEENS_9allocatorIcEEEEEEEC2B8ue170006ES8_, symObjAddr: 0x19478, symBinAddr: 0x10001AA2C, symSize: 0x2C }
  - { offsetInCU: 0x39B30, offset: 0x39B30, size: 0x8, addend: 0x0, symName: __ZNSt3__116reverse_iteratorIPNS_12basic_stringIcNS_11char_traitsIcEENS_9allocatorIcEEEEEC2B8ue170006ES7_, symObjAddr: 0x194A4, symBinAddr: 0x10001AA58, symSize: 0x28 }
  - { offsetInCU: 0x39B68, offset: 0x39B68, size: 0x8, addend: 0x0, symName: __ZNSt3__114__split_bufferINS_12basic_stringIcNS_11char_traitsIcEENS_9allocatorIcEEEERNS4_IS6_EEED2Ev, symObjAddr: 0x194CC, symBinAddr: 0x10001AA80, symSize: 0x8C }
  - { offsetInCU: 0x39B94, offset: 0x39B94, size: 0x8, addend: 0x0, symName: __ZNSt3__114__split_bufferINS_12basic_stringIcNS_11char_traitsIcEENS_9allocatorIcEEEERNS4_IS6_EEE5clearB8ue170006Ev, symObjAddr: 0x19558, symBinAddr: 0x10001AB0C, symSize: 0x28 }
  - { offsetInCU: 0x39BBA, offset: 0x39BBA, size: 0x8, addend: 0x0, symName: __ZNSt3__116allocator_traitsINS_9allocatorINS_12basic_stringIcNS_11char_traitsIcEENS1_IcEEEEEEE10deallocateB8ue170006ERS7_PS6_m, symObjAddr: 0x19580, symBinAddr: 0x10001AB34, symSize: 0x34 }
  - { offsetInCU: 0x39BFC, offset: 0x39BFC, size: 0x8, addend: 0x0, symName: __ZNKSt3__114__split_bufferINS_12basic_stringIcNS_11char_traitsIcEENS_9allocatorIcEEEERNS4_IS6_EEE8capacityB8ue170006Ev, symObjAddr: 0x195B4, symBinAddr: 0x10001AB68, symSize: 0x40 }
  - { offsetInCU: 0x39C22, offset: 0x39C22, size: 0x8, addend: 0x0, symName: __ZNSt3__114__split_bufferINS_12basic_stringIcNS_11char_traitsIcEENS_9allocatorIcEEEERNS4_IS6_EEE17__destruct_at_endB8ue170006EPS6_, symObjAddr: 0x195F4, symBinAddr: 0x10001ABA8, symSize: 0x2C }
  - { offsetInCU: 0x39C56, offset: 0x39C56, size: 0x8, addend: 0x0, symName: __ZNSt3__114__split_bufferINS_12basic_stringIcNS_11char_traitsIcEENS_9allocatorIcEEEERNS4_IS6_EEE17__destruct_at_endB8ue170006EPS6_NS_17integral_constantIbLb0EEE, symObjAddr: 0x19620, symBinAddr: 0x10001ABD4, symSize: 0x80 }
  - { offsetInCU: 0x39C96, offset: 0x39C96, size: 0x8, addend: 0x0, symName: __ZNSt3__19allocatorINS_12basic_stringIcNS_11char_traitsIcEENS0_IcEEEEE10deallocateB8ue170006EPS5_m, symObjAddr: 0x196A0, symBinAddr: 0x10001AC54, symSize: 0x44 }
  - { offsetInCU: 0x39CD8, offset: 0x39CD8, size: 0x8, addend: 0x0, symName: __ZNKSt3__114__split_bufferINS_12basic_stringIcNS_11char_traitsIcEENS_9allocatorIcEEEERNS4_IS6_EEE9__end_capB8ue170006Ev, symObjAddr: 0x196E4, symBinAddr: 0x10001AC98, symSize: 0x28 }
  - { offsetInCU: 0x39CFE, offset: 0x39CFE, size: 0x8, addend: 0x0, symName: __ZNKSt3__117__compressed_pairIPNS_12basic_stringIcNS_11char_traitsIcEENS_9allocatorIcEEEERNS4_IS6_EEE5firstB8ue170006Ev, symObjAddr: 0x1970C, symBinAddr: 0x10001ACC0, symSize: 0x24 }
  - { offsetInCU: 0x39D24, offset: 0x39D24, size: 0x8, addend: 0x0, symName: __ZNSt3__16vectorINS_12basic_stringIcNS_11char_traitsIcEENS_9allocatorIcEEEENS4_IS6_EEE11__make_iterB8ue170006EPS6_, symObjAddr: 0x19730, symBinAddr: 0x10001ACE4, symSize: 0x30 }
  - { offsetInCU: 0x39D59, offset: 0x39D59, size: 0x8, addend: 0x0, symName: __ZNSt3__111__wrap_iterIPNS_12basic_stringIcNS_11char_traitsIcEENS_9allocatorIcEEEEEC1B8ue170006ES7_, symObjAddr: 0x19760, symBinAddr: 0x10001AD14, symSize: 0x34 }
  - { offsetInCU: 0x39D91, offset: 0x39D91, size: 0x8, addend: 0x0, symName: __ZNSt3__111__wrap_iterIPNS_12basic_stringIcNS_11char_traitsIcEENS_9allocatorIcEEEEEC2B8ue170006ES7_, symObjAddr: 0x19794, symBinAddr: 0x10001AD48, symSize: 0x20 }
  - { offsetInCU: 0x39DC9, offset: 0x39DC9, size: 0x8, addend: 0x0, symName: __ZNKSt3__111__wrap_iterIPNS_12basic_stringIcNS_11char_traitsIcEENS_9allocatorIcEEEEE4baseB8ue170006Ev, symObjAddr: 0x197FC, symBinAddr: 0x10001ADB0, symSize: 0x18 }
  - { offsetInCU: 0x39DEF, offset: 0x39DEF, size: 0x8, addend: 0x0, symName: __ZNKSt3__16chrono8durationIxNS_5ratioILl1ELl1000000000EEEE5countB8ue170006Ev, symObjAddr: 0x19860, symBinAddr: 0x10001AE14, symSize: 0x18 }
  - { offsetInCU: 0x39E26, offset: 0x39E26, size: 0x8, addend: 0x0, symName: __ZNSt3__16chrono8durationIxNS_5ratioILl1ELl1000EEEEC1B8ue170006IxEERKT_PNS_9enable_ifIXaasr14is_convertibleIS8_xEE5valueooL_ZNS_17integral_constantIbLb0EE5valueEEntsr23treat_as_floating_pointIS6_EE5valueEvE4typeE, symObjAddr: 0x19878, symBinAddr: 0x10001AE2C, symSize: 0x3C }
  - { offsetInCU: 0x39E72, offset: 0x39E72, size: 0x8, addend: 0x0, symName: __ZNSt3__16chrono8durationIxNS_5ratioILl1ELl1000EEEEC2B8ue170006IxEERKT_PNS_9enable_ifIXaasr14is_convertibleIS8_xEE5valueooL_ZNS_17integral_constantIbLb0EE5valueEEntsr23treat_as_floating_pointIS6_EE5valueEvE4typeE, symObjAddr: 0x198B4, symBinAddr: 0x10001AE68, symSize: 0x28 }
  - { offsetInCU: 0x39EE0, offset: 0x39EE0, size: 0x8, addend: 0x0, symName: __ZNKSt3__16chrono10time_pointINS0_12steady_clockENS0_8durationIxNS_5ratioILl1ELl1000000000EEEEEE16time_since_epochB8ue170006Ev, symObjAddr: 0x1994C, symBinAddr: 0x10001AF00, symSize: 0x20 }
  - { offsetInCU: 0x39F06, offset: 0x39F06, size: 0x8, addend: 0x0, symName: __ZNSt3__16chrono8durationIxNS_5ratioILl1ELl1000000000EEEEC1B8ue170006IxEERKT_PNS_9enable_ifIXaasr14is_convertibleIS8_xEE5valueooL_ZNS_17integral_constantIbLb0EE5valueEEntsr23treat_as_floating_pointIS6_EE5valueEvE4typeE, symObjAddr: 0x1996C, symBinAddr: 0x10001AF20, symSize: 0x3C }
  - { offsetInCU: 0x39F52, offset: 0x39F52, size: 0x8, addend: 0x0, symName: __ZNSt3__16chrono8durationIxNS_5ratioILl1ELl1000000000EEEEC2B8ue170006IxEERKT_PNS_9enable_ifIXaasr14is_convertibleIS8_xEE5valueooL_ZNS_17integral_constantIbLb0EE5valueEEntsr23treat_as_floating_pointIS6_EE5valueEvE4typeE, symObjAddr: 0x199A8, symBinAddr: 0x10001AF5C, symSize: 0x28 }
  - { offsetInCU: 0x39F9E, offset: 0x39F9E, size: 0x8, addend: 0x0, symName: __ZN4RingC2Ev, symObjAddr: 0x199D0, symBinAddr: 0x10001AF84, symSize: 0x3C }
  - { offsetInCU: 0x39FC8, offset: 0x39FC8, size: 0x8, addend: 0x0, symName: __ZNKSt3__110unique_ptrI4NodeNS_14default_deleteIS1_EEE3getB8ue170006Ev, symObjAddr: 0x19AE8, symBinAddr: 0x10001B09C, symSize: 0x28 }
  - { offsetInCU: 0x39FEE, offset: 0x39FEE, size: 0x8, addend: 0x0, symName: __ZNSt3__16vectorINS_10unique_ptrI4NodeNS_14default_deleteIS2_EEEENS_9allocatorIS5_EEE9push_backB8ue170006EOS5_, symObjAddr: 0x19B10, symBinAddr: 0x10001B0C4, symSize: 0x6C }
  - { offsetInCU: 0x3A025, offset: 0x3A025, size: 0x8, addend: 0x0, symName: __ZNSt3__110unique_ptrI4NodeNS_14default_deleteIS1_EEEC1B8ue170006ILb1EvEEPS1_, symObjAddr: 0x19B7C, symBinAddr: 0x10001B130, symSize: 0x34 }
  - { offsetInCU: 0x3A068, offset: 0x3A068, size: 0x8, addend: 0x0, symName: __ZNSt3__110unique_ptrI4NodeNS_14default_deleteIS1_EEEC2B8ue170006ILb1EvEEPS1_, symObjAddr: 0x19BB0, symBinAddr: 0x10001B164, symSize: 0x44 }
  - { offsetInCU: 0x3A0AB, offset: 0x3A0AB, size: 0x8, addend: 0x0, symName: __ZNSt3__117__compressed_pairIP4NodeNS_14default_deleteIS1_EEEC1B8ue170006IRS2_NS_16__value_init_tagEEEOT_OT0_, symObjAddr: 0x19BF4, symBinAddr: 0x10001B1A8, symSize: 0x3C }
  - { offsetInCU: 0x3A103, offset: 0x3A103, size: 0x8, addend: 0x0, symName: __ZNSt3__117__compressed_pairIP4NodeNS_14default_deleteIS1_EEEC2B8ue170006IRS2_NS_16__value_init_tagEEEOT_OT0_, symObjAddr: 0x19C30, symBinAddr: 0x10001B1E4, symSize: 0x40 }
  - { offsetInCU: 0x3A15B, offset: 0x3A15B, size: 0x8, addend: 0x0, symName: __ZNSt3__122__compressed_pair_elemIP4NodeLi0ELb0EEC2B8ue170006IRS2_vEEOT_, symObjAddr: 0x19C70, symBinAddr: 0x10001B224, symSize: 0x24 }
  - { offsetInCU: 0x3A19D, offset: 0x3A19D, size: 0x8, addend: 0x0, symName: __ZNSt3__122__compressed_pair_elemINS_14default_deleteI4NodeEELi1ELb1EEC2B8ue170006ENS_16__value_init_tagE, symObjAddr: 0x19C94, symBinAddr: 0x10001B248, symSize: 0x14 }
  - { offsetInCU: 0x3A1D1, offset: 0x3A1D1, size: 0x8, addend: 0x0, symName: __ZNKSt3__117__compressed_pairIP4NodeNS_14default_deleteIS1_EEE5firstB8ue170006Ev, symObjAddr: 0x19CA8, symBinAddr: 0x10001B25C, symSize: 0x24 }
  - { offsetInCU: 0x3A1F7, offset: 0x3A1F7, size: 0x8, addend: 0x0, symName: __ZNKSt3__122__compressed_pair_elemIP4NodeLi0ELb0EE5__getB8ue170006Ev, symObjAddr: 0x19CCC, symBinAddr: 0x10001B280, symSize: 0x14 }
  - { offsetInCU: 0x3A21D, offset: 0x3A21D, size: 0x8, addend: 0x0, symName: __ZNSt3__16vectorINS_10unique_ptrI4NodeNS_14default_deleteIS2_EEEENS_9allocatorIS5_EEE9__end_capB8ue170006Ev, symObjAddr: 0x19CE0, symBinAddr: 0x10001B294, symSize: 0x28 }
  - { offsetInCU: 0x3A243, offset: 0x3A243, size: 0x8, addend: 0x0, symName: __ZNSt3__16vectorINS_10unique_ptrI4NodeNS_14default_deleteIS2_EEEENS_9allocatorIS5_EEE22__construct_one_at_endB8ue170006IJS5_EEEvDpOT_, symObjAddr: 0x19D08, symBinAddr: 0x10001B2BC, symSize: 0x90 }
  - { offsetInCU: 0x3A292, offset: 0x3A292, size: 0x8, addend: 0x0, symName: __ZNSt3__16vectorINS_10unique_ptrI4NodeNS_14default_deleteIS2_EEEENS_9allocatorIS5_EEE21__push_back_slow_pathIS5_EEvOT_, symObjAddr: 0x19D98, symBinAddr: 0x10001B34C, symSize: 0xD8 }
  - { offsetInCU: 0x3A2F0, offset: 0x3A2F0, size: 0x8, addend: 0x0, symName: __ZNSt3__117__compressed_pairIPNS_10unique_ptrI4NodeNS_14default_deleteIS2_EEEENS_9allocatorIS5_EEE5firstB8ue170006Ev, symObjAddr: 0x19E70, symBinAddr: 0x10001B424, symSize: 0x24 }
  - { offsetInCU: 0x3A316, offset: 0x3A316, size: 0x8, addend: 0x0, symName: __ZNSt3__122__compressed_pair_elemIPNS_10unique_ptrI4NodeNS_14default_deleteIS2_EEEELi0ELb0EE5__getB8ue170006Ev, symObjAddr: 0x19E94, symBinAddr: 0x10001B448, symSize: 0x14 }
  - { offsetInCU: 0x3A358, offset: 0x3A358, size: 0x8, addend: 0x0, symName: __ZNSt3__16vectorINS_10unique_ptrI4NodeNS_14default_deleteIS2_EEEENS_9allocatorIS5_EEE21_ConstructTransactionC1B8ue170006ERS8_m, symObjAddr: 0x19EA8, symBinAddr: 0x10001B45C, symSize: 0x3C }
  - { offsetInCU: 0x3A3A0, offset: 0x3A3A0, size: 0x8, addend: 0x0, symName: __ZNSt3__116allocator_traitsINS_9allocatorINS_10unique_ptrI4NodeNS_14default_deleteIS3_EEEEEEE9constructB8ue170006IS6_JS6_EvvEEvRS7_PT_DpOT0_, symObjAddr: 0x19EE4, symBinAddr: 0x10001B498, symSize: 0x30 }
  - { offsetInCU: 0x3A3F4, offset: 0x3A3F4, size: 0x8, addend: 0x0, symName: __ZNSt3__16vectorINS_10unique_ptrI4NodeNS_14default_deleteIS2_EEEENS_9allocatorIS5_EEE21_ConstructTransactionD1B8ue170006Ev, symObjAddr: 0x19F14, symBinAddr: 0x10001B4C8, symSize: 0x2C }
  - { offsetInCU: 0x3A41E, offset: 0x3A41E, size: 0x8, addend: 0x0, symName: __ZNSt3__16vectorINS_10unique_ptrI4NodeNS_14default_deleteIS2_EEEENS_9allocatorIS5_EEE21_ConstructTransactionC2B8ue170006ERS8_m, symObjAddr: 0x19F40, symBinAddr: 0x10001B4F4, symSize: 0x44 }
  - { offsetInCU: 0x3A466, offset: 0x3A466, size: 0x8, addend: 0x0, symName: __ZNSt3__110unique_ptrI4NodeNS_14default_deleteIS1_EEEC1B8ue170006EOS4_, symObjAddr: 0x19FC0, symBinAddr: 0x10001B574, symSize: 0x34 }
  - { offsetInCU: 0x3A49E, offset: 0x3A49E, size: 0x8, addend: 0x0, symName: __ZNSt3__110unique_ptrI4NodeNS_14default_deleteIS1_EEEC2B8ue170006EOS4_, symObjAddr: 0x19FF4, symBinAddr: 0x10001B5A8, symSize: 0x60 }
  - { offsetInCU: 0x3A4D6, offset: 0x3A4D6, size: 0x8, addend: 0x0, symName: __ZNSt3__110unique_ptrI4NodeNS_14default_deleteIS1_EEE7releaseB8ue170006Ev, symObjAddr: 0x1A054, symBinAddr: 0x10001B608, symSize: 0x44 }
  - { offsetInCU: 0x3A50B, offset: 0x3A50B, size: 0x8, addend: 0x0, symName: __ZNSt3__110unique_ptrI4NodeNS_14default_deleteIS1_EEE11get_deleterB8ue170006Ev, symObjAddr: 0x1A098, symBinAddr: 0x10001B64C, symSize: 0x24 }
  - { offsetInCU: 0x3A537, offset: 0x3A537, size: 0x8, addend: 0x0, symName: __ZNSt3__117__compressed_pairIP4NodeNS_14default_deleteIS1_EEEC1B8ue170006IS2_S4_EEOT_OT0_, symObjAddr: 0x1A0BC, symBinAddr: 0x10001B670, symSize: 0x3C }
  - { offsetInCU: 0x3A58F, offset: 0x3A58F, size: 0x8, addend: 0x0, symName: __ZNSt3__117__compressed_pairIP4NodeNS_14default_deleteIS1_EEEC2B8ue170006IS2_S4_EEOT_OT0_, symObjAddr: 0x1A0F8, symBinAddr: 0x10001B6AC, symSize: 0x44 }
  - { offsetInCU: 0x3A5E7, offset: 0x3A5E7, size: 0x8, addend: 0x0, symName: __ZNSt3__122__compressed_pair_elemIP4NodeLi0ELb0EEC2B8ue170006IS2_vEEOT_, symObjAddr: 0x1A13C, symBinAddr: 0x10001B6F0, symSize: 0x24 }
  - { offsetInCU: 0x3A629, offset: 0x3A629, size: 0x8, addend: 0x0, symName: __ZNSt3__122__compressed_pair_elemINS_14default_deleteI4NodeEELi1ELb1EEC2B8ue170006IS3_vEEOT_, symObjAddr: 0x1A160, symBinAddr: 0x10001B714, symSize: 0x18 }
  - { offsetInCU: 0x3A66B, offset: 0x3A66B, size: 0x8, addend: 0x0, symName: __ZNSt3__16vectorINS_10unique_ptrI4NodeNS_14default_deleteIS2_EEEENS_9allocatorIS5_EEE21_ConstructTransactionD2B8ue170006Ev, symObjAddr: 0x1A178, symBinAddr: 0x10001B72C, symSize: 0x20 }
  - { offsetInCU: 0x3A695, offset: 0x3A695, size: 0x8, addend: 0x0, symName: __ZNKSt3__16vectorINS_10unique_ptrI4NodeNS_14default_deleteIS2_EEEENS_9allocatorIS5_EEE11__recommendB8ue170006Em, symObjAddr: 0x1A198, symBinAddr: 0x10001B74C, symSize: 0xB4 }
  - { offsetInCU: 0x3A6EA, offset: 0x3A6EA, size: 0x8, addend: 0x0, symName: __ZNSt3__114__split_bufferINS_10unique_ptrI4NodeNS_14default_deleteIS2_EEEERNS_9allocatorIS5_EEEC1EmmS8_, symObjAddr: 0x1A24C, symBinAddr: 0x10001B800, symSize: 0x44 }
  - { offsetInCU: 0x3A740, offset: 0x3A740, size: 0x8, addend: 0x0, symName: __ZNSt3__114__split_bufferINS_10unique_ptrI4NodeNS_14default_deleteIS2_EEEERNS_9allocatorIS5_EEED1Ev, symObjAddr: 0x1A3A0, symBinAddr: 0x10001B954, symSize: 0x2C }
  - { offsetInCU: 0x3A76C, offset: 0x3A76C, size: 0x8, addend: 0x0, symName: __ZNKSt3__16vectorINS_10unique_ptrI4NodeNS_14default_deleteIS2_EEEENS_9allocatorIS5_EEE8max_sizeEv, symObjAddr: 0x1A3CC, symBinAddr: 0x10001B980, symSize: 0x60 }
  - { offsetInCU: 0x3A794, offset: 0x3A794, size: 0x8, addend: 0x0, symName: __ZNKSt3__16vectorINS_10unique_ptrI4NodeNS_14default_deleteIS2_EEEENS_9allocatorIS5_EEE20__throw_length_errorB8ue170006Ev, symObjAddr: 0x1A42C, symBinAddr: 0x10001B9E0, symSize: 0x1C }
  - { offsetInCU: 0x3A7C5, offset: 0x3A7C5, size: 0x8, addend: 0x0, symName: __ZNSt3__116allocator_traitsINS_9allocatorINS_10unique_ptrI4NodeNS_14default_deleteIS3_EEEEEEE8max_sizeB8ue170006IS7_vvEEmRKS7_, symObjAddr: 0x1A448, symBinAddr: 0x10001B9FC, symSize: 0x28 }
  - { offsetInCU: 0x3A7F0, offset: 0x3A7F0, size: 0x8, addend: 0x0, symName: __ZNKSt3__16vectorINS_10unique_ptrI4NodeNS_14default_deleteIS2_EEEENS_9allocatorIS5_EEE7__allocB8ue170006Ev, symObjAddr: 0x1A470, symBinAddr: 0x10001BA24, symSize: 0x28 }
  - { offsetInCU: 0x3A816, offset: 0x3A816, size: 0x8, addend: 0x0, symName: __ZNKSt3__117__compressed_pairIPNS_10unique_ptrI4NodeNS_14default_deleteIS2_EEEENS_9allocatorIS5_EEE6secondB8ue170006Ev, symObjAddr: 0x1A498, symBinAddr: 0x10001BA4C, symSize: 0x24 }
  - { offsetInCU: 0x3A83C, offset: 0x3A83C, size: 0x8, addend: 0x0, symName: __ZNKSt3__122__compressed_pair_elemINS_9allocatorINS_10unique_ptrI4NodeNS_14default_deleteIS3_EEEEEELi1ELb1EE5__getB8ue170006Ev, symObjAddr: 0x1A4BC, symBinAddr: 0x10001BA70, symSize: 0x14 }
  - { offsetInCU: 0x3A862, offset: 0x3A862, size: 0x8, addend: 0x0, symName: __ZNSt3__114__split_bufferINS_10unique_ptrI4NodeNS_14default_deleteIS2_EEEERNS_9allocatorIS5_EEEC2EmmS8_, symObjAddr: 0x1A4D0, symBinAddr: 0x10001BA84, symSize: 0xD4 }
  - { offsetInCU: 0x3A8D5, offset: 0x3A8D5, size: 0x8, addend: 0x0, symName: __ZNSt3__117__compressed_pairIPNS_10unique_ptrI4NodeNS_14default_deleteIS2_EEEERNS_9allocatorIS5_EEEC1B8ue170006IDnS9_EEOT_OT0_, symObjAddr: 0x1A5A4, symBinAddr: 0x10001BB58, symSize: 0x3C }
  - { offsetInCU: 0x3A92D, offset: 0x3A92D, size: 0x8, addend: 0x0, symName: __ZNSt3__114__split_bufferINS_10unique_ptrI4NodeNS_14default_deleteIS2_EEEERNS_9allocatorIS5_EEE7__allocB8ue170006Ev, symObjAddr: 0x1A620, symBinAddr: 0x10001BBD4, symSize: 0x28 }
  - { offsetInCU: 0x3A953, offset: 0x3A953, size: 0x8, addend: 0x0, symName: __ZNSt3__114__split_bufferINS_10unique_ptrI4NodeNS_14default_deleteIS2_EEEERNS_9allocatorIS5_EEE9__end_capB8ue170006Ev, symObjAddr: 0x1A648, symBinAddr: 0x10001BBFC, symSize: 0x28 }
  - { offsetInCU: 0x3A979, offset: 0x3A979, size: 0x8, addend: 0x0, symName: __ZNSt3__117__compressed_pairIPNS_10unique_ptrI4NodeNS_14default_deleteIS2_EEEERNS_9allocatorIS5_EEEC2B8ue170006IDnS9_EEOT_OT0_, symObjAddr: 0x1A670, symBinAddr: 0x10001BC24, symSize: 0x48 }
  - { offsetInCU: 0x3A9D1, offset: 0x3A9D1, size: 0x8, addend: 0x0, symName: __ZNSt3__122__compressed_pair_elemIRNS_9allocatorINS_10unique_ptrI4NodeNS_14default_deleteIS3_EEEEEELi1ELb0EEC2B8ue170006IS8_vEEOT_, symObjAddr: 0x1A6B8, symBinAddr: 0x10001BC6C, symSize: 0x20 }
  - { offsetInCU: 0x3AA13, offset: 0x3AA13, size: 0x8, addend: 0x0, symName: __ZNSt3__19allocatorINS_10unique_ptrI4NodeNS_14default_deleteIS2_EEEEE8allocateB8ue170006Em, symObjAddr: 0x1A6D8, symBinAddr: 0x10001BC8C, symSize: 0x58 }
  - { offsetInCU: 0x3AA47, offset: 0x3AA47, size: 0x8, addend: 0x0, symName: __ZNSt3__117__compressed_pairIPNS_10unique_ptrI4NodeNS_14default_deleteIS2_EEEERNS_9allocatorIS5_EEE6secondB8ue170006Ev, symObjAddr: 0x1A730, symBinAddr: 0x10001BCE4, symSize: 0x28 }
  - { offsetInCU: 0x3AA6D, offset: 0x3AA6D, size: 0x8, addend: 0x0, symName: __ZNSt3__122__compressed_pair_elemIRNS_9allocatorINS_10unique_ptrI4NodeNS_14default_deleteIS3_EEEEEELi1ELb0EE5__getB8ue170006Ev, symObjAddr: 0x1A758, symBinAddr: 0x10001BD0C, symSize: 0x18 }
  - { offsetInCU: 0x3AA93, offset: 0x3AA93, size: 0x8, addend: 0x0, symName: __ZNSt3__117__compressed_pairIPNS_10unique_ptrI4NodeNS_14default_deleteIS2_EEEERNS_9allocatorIS5_EEE5firstB8ue170006Ev, symObjAddr: 0x1A770, symBinAddr: 0x10001BD24, symSize: 0x24 }
  - { offsetInCU: 0x3AAB9, offset: 0x3AAB9, size: 0x8, addend: 0x0, symName: __ZNSt3__116reverse_iteratorIPNS_10unique_ptrI4NodeNS_14default_deleteIS2_EEEEEC1B8ue170006ES6_, symObjAddr: 0x1A8C0, symBinAddr: 0x10001BE74, symSize: 0x34 }
  - { offsetInCU: 0x3AAF1, offset: 0x3AAF1, size: 0x8, addend: 0x0, symName: __ZNKSt3__116reverse_iteratorIPNS_10unique_ptrI4NodeNS_14default_deleteIS2_EEEEE4baseB8ue170006Ev, symObjAddr: 0x1A8F4, symBinAddr: 0x10001BEA8, symSize: 0x18 }
  - { offsetInCU: 0x3AB17, offset: 0x3AB17, size: 0x8, addend: 0x0, symName: __ZNKSt3__16vectorINS_10unique_ptrI4NodeNS_14default_deleteIS2_EEEENS_9allocatorIS5_EEE14__annotate_newB8ue170006Em, symObjAddr: 0x1A948, symBinAddr: 0x10001BEFC, symSize: 0xAC }
  - { offsetInCU: 0x3AB4C, offset: 0x3AB4C, size: 0x8, addend: 0x0, symName: __ZNSt3__129_AllocatorDestroyRangeReverseINS_9allocatorINS_10unique_ptrI4NodeNS_14default_deleteIS3_EEEEEENS_16reverse_iteratorIPS6_EEEC1B8ue170006ERS7_RSA_SD_, symObjAddr: 0x1AA40, symBinAddr: 0x10001BFF4, symSize: 0x44 }
  - { offsetInCU: 0x3ABA3, offset: 0x3ABA3, size: 0x8, addend: 0x0, symName: __ZNKSt3__116reverse_iteratorIPNS_10unique_ptrI4NodeNS_14default_deleteIS2_EEEEEdeB8ue170006Ev, symObjAddr: 0x1AAF0, symBinAddr: 0x10001C0A4, symSize: 0x28 }
  - { offsetInCU: 0x3ABD7, offset: 0x3ABD7, size: 0x8, addend: 0x0, symName: __ZNSt3__116reverse_iteratorIPNS_10unique_ptrI4NodeNS_14default_deleteIS2_EEEEEppB8ue170006Ev, symObjAddr: 0x1AB18, symBinAddr: 0x10001C0CC, symSize: 0x20 }
  - { offsetInCU: 0x3ABFD, offset: 0x3ABFD, size: 0x8, addend: 0x0, symName: __ZNSt3__128__exception_guard_exceptionsINS_29_AllocatorDestroyRangeReverseINS_9allocatorINS_10unique_ptrI4NodeNS_14default_deleteIS4_EEEEEENS_16reverse_iteratorIPS7_EEEEE10__completeB8ue170006Ev, symObjAddr: 0x1AB38, symBinAddr: 0x10001C0EC, symSize: 0x1C }
  - { offsetInCU: 0x3AC23, offset: 0x3AC23, size: 0x8, addend: 0x0, symName: __ZNSt3__128__exception_guard_exceptionsINS_29_AllocatorDestroyRangeReverseINS_9allocatorINS_10unique_ptrI4NodeNS_14default_deleteIS4_EEEEEENS_16reverse_iteratorIPS7_EEEEED1B8ue170006Ev, symObjAddr: 0x1AB54, symBinAddr: 0x10001C108, symSize: 0x2C }
  - { offsetInCU: 0x3AC4D, offset: 0x3AC4D, size: 0x8, addend: 0x0, symName: __ZNSt3__128__exception_guard_exceptionsINS_29_AllocatorDestroyRangeReverseINS_9allocatorINS_10unique_ptrI4NodeNS_14default_deleteIS4_EEEEEENS_16reverse_iteratorIPS7_EEEEEC1B8ue170006ESC_, symObjAddr: 0x1AB80, symBinAddr: 0x10001C134, symSize: 0x34 }
  - { offsetInCU: 0x3AC86, offset: 0x3AC86, size: 0x8, addend: 0x0, symName: __ZNSt3__128__exception_guard_exceptionsINS_29_AllocatorDestroyRangeReverseINS_9allocatorINS_10unique_ptrI4NodeNS_14default_deleteIS4_EEEEEENS_16reverse_iteratorIPS7_EEEEEC2B8ue170006ESC_, symObjAddr: 0x1ABB4, symBinAddr: 0x10001C168, symSize: 0x30 }
  - { offsetInCU: 0x3ACBF, offset: 0x3ACBF, size: 0x8, addend: 0x0, symName: __ZNSt3__129_AllocatorDestroyRangeReverseINS_9allocatorINS_10unique_ptrI4NodeNS_14default_deleteIS3_EEEEEENS_16reverse_iteratorIPS6_EEEC2B8ue170006ERS7_RSA_SD_, symObjAddr: 0x1ABE4, symBinAddr: 0x10001C198, symSize: 0x38 }
  - { offsetInCU: 0x3AD1C, offset: 0x3AD1C, size: 0x8, addend: 0x0, symName: __ZNSt3__119__to_address_helperINS_16reverse_iteratorIPNS_10unique_ptrI4NodeNS_14default_deleteIS3_EEEEEEvE6__callB8ue170006ERKS8_, symObjAddr: 0x1AC1C, symBinAddr: 0x10001C1D0, symSize: 0x38 }
  - { offsetInCU: 0x3AD3F, offset: 0x3AD3F, size: 0x8, addend: 0x0, symName: __ZNKSt3__116reverse_iteratorIPNS_10unique_ptrI4NodeNS_14default_deleteIS2_EEEEEptB8ue170006Ev, symObjAddr: 0x1AC54, symBinAddr: 0x10001C208, symSize: 0x2C }
  - { offsetInCU: 0x3AD65, offset: 0x3AD65, size: 0x8, addend: 0x0, symName: __ZNSt3__128__exception_guard_exceptionsINS_29_AllocatorDestroyRangeReverseINS_9allocatorINS_10unique_ptrI4NodeNS_14default_deleteIS4_EEEEEENS_16reverse_iteratorIPS7_EEEEED2B8ue170006Ev, symObjAddr: 0x1AD1C, symBinAddr: 0x10001C2D0, symSize: 0x50 }
  - { offsetInCU: 0x3AD8F, offset: 0x3AD8F, size: 0x8, addend: 0x0, symName: __ZNKSt3__129_AllocatorDestroyRangeReverseINS_9allocatorINS_10unique_ptrI4NodeNS_14default_deleteIS3_EEEEEENS_16reverse_iteratorIPS6_EEEclB8ue170006Ev, symObjAddr: 0x1AD6C, symBinAddr: 0x10001C320, symSize: 0xB4 }
  - { offsetInCU: 0x3ADB6, offset: 0x3ADB6, size: 0x8, addend: 0x0, symName: __ZNSt3__116reverse_iteratorINS0_IPNS_10unique_ptrI4NodeNS_14default_deleteIS2_EEEEEEEC1B8ue170006ES7_, symObjAddr: 0x1AE90, symBinAddr: 0x10001C444, symSize: 0x3C }
  - { offsetInCU: 0x3ADEE, offset: 0x3ADEE, size: 0x8, addend: 0x0, symName: __ZNSt3__116reverse_iteratorINS0_IPNS_10unique_ptrI4NodeNS_14default_deleteIS2_EEEEEEEppB8ue170006Ev, symObjAddr: 0x1AF50, symBinAddr: 0x10001C504, symSize: 0x30 }
  - { offsetInCU: 0x3AE14, offset: 0x3AE14, size: 0x8, addend: 0x0, symName: __ZNKSt3__116reverse_iteratorINS0_IPNS_10unique_ptrI4NodeNS_14default_deleteIS2_EEEEEEE4baseB8ue170006Ev, symObjAddr: 0x1AF80, symBinAddr: 0x10001C534, symSize: 0x24 }
  - { offsetInCU: 0x3AE40, offset: 0x3AE40, size: 0x8, addend: 0x0, symName: __ZNSt3__119__to_address_helperINS_16reverse_iteratorINS1_IPNS_10unique_ptrI4NodeNS_14default_deleteIS3_EEEEEEEEvE6__callB8ue170006ERKS9_, symObjAddr: 0x1AFA4, symBinAddr: 0x10001C558, symSize: 0x38 }
  - { offsetInCU: 0x3AE63, offset: 0x3AE63, size: 0x8, addend: 0x0, symName: __ZNKSt3__116reverse_iteratorINS0_IPNS_10unique_ptrI4NodeNS_14default_deleteIS2_EEEEEEEptB8ue170006Ev, symObjAddr: 0x1AFDC, symBinAddr: 0x10001C590, symSize: 0x4C }
  - { offsetInCU: 0x3AE89, offset: 0x3AE89, size: 0x8, addend: 0x0, symName: __ZNSt3__116reverse_iteratorIPNS_10unique_ptrI4NodeNS_14default_deleteIS2_EEEEEpLB8ue170006El, symObjAddr: 0x1B0D8, symBinAddr: 0x10001C68C, symSize: 0x30 }
  - { offsetInCU: 0x3AEBD, offset: 0x3AEBD, size: 0x8, addend: 0x0, symName: __ZNSt3__116reverse_iteratorIPNS_10unique_ptrI4NodeNS_14default_deleteIS2_EEEEEmmB8ue170006Ev, symObjAddr: 0x1B108, symBinAddr: 0x10001C6BC, symSize: 0x20 }
  - { offsetInCU: 0x3AEE3, offset: 0x3AEE3, size: 0x8, addend: 0x0, symName: __ZNSt3__116reverse_iteratorINS0_IPNS_10unique_ptrI4NodeNS_14default_deleteIS2_EEEEEEEC2B8ue170006ES7_, symObjAddr: 0x1B128, symBinAddr: 0x10001C6DC, symSize: 0x2C }
  - { offsetInCU: 0x3AF1B, offset: 0x3AF1B, size: 0x8, addend: 0x0, symName: __ZNSt3__116reverse_iteratorIPNS_10unique_ptrI4NodeNS_14default_deleteIS2_EEEEEC2B8ue170006ES6_, symObjAddr: 0x1B154, symBinAddr: 0x10001C708, symSize: 0x28 }
  - { offsetInCU: 0x3AF53, offset: 0x3AF53, size: 0x8, addend: 0x0, symName: __ZNSt3__114__split_bufferINS_10unique_ptrI4NodeNS_14default_deleteIS2_EEEERNS_9allocatorIS5_EEED2Ev, symObjAddr: 0x1B17C, symBinAddr: 0x10001C730, symSize: 0x8C }
  - { offsetInCU: 0x3AF7F, offset: 0x3AF7F, size: 0x8, addend: 0x0, symName: __ZNSt3__114__split_bufferINS_10unique_ptrI4NodeNS_14default_deleteIS2_EEEERNS_9allocatorIS5_EEE5clearB8ue170006Ev, symObjAddr: 0x1B208, symBinAddr: 0x10001C7BC, symSize: 0x28 }
  - { offsetInCU: 0x3AFA5, offset: 0x3AFA5, size: 0x8, addend: 0x0, symName: __ZNKSt3__114__split_bufferINS_10unique_ptrI4NodeNS_14default_deleteIS2_EEEERNS_9allocatorIS5_EEE8capacityB8ue170006Ev, symObjAddr: 0x1B230, symBinAddr: 0x10001C7E4, symSize: 0x40 }
  - { offsetInCU: 0x3AFCB, offset: 0x3AFCB, size: 0x8, addend: 0x0, symName: __ZNSt3__114__split_bufferINS_10unique_ptrI4NodeNS_14default_deleteIS2_EEEERNS_9allocatorIS5_EEE17__destruct_at_endB8ue170006EPS5_, symObjAddr: 0x1B270, symBinAddr: 0x10001C824, symSize: 0x2C }
  - { offsetInCU: 0x3AFFF, offset: 0x3AFFF, size: 0x8, addend: 0x0, symName: __ZNSt3__114__split_bufferINS_10unique_ptrI4NodeNS_14default_deleteIS2_EEEERNS_9allocatorIS5_EEE17__destruct_at_endB8ue170006EPS5_NS_17integral_constantIbLb0EEE, symObjAddr: 0x1B29C, symBinAddr: 0x10001C850, symSize: 0x80 }
  - { offsetInCU: 0x3B03F, offset: 0x3B03F, size: 0x8, addend: 0x0, symName: __ZNKSt3__114__split_bufferINS_10unique_ptrI4NodeNS_14default_deleteIS2_EEEERNS_9allocatorIS5_EEE9__end_capB8ue170006Ev, symObjAddr: 0x1B31C, symBinAddr: 0x10001C8D0, symSize: 0x28 }
  - { offsetInCU: 0x3B065, offset: 0x3B065, size: 0x8, addend: 0x0, symName: __ZNKSt3__117__compressed_pairIPNS_10unique_ptrI4NodeNS_14default_deleteIS2_EEEERNS_9allocatorIS5_EEE5firstB8ue170006Ev, symObjAddr: 0x1B344, symBinAddr: 0x10001C8F8, symSize: 0x24 }
  - { offsetInCU: 0x3B08B, offset: 0x3B08B, size: 0x8, addend: 0x0, symName: __ZNSt3__16vectorINS_12basic_stringIcNS_11char_traitsIcEENS_9allocatorIcEEEENS4_IS6_EEEC2B8ue170006ESt16initializer_listIS6_E, symObjAddr: 0x1B368, symBinAddr: 0x10001C91C, symSize: 0x120 }
  - { offsetInCU: 0x3B0DB, offset: 0x3B0DB, size: 0x8, addend: 0x0, symName: __ZNSt3__16vectorINS_12basic_stringIcNS_11char_traitsIcEENS_9allocatorIcEEEENS4_IS6_EEE16__destroy_vectorC1B8ue170006ERS8_, symObjAddr: 0x1B4C8, symBinAddr: 0x10001CA7C, symSize: 0x34 }
  - { offsetInCU: 0x3B114, offset: 0x3B114, size: 0x8, addend: 0x0, symName: __ZNKSt16initializer_listINSt3__112basic_stringIcNS0_11char_traitsIcEENS0_9allocatorIcEEEEE4sizeB8ue170006Ev, symObjAddr: 0x1B4FC, symBinAddr: 0x10001CAB0, symSize: 0x18 }
  - { offsetInCU: 0x3B13A, offset: 0x3B13A, size: 0x8, addend: 0x0, symName: __ZNSt3__16vectorINS_12basic_stringIcNS_11char_traitsIcEENS_9allocatorIcEEEENS4_IS6_EEE11__vallocateB8ue170006Em, symObjAddr: 0x1B514, symBinAddr: 0x10001CAC8, symSize: 0xB4 }
  - { offsetInCU: 0x3B17E, offset: 0x3B17E, size: 0x8, addend: 0x0, symName: __ZNSt3__16vectorINS_12basic_stringIcNS_11char_traitsIcEENS_9allocatorIcEEEENS4_IS6_EEE18__construct_at_endIPKS6_SB_EEvT_T0_m, symObjAddr: 0x1B5C8, symBinAddr: 0x10001CB7C, symSize: 0x8C }
  - { offsetInCU: 0x3B1F4, offset: 0x3B1F4, size: 0x8, addend: 0x0, symName: __ZNKSt16initializer_listINSt3__112basic_stringIcNS0_11char_traitsIcEENS0_9allocatorIcEEEEE5beginB8ue170006Ev, symObjAddr: 0x1B654, symBinAddr: 0x10001CC08, symSize: 0x18 }
  - { offsetInCU: 0x3B21A, offset: 0x3B21A, size: 0x8, addend: 0x0, symName: __ZNKSt16initializer_listINSt3__112basic_stringIcNS0_11char_traitsIcEENS0_9allocatorIcEEEEE3endB8ue170006Ev, symObjAddr: 0x1B66C, symBinAddr: 0x10001CC20, symSize: 0x28 }
  - { offsetInCU: 0x3B240, offset: 0x3B240, size: 0x8, addend: 0x0, symName: __ZNSt3__128__exception_guard_exceptionsINS_6vectorINS_12basic_stringIcNS_11char_traitsIcEENS_9allocatorIcEEEENS5_IS7_EEE16__destroy_vectorEE10__completeB8ue170006Ev, symObjAddr: 0x1B694, symBinAddr: 0x10001CC48, symSize: 0x1C }
  - { offsetInCU: 0x3B266, offset: 0x3B266, size: 0x8, addend: 0x0, symName: __ZNSt3__128__exception_guard_exceptionsINS_6vectorINS_12basic_stringIcNS_11char_traitsIcEENS_9allocatorIcEEEENS5_IS7_EEE16__destroy_vectorEED1B8ue170006Ev, symObjAddr: 0x1B6B0, symBinAddr: 0x10001CC64, symSize: 0x2C }
  - { offsetInCU: 0x3B290, offset: 0x3B290, size: 0x8, addend: 0x0, symName: __ZNSt3__128__exception_guard_exceptionsINS_6vectorINS_12basic_stringIcNS_11char_traitsIcEENS_9allocatorIcEEEENS5_IS7_EEE16__destroy_vectorEEC1B8ue170006ESA_, symObjAddr: 0x1B6DC, symBinAddr: 0x10001CC90, symSize: 0x34 }
  - { offsetInCU: 0x3B2C8, offset: 0x3B2C8, size: 0x8, addend: 0x0, symName: __ZNSt3__128__exception_guard_exceptionsINS_6vectorINS_12basic_stringIcNS_11char_traitsIcEENS_9allocatorIcEEEENS5_IS7_EEE16__destroy_vectorEEC2B8ue170006ESA_, symObjAddr: 0x1B710, symBinAddr: 0x10001CCC4, symSize: 0x24 }
  - { offsetInCU: 0x3B300, offset: 0x3B300, size: 0x8, addend: 0x0, symName: __ZNSt3__16vectorINS_12basic_stringIcNS_11char_traitsIcEENS_9allocatorIcEEEENS4_IS6_EEE16__destroy_vectorC2B8ue170006ERS8_, symObjAddr: 0x1B734, symBinAddr: 0x10001CCE8, symSize: 0x20 }
  - { offsetInCU: 0x3B356, offset: 0x3B356, size: 0x8, addend: 0x0, symName: __ZNSt3__119__unwrap_range_implIPKNS_12basic_stringIcNS_11char_traitsIcEENS_9allocatorIcEEEES8_E8__unwrapB8ue170006ES8_S8_, symObjAddr: 0x1B964, symBinAddr: 0x10001CF18, symSize: 0x58 }
  - { offsetInCU: 0x3B38D, offset: 0x3B38D, size: 0x8, addend: 0x0, symName: __ZNSt3__14pairIPKNS_12basic_stringIcNS_11char_traitsIcEENS_9allocatorIcEEEES8_EC1B8ue170006IS8_S8_LPv0EEEOT_OT0_, symObjAddr: 0x1B9E0, symBinAddr: 0x10001CF94, symSize: 0x3C }
  - { offsetInCU: 0x3B3EB, offset: 0x3B3EB, size: 0x8, addend: 0x0, symName: __ZNSt3__118__unwrap_iter_implIPKNS_12basic_stringIcNS_11char_traitsIcEENS_9allocatorIcEEEELb1EE8__unwrapB8ue170006ES8_, symObjAddr: 0x1BA1C, symBinAddr: 0x10001CFD0, symSize: 0x24 }
  - { offsetInCU: 0x3B40E, offset: 0x3B40E, size: 0x8, addend: 0x0, symName: __ZNSt3__14pairIPKNS_12basic_stringIcNS_11char_traitsIcEENS_9allocatorIcEEEES8_EC2B8ue170006IS8_S8_LPv0EEEOT_OT0_, symObjAddr: 0x1BA54, symBinAddr: 0x10001D008, symSize: 0x34 }
  - { offsetInCU: 0x3B46C, offset: 0x3B46C, size: 0x8, addend: 0x0, symName: __ZNSt3__129_AllocatorDestroyRangeReverseINS_9allocatorINS_12basic_stringIcNS_11char_traitsIcEENS1_IcEEEEEEPS6_EC1B8ue170006ERS7_RS8_SB_, symObjAddr: 0x1BAD4, symBinAddr: 0x10001D088, symSize: 0x44 }
  - { offsetInCU: 0x3B4C3, offset: 0x3B4C3, size: 0x8, addend: 0x0, symName: __ZNSt3__116allocator_traitsINS_9allocatorINS_12basic_stringIcNS_11char_traitsIcEENS1_IcEEEEEEE9constructB8ue170006IS6_JRKS6_EvvEEvRS7_PT_DpOT0_, symObjAddr: 0x1BB18, symBinAddr: 0x10001D0CC, symSize: 0x30 }
  - { offsetInCU: 0x3B517, offset: 0x3B517, size: 0x8, addend: 0x0, symName: __ZNSt3__128__exception_guard_exceptionsINS_29_AllocatorDestroyRangeReverseINS_9allocatorINS_12basic_stringIcNS_11char_traitsIcEENS2_IcEEEEEEPS7_EEE10__completeB8ue170006Ev, symObjAddr: 0x1BB48, symBinAddr: 0x10001D0FC, symSize: 0x1C }
  - { offsetInCU: 0x3B53D, offset: 0x3B53D, size: 0x8, addend: 0x0, symName: __ZNSt3__128__exception_guard_exceptionsINS_29_AllocatorDestroyRangeReverseINS_9allocatorINS_12basic_stringIcNS_11char_traitsIcEENS2_IcEEEEEEPS7_EEED1B8ue170006Ev, symObjAddr: 0x1BB64, symBinAddr: 0x10001D118, symSize: 0x2C }
  - { offsetInCU: 0x3B567, offset: 0x3B567, size: 0x8, addend: 0x0, symName: __ZNSt3__128__exception_guard_exceptionsINS_29_AllocatorDestroyRangeReverseINS_9allocatorINS_12basic_stringIcNS_11char_traitsIcEENS2_IcEEEEEEPS7_EEEC1B8ue170006ESA_, symObjAddr: 0x1BB90, symBinAddr: 0x10001D144, symSize: 0x34 }
  - { offsetInCU: 0x3B5A0, offset: 0x3B5A0, size: 0x8, addend: 0x0, symName: __ZNSt3__128__exception_guard_exceptionsINS_29_AllocatorDestroyRangeReverseINS_9allocatorINS_12basic_stringIcNS_11char_traitsIcEENS2_IcEEEEEEPS7_EEEC2B8ue170006ESA_, symObjAddr: 0x1BBC4, symBinAddr: 0x10001D178, symSize: 0x30 }
  - { offsetInCU: 0x3B5D9, offset: 0x3B5D9, size: 0x8, addend: 0x0, symName: __ZNSt3__129_AllocatorDestroyRangeReverseINS_9allocatorINS_12basic_stringIcNS_11char_traitsIcEENS1_IcEEEEEEPS6_EC2B8ue170006ERS7_RS8_SB_, symObjAddr: 0x1BBF4, symBinAddr: 0x10001D1A8, symSize: 0x38 }
  - { offsetInCU: 0x3B630, offset: 0x3B630, size: 0x8, addend: 0x0, symName: __ZNSt3__128__exception_guard_exceptionsINS_29_AllocatorDestroyRangeReverseINS_9allocatorINS_12basic_stringIcNS_11char_traitsIcEENS2_IcEEEEEEPS7_EEED2B8ue170006Ev, symObjAddr: 0x1BC68, symBinAddr: 0x10001D21C, symSize: 0x50 }
  - { offsetInCU: 0x3B65A, offset: 0x3B65A, size: 0x8, addend: 0x0, symName: __ZNKSt3__129_AllocatorDestroyRangeReverseINS_9allocatorINS_12basic_stringIcNS_11char_traitsIcEENS1_IcEEEEEEPS6_EclB8ue170006Ev, symObjAddr: 0x1BCB8, symBinAddr: 0x10001D26C, symSize: 0x68 }
  - { offsetInCU: 0x3B680, offset: 0x3B680, size: 0x8, addend: 0x0, symName: __ZNSt3__118__unwrap_iter_implIPNS_12basic_stringIcNS_11char_traitsIcEENS_9allocatorIcEEEELb1EE8__unwrapB8ue170006ES7_, symObjAddr: 0x1BD90, symBinAddr: 0x10001D344, symSize: 0x24 }
  - { offsetInCU: 0x3B6A3, offset: 0x3B6A3, size: 0x8, addend: 0x0, symName: __ZNSt3__118__unwrap_iter_implIPNS_12basic_stringIcNS_11char_traitsIcEENS_9allocatorIcEEEELb1EE8__rewrapB8ue170006ES7_S7_, symObjAddr: 0x1BDB4, symBinAddr: 0x10001D368, symSize: 0x58 }
  - { offsetInCU: 0x3B6D4, offset: 0x3B6D4, size: 0x8, addend: 0x0, symName: __ZNSt3__128__exception_guard_exceptionsINS_6vectorINS_12basic_stringIcNS_11char_traitsIcEENS_9allocatorIcEEEENS5_IS7_EEE16__destroy_vectorEED2B8ue170006Ev, symObjAddr: 0x1BE0C, symBinAddr: 0x10001D3C0, symSize: 0x50 }
  - { offsetInCU: 0x3B6FE, offset: 0x3B6FE, size: 0x8, addend: 0x0, symName: __ZNSt3__16vectorINS_12basic_stringIcNS_11char_traitsIcEENS_9allocatorIcEEEENS4_IS6_EEE16__destroy_vectorclB8ue170006Ev, symObjAddr: 0x1BE5C, symBinAddr: 0x10001D410, symSize: 0x90 }
  - { offsetInCU: 0x3B724, offset: 0x3B724, size: 0x8, addend: 0x0, symName: __ZNSt3__16vectorINS_12basic_stringIcNS_11char_traitsIcEENS_9allocatorIcEEEENS4_IS6_EEE7__clearB8ue170006Ev, symObjAddr: 0x1BEEC, symBinAddr: 0x10001D4A0, symSize: 0x28 }
  - { offsetInCU: 0x3B74A, offset: 0x3B74A, size: 0x8, addend: 0x0, symName: __ZNSt3__16vectorINS_12basic_stringIcNS_11char_traitsIcEENS_9allocatorIcEEEENS4_IS6_EEE22__base_destruct_at_endB8ue170006EPS6_, symObjAddr: 0x1BF14, symBinAddr: 0x10001D4C8, symSize: 0x8C }
  - { offsetInCU: 0x3B78E, offset: 0x3B78E, size: 0x8, addend: 0x0, symName: __ZNSt3__16vectorINS_12basic_stringIcNS_11char_traitsIcEENS_9allocatorIcEEEENS4_IS6_EEED2B8ue170006Ev, symObjAddr: 0x1BFA0, symBinAddr: 0x10001D554, symSize: 0x40 }
  - { offsetInCU: 0x3B7B8, offset: 0x3B7B8, size: 0x8, addend: 0x0, symName: __ZN4RingD2Ev, symObjAddr: 0x1BFE0, symBinAddr: 0x10001D594, symSize: 0x38 }
  - { offsetInCU: 0x3B7E2, offset: 0x3B7E2, size: 0x8, addend: 0x0, symName: __ZN4NodeD2Ev, symObjAddr: 0x1C018, symBinAddr: 0x10001D5CC, symSize: 0x48 }
  - { offsetInCU: 0x3B80C, offset: 0x3B80C, size: 0x8, addend: 0x0, symName: __ZNSt3__16vectorINS_4pairINS_12basic_stringIcNS_11char_traitsIcEENS_9allocatorIcEEEES7_EENS5_IS8_EEED2B8ue170006Ev, symObjAddr: 0x1C060, symBinAddr: 0x10001D614, symSize: 0x40 }
  - { offsetInCU: 0x3B836, offset: 0x3B836, size: 0x8, addend: 0x0, symName: __ZNSt3__19basic_iosIcNS_11char_traitsIcEEEC2B8ue170006Ev, symObjAddr: 0x1C0A0, symBinAddr: 0x10001D654, symSize: 0x44 }
  - { offsetInCU: 0x3B860, offset: 0x3B860, size: 0x8, addend: 0x0, symName: __ZNSt3__113basic_ostreamIcNS_11char_traitsIcEEEC2B8ue170006EPNS_15basic_streambufIcS2_EE, symObjAddr: 0x1C0E4, symBinAddr: 0x10001D698, symSize: 0x60 }
  - { offsetInCU: 0x3B8A5, offset: 0x3B8A5, size: 0x8, addend: 0x0, symName: __ZNSt3__115basic_stringbufIcNS_11char_traitsIcEENS_9allocatorIcEEEC1B8ue170006Ej, symObjAddr: 0x1C144, symBinAddr: 0x10001D6F8, symSize: 0x34 }
  - { offsetInCU: 0x3B8DE, offset: 0x3B8DE, size: 0x8, addend: 0x0, symName: __ZNSt3__18ios_baseC2B8ue170006Ev, symObjAddr: 0x1C178, symBinAddr: 0x10001D72C, symSize: 0x24 }
  - { offsetInCU: 0x3B908, offset: 0x3B908, size: 0x8, addend: 0x0, symName: __ZNSt3__19basic_iosIcNS_11char_traitsIcEEE4initB8ue170006EPNS_15basic_streambufIcS2_EE, symObjAddr: 0x1C19C, symBinAddr: 0x10001D750, symSize: 0x44 }
  - { offsetInCU: 0x3B93F, offset: 0x3B93F, size: 0x8, addend: 0x0, symName: __ZNSt3__111char_traitsIcE3eofB8ue170006Ev, symObjAddr: 0x1C1E0, symBinAddr: 0x10001D794, symSize: 0x8 }
  - { offsetInCU: 0x3B953, offset: 0x3B953, size: 0x8, addend: 0x0, symName: __ZNSt3__115basic_stringbufIcNS_11char_traitsIcEENS_9allocatorIcEEEC2B8ue170006Ej, symObjAddr: 0x1C1E8, symBinAddr: 0x10001D79C, symSize: 0x60 }
  - { offsetInCU: 0x3B98C, offset: 0x3B98C, size: 0x8, addend: 0x0, symName: __ZNSt3__18ios_base5widthB8ue170006El, symObjAddr: 0x1C248, symBinAddr: 0x10001D7FC, symSize: 0x2C }
  - { offsetInCU: 0x3B9D2, offset: 0x3B9D2, size: 0x8, addend: 0x0, symName: __ZNSt3__18__iom_t4IcEC1B8ue170006Ec, symObjAddr: 0x1C274, symBinAddr: 0x10001D828, symSize: 0x34 }
  - { offsetInCU: 0x3BA0A, offset: 0x3BA0A, size: 0x8, addend: 0x0, symName: __ZNSt3__18__iom_t4IcEC2B8ue170006Ec, symObjAddr: 0x1C2A8, symBinAddr: 0x10001D85C, symSize: 0x20 }
  - { offsetInCU: 0x3BA42, offset: 0x3BA42, size: 0x8, addend: 0x0, symName: __ZNSt3__19basic_iosIcNS_11char_traitsIcEEE4fillB8ue170006Ec, symObjAddr: 0x1C2C8, symBinAddr: 0x10001D87C, symSize: 0x74 }
  - { offsetInCU: 0x3BA88, offset: 0x3BA88, size: 0x8, addend: 0x0, symName: __ZNSt3__111char_traitsIcE11eq_int_typeB8ue170006Eii, symObjAddr: 0x1C33C, symBinAddr: 0x10001D8F0, symSize: 0x28 }
  - { offsetInCU: 0x3BABB, offset: 0x3BABB, size: 0x8, addend: 0x0, symName: __ZNKSt3__19basic_iosIcNS_11char_traitsIcEEE5widenB8ue170006Ec, symObjAddr: 0x1C364, symBinAddr: 0x10001D918, symSize: 0x84 }
  - { offsetInCU: 0x3BB2B, offset: 0x3BB2B, size: 0x8, addend: 0x0, symName: __ZNKSt3__15ctypeIcE5widenB8ue170006Ec, symObjAddr: 0x1C414, symBinAddr: 0x10001D9C8, symSize: 0x38 }
  - { offsetInCU: 0x3BB60, offset: 0x3BB60, size: 0x8, addend: 0x0, symName: __ZNKRSt3__115basic_stringbufIcNS_11char_traitsIcEENS_9allocatorIcEEE3strB8ue170006Ev, symObjAddr: 0x1C44C, symBinAddr: 0x10001DA00, symSize: 0x44 }
  - { offsetInCU: 0x3BB86, offset: 0x3BB86, size: 0x8, addend: 0x0, symName: __ZNKSt3__115basic_stringbufIcNS_11char_traitsIcEENS_9allocatorIcEEE3strB8ue170006IS4_EENS_12basic_stringIcS2_T_EERKS8_, symObjAddr: 0x1C490, symBinAddr: 0x10001DA44, symSize: 0x50 }
  - { offsetInCU: 0x3BBC4, offset: 0x3BBC4, size: 0x8, addend: 0x0, symName: __ZNKSt3__112basic_stringIcNS_11char_traitsIcEENS_9allocatorIcEEE13get_allocatorB8ue170006Ev, symObjAddr: 0x1C4E0, symBinAddr: 0x10001DA94, symSize: 0x24 }
  - { offsetInCU: 0x3BBEA, offset: 0x3BBEA, size: 0x8, addend: 0x0, symName: __ZNKSt3__115basic_stringbufIcNS_11char_traitsIcEENS_9allocatorIcEEE4viewB8ue170006Ev, symObjAddr: 0x1C504, symBinAddr: 0x10001DAB8, symSize: 0x120 }
  - { offsetInCU: 0x3BC12, offset: 0x3BC12, size: 0x8, addend: 0x0, symName: __ZNSt3__112basic_stringIcNS_11char_traitsIcEENS_9allocatorIcEEEC1INS_17basic_string_viewIcS2_EELi0EEERKT_RKS4_, symObjAddr: 0x1C624, symBinAddr: 0x10001DBD8, symSize: 0x3C }
  - { offsetInCU: 0x3BC69, offset: 0x3BC69, size: 0x8, addend: 0x0, symName: __ZNKSt3__115basic_streambufIcNS_11char_traitsIcEEE4pptrB8ue170006Ev, symObjAddr: 0x1C660, symBinAddr: 0x10001DC14, symSize: 0x18 }
  - { offsetInCU: 0x3BC8F, offset: 0x3BC8F, size: 0x8, addend: 0x0, symName: __ZNKSt3__115basic_streambufIcNS_11char_traitsIcEEE5pbaseB8ue170006Ev, symObjAddr: 0x1C678, symBinAddr: 0x10001DC2C, symSize: 0x18 }
  - { offsetInCU: 0x3BCBB, offset: 0x3BCBB, size: 0x8, addend: 0x0, symName: __ZNSt3__117basic_string_viewIcNS_11char_traitsIcEEEC1B8ue170006IPcS5_EET_T0_, symObjAddr: 0x1C690, symBinAddr: 0x10001DC44, symSize: 0x3C }
  - { offsetInCU: 0x3BD15, offset: 0x3BD15, size: 0x8, addend: 0x0, symName: __ZNKSt3__115basic_streambufIcNS_11char_traitsIcEEE5ebackB8ue170006Ev, symObjAddr: 0x1C6CC, symBinAddr: 0x10001DC80, symSize: 0x18 }
  - { offsetInCU: 0x3BD3B, offset: 0x3BD3B, size: 0x8, addend: 0x0, symName: __ZNKSt3__115basic_streambufIcNS_11char_traitsIcEEE5egptrB8ue170006Ev, symObjAddr: 0x1C6E4, symBinAddr: 0x10001DC98, symSize: 0x18 }
  - { offsetInCU: 0x3BD61, offset: 0x3BD61, size: 0x8, addend: 0x0, symName: __ZNSt3__117basic_string_viewIcNS_11char_traitsIcEEEC1B8ue170006Ev, symObjAddr: 0x1C6FC, symBinAddr: 0x10001DCB0, symSize: 0x2C }
  - { offsetInCU: 0x3BD8B, offset: 0x3BD8B, size: 0x8, addend: 0x0, symName: __ZNSt3__117basic_string_viewIcNS_11char_traitsIcEEEC2B8ue170006IPcS5_EET_T0_, symObjAddr: 0x1C728, symBinAddr: 0x10001DCDC, symSize: 0x50 }
  - { offsetInCU: 0x3BDE5, offset: 0x3BDE5, size: 0x8, addend: 0x0, symName: __ZNSt3__117basic_string_viewIcNS_11char_traitsIcEEEC2B8ue170006Ev, symObjAddr: 0x1C7B0, symBinAddr: 0x10001DD64, symSize: 0x1C }
  - { offsetInCU: 0x3BE0F, offset: 0x3BE0F, size: 0x8, addend: 0x0, symName: __ZNSt3__112basic_stringIcNS_11char_traitsIcEENS_9allocatorIcEEEC2INS_17basic_string_viewIcS2_EELi0EEERKT_RKS4_, symObjAddr: 0x1C7CC, symBinAddr: 0x10001DD80, symSize: 0x74 }
  - { offsetInCU: 0x3BE83, offset: 0x3BE83, size: 0x8, addend: 0x0, symName: __ZNSt3__117__compressed_pairINS_12basic_stringIcNS_11char_traitsIcEENS_9allocatorIcEEE5__repES5_EC1B8ue170006INS_18__default_init_tagERKS5_EEOT_OT0_, symObjAddr: 0x1C840, symBinAddr: 0x10001DDF4, symSize: 0x3C }
  - { offsetInCU: 0x3BEDB, offset: 0x3BEDB, size: 0x8, addend: 0x0, symName: __ZNKSt3__117basic_string_viewIcNS_11char_traitsIcEEE4dataB8ue170006Ev, symObjAddr: 0x1C87C, symBinAddr: 0x10001DE30, symSize: 0x18 }
  - { offsetInCU: 0x3BF01, offset: 0x3BF01, size: 0x8, addend: 0x0, symName: __ZNKSt3__117basic_string_viewIcNS_11char_traitsIcEEE4sizeB8ue170006Ev, symObjAddr: 0x1C894, symBinAddr: 0x10001DE48, symSize: 0x18 }
  - { offsetInCU: 0x3BF27, offset: 0x3BF27, size: 0x8, addend: 0x0, symName: __ZNSt3__117__compressed_pairINS_12basic_stringIcNS_11char_traitsIcEENS_9allocatorIcEEE5__repES5_EC2B8ue170006INS_18__default_init_tagERKS5_EEOT_OT0_, symObjAddr: 0x1C8AC, symBinAddr: 0x10001DE60, symSize: 0x40 }
  - { offsetInCU: 0x3BF7F, offset: 0x3BF7F, size: 0x8, addend: 0x0, symName: __ZNSt3__122__compressed_pair_elemINS_9allocatorIcEELi1ELb1EEC2B8ue170006IRKS2_vEEOT_, symObjAddr: 0x1C8EC, symBinAddr: 0x10001DEA0, symSize: 0x18 }
  - { offsetInCU: 0x3BFC1, offset: 0x3BFC1, size: 0x8, addend: 0x0, symName: __ZNKSt3__112basic_stringIcNS_11char_traitsIcEENS_9allocatorIcEEE7__allocB8ue170006Ev, symObjAddr: 0x1C904, symBinAddr: 0x10001DEB8, symSize: 0x24 }
  - { offsetInCU: 0x3BFE7, offset: 0x3BFE7, size: 0x8, addend: 0x0, symName: __ZNKSt3__117__compressed_pairINS_12basic_stringIcNS_11char_traitsIcEENS_9allocatorIcEEE5__repES5_E6secondB8ue170006Ev, symObjAddr: 0x1C928, symBinAddr: 0x10001DEDC, symSize: 0x24 }
  - { offsetInCU: 0x3C00D, offset: 0x3C00D, size: 0x8, addend: 0x0, symName: __ZNKSt3__122__compressed_pair_elemINS_9allocatorIcEELi1ELb1EE5__getB8ue170006Ev, symObjAddr: 0x1C94C, symBinAddr: 0x10001DF00, symSize: 0x14 }
  - { offsetInCU: 0x3C033, offset: 0x3C033, size: 0x8, addend: 0x0, symName: __ZNKSt3__117__compressed_pairIP12virtual_nodeNS_14default_deleteIS1_EEE5firstB8ue170006Ev, symObjAddr: 0x1C960, symBinAddr: 0x10001DF14, symSize: 0x24 }
  - { offsetInCU: 0x3C059, offset: 0x3C059, size: 0x8, addend: 0x0, symName: __ZNSt3__16__treeINS_12__value_typeINS_5arrayIhLm16EEEP4NodeEENS_19__map_value_compareIS3_S6_NS_4lessIS3_EELb1EEENS_9allocatorIS6_EEE3endB8ue170006Ev, symObjAddr: 0x1C984, symBinAddr: 0x10001DF38, symSize: 0x34 }
  - { offsetInCU: 0x3C07F, offset: 0x3C07F, size: 0x8, addend: 0x0, symName: __ZNSt3__16__treeINS_12__value_typeINS_5arrayIhLm16EEEP4NodeEENS_19__map_value_compareIS3_S6_NS_4lessIS3_EELb1EEENS_9allocatorIS6_EEE5beginB8ue170006Ev, symObjAddr: 0x1C9B8, symBinAddr: 0x10001DF6C, symSize: 0x34 }
  - { offsetInCU: 0x3C0C8, offset: 0x3C0C8, size: 0x8, addend: 0x0, symName: __ZNKSt3__113basic_ostreamIcNS_11char_traitsIcEEE6sentrycvbB8ue170006Ev, symObjAddr: 0x1CBD8, symBinAddr: 0x10001E18C, symSize: 0x1C }
  - { offsetInCU: 0x3C0EE, offset: 0x3C0EE, size: 0x8, addend: 0x0, symName: __ZNSt3__119ostreambuf_iteratorIcNS_11char_traitsIcEEEC1B8ue170006ERNS_13basic_ostreamIcS2_EE, symObjAddr: 0x1CE34, symBinAddr: 0x10001E3E8, symSize: 0x34 }
  - { offsetInCU: 0x3C126, offset: 0x3C126, size: 0x8, addend: 0x0, symName: __ZNKSt3__18ios_base5flagsB8ue170006Ev, symObjAddr: 0x1CE68, symBinAddr: 0x10001E41C, symSize: 0x18 }
  - { offsetInCU: 0x3C14E, offset: 0x3C14E, size: 0x8, addend: 0x0, symName: __ZNKSt3__19basic_iosIcNS_11char_traitsIcEEE4fillB8ue170006Ev, symObjAddr: 0x1CE80, symBinAddr: 0x10001E434, symSize: 0x64 }
  - { offsetInCU: 0x3C176, offset: 0x3C176, size: 0x8, addend: 0x0, symName: __ZNKSt3__119ostreambuf_iteratorIcNS_11char_traitsIcEEE6failedB8ue170006Ev, symObjAddr: 0x1CEE4, symBinAddr: 0x10001E498, symSize: 0x24 }
  - { offsetInCU: 0x3C19C, offset: 0x3C19C, size: 0x8, addend: 0x0, symName: __ZNSt3__19basic_iosIcNS_11char_traitsIcEEE8setstateB8ue170006Ej, symObjAddr: 0x1CF08, symBinAddr: 0x10001E4BC, symSize: 0x2C }
  - { offsetInCU: 0x3C1D1, offset: 0x3C1D1, size: 0x8, addend: 0x0, symName: __ZNKSt3__18ios_base5widthB8ue170006Ev, symObjAddr: 0x1CF34, symBinAddr: 0x10001E4E8, symSize: 0x18 }
  - { offsetInCU: 0x3C1F9, offset: 0x3C1F9, size: 0x8, addend: 0x0, symName: __ZNSt3__115basic_streambufIcNS_11char_traitsIcEEE5sputnB8ue170006EPKcl, symObjAddr: 0x1CF4C, symBinAddr: 0x10001E500, symSize: 0x3C }
  - { offsetInCU: 0x3C23B, offset: 0x3C23B, size: 0x8, addend: 0x0, symName: __ZNSt3__112basic_stringIcNS_11char_traitsIcEENS_9allocatorIcEEEC1B8ue170006Emc, symObjAddr: 0x1CF88, symBinAddr: 0x10001E53C, symSize: 0x3C }
  - { offsetInCU: 0x3C283, offset: 0x3C283, size: 0x8, addend: 0x0, symName: __ZNSt3__112basic_stringIcNS_11char_traitsIcEENS_9allocatorIcEEE4dataB8ue170006Ev, symObjAddr: 0x1CFC4, symBinAddr: 0x10001E578, symSize: 0x28 }
  - { offsetInCU: 0x3C2A9, offset: 0x3C2A9, size: 0x8, addend: 0x0, symName: __ZNSt3__112basic_stringIcNS_11char_traitsIcEENS_9allocatorIcEEEC2B8ue170006Emc, symObjAddr: 0x1CFEC, symBinAddr: 0x10001E5A0, symSize: 0x4C }
  - { offsetInCU: 0x3C2F1, offset: 0x3C2F1, size: 0x8, addend: 0x0, symName: __ZNSt3__112basic_stringIcNS_11char_traitsIcEENS_9allocatorIcEEE13__get_pointerB8ue170006Ev, symObjAddr: 0x1D038, symBinAddr: 0x10001E5EC, symSize: 0x54 }
  - { offsetInCU: 0x3C317, offset: 0x3C317, size: 0x8, addend: 0x0, symName: __ZNSt3__119ostreambuf_iteratorIcNS_11char_traitsIcEEEC2B8ue170006ERNS_13basic_ostreamIcS2_EE, symObjAddr: 0x1D08C, symBinAddr: 0x10001E640, symSize: 0x54 }
  - { offsetInCU: 0x3C34F, offset: 0x3C34F, size: 0x8, addend: 0x0, symName: __ZNKSt3__19basic_iosIcNS_11char_traitsIcEEE5rdbufB8ue170006Ev, symObjAddr: 0x1D0E0, symBinAddr: 0x10001E694, symSize: 0x24 }
  - { offsetInCU: 0x3C377, offset: 0x3C377, size: 0x8, addend: 0x0, symName: __ZNKSt3__18ios_base5rdbufB8ue170006Ev, symObjAddr: 0x1D104, symBinAddr: 0x10001E6B8, symSize: 0x18 }
  - { offsetInCU: 0x3C39D, offset: 0x3C39D, size: 0x8, addend: 0x0, symName: __ZNSt3__18ios_base8setstateB8ue170006Ej, symObjAddr: 0x1D11C, symBinAddr: 0x10001E6D0, symSize: 0x34 }
  - { offsetInCU: 0x3C3D4, offset: 0x3C3D4, size: 0x8, addend: 0x0, symName: __ZNSt3__115__tree_iteratorINS_12__value_typeINS_5arrayIhLm16EEEP4NodeEEPNS_11__tree_nodeIS6_PvEElEppB8ue170006Ev, symObjAddr: 0x1D184, symBinAddr: 0x10001E738, symSize: 0x38 }
  - { offsetInCU: 0x3C3FA, offset: 0x3C3FA, size: 0x8, addend: 0x0, symName: __ZNSt3__123mersenne_twister_engineIjLm32ELm624ELm397ELm31ELj2567483615ELm11ELj4294967295ELm7ELj2636928640ELm15ELj4022730752ELm18ELj1812433253EEC2B8ue170006Ej, symObjAddr: 0x1D27C, symBinAddr: 0x10001E830, symSize: 0x34 }
  - { offsetInCU: 0x3C432, offset: 0x3C432, size: 0x8, addend: 0x0, symName: __ZNSt3__123mersenne_twister_engineIjLm32ELm624ELm397ELm31ELj2567483615ELm11ELj4294967295ELm7ELj2636928640ELm15ELj4022730752ELm18ELj1812433253EE4seedEj, symObjAddr: 0x1D2B0, symBinAddr: 0x10001E864, symSize: 0xC4 }
  - { offsetInCU: 0x3C485, offset: 0x3C485, size: 0x8, addend: 0x0, symName: __ZNSt3__123mersenne_twister_engineIjLm32ELm624ELm397ELm31ELj2567483615ELm11ELj4294967295ELm7ELj2636928640ELm15ELj4022730752ELm18ELj1812433253EE8__rshiftB8ue170006ILm30EEENS_9enable_ifIXltT_L_ZNS1_3_DtEEEjE4typeEj, symObjAddr: 0x1D374, symBinAddr: 0x10001E928, symSize: 0x18 }
  - { offsetInCU: 0x3C4B2, offset: 0x3C4B2, size: 0x8, addend: 0x0, symName: __ZNSt3__124uniform_int_distributionIiEC2B8ue170006Eii, symObjAddr: 0x1D38C, symBinAddr: 0x10001E940, symSize: 0x3C }
  - { offsetInCU: 0x3C4F8, offset: 0x3C4F8, size: 0x8, addend: 0x0, symName: __ZNSt3__124uniform_int_distributionIiE10param_typeC1B8ue170006Eii, symObjAddr: 0x1D3C8, symBinAddr: 0x10001E97C, symSize: 0x3C }
  - { offsetInCU: 0x3C53E, offset: 0x3C53E, size: 0x8, addend: 0x0, symName: __ZNSt3__124uniform_int_distributionIiE10param_typeC2B8ue170006Eii, symObjAddr: 0x1D404, symBinAddr: 0x10001E9B8, symSize: 0x2C }
  - { offsetInCU: 0x3C584, offset: 0x3C584, size: 0x8, addend: 0x0, symName: __ZNKSt3__124uniform_int_distributionIiE10param_type1bB8ue170006Ev, symObjAddr: 0x1D5B8, symBinAddr: 0x10001EB6C, symSize: 0x18 }
  - { offsetInCU: 0x3C5AA, offset: 0x3C5AA, size: 0x8, addend: 0x0, symName: __ZNKSt3__124uniform_int_distributionIiE10param_type1aB8ue170006Ev, symObjAddr: 0x1D5D0, symBinAddr: 0x10001EB84, symSize: 0x18 }
  - { offsetInCU: 0x3C5D0, offset: 0x3C5D0, size: 0x8, addend: 0x0, symName: __ZNSt3__125__independent_bits_engineINS_23mersenne_twister_engineIjLm32ELm624ELm397ELm31ELj2567483615ELm11ELj4294967295ELm7ELj2636928640ELm15ELj4022730752ELm18ELj1812433253EEEjEC1ERS2_m, symObjAddr: 0x1D5E8, symBinAddr: 0x10001EB9C, symSize: 0x3C }
  - { offsetInCU: 0x3C617, offset: 0x3C617, size: 0x8, addend: 0x0, symName: __ZNSt3__125__independent_bits_engineINS_23mersenne_twister_engineIjLm32ELm624ELm397ELm31ELj2567483615ELm11ELj4294967295ELm7ELj2636928640ELm15ELj4022730752ELm18ELj1812433253EEEjEclB8ue170006Ev, symObjAddr: 0x1D624, symBinAddr: 0x10001EBD8, symSize: 0x24 }
  - { offsetInCU: 0x3C63D, offset: 0x3C63D, size: 0x8, addend: 0x0, symName: __ZNSt3__114numeric_limitsIjE3maxB8ue170006Ev, symObjAddr: 0x1D69C, symBinAddr: 0x10001EC50, symSize: 0x14 }
  - { offsetInCU: 0x3C651, offset: 0x3C651, size: 0x8, addend: 0x0, symName: __ZNSt3__125__independent_bits_engineINS_23mersenne_twister_engineIjLm32ELm624ELm397ELm31ELj2567483615ELm11ELj4294967295ELm7ELj2636928640ELm15ELj4022730752ELm18ELj1812433253EEEjEC2ERS2_m, symObjAddr: 0x1D6B0, symBinAddr: 0x10001EC64, symSize: 0x22C }
  - { offsetInCU: 0x3C698, offset: 0x3C698, size: 0x8, addend: 0x0, symName: __ZNSt3__125__independent_bits_engineINS_23mersenne_twister_engineIjLm32ELm624ELm397ELm31ELj2567483615ELm11ELj4294967295ELm7ELj2636928640ELm15ELj4022730752ELm18ELj1812433253EEEjE6__evalENS_17integral_constantIbLb0EEE, symObjAddr: 0x1D8DC, symBinAddr: 0x10001EE90, symSize: 0x38 }
  - { offsetInCU: 0x3C6C9, offset: 0x3C6C9, size: 0x8, addend: 0x0, symName: __ZNSt3__123mersenne_twister_engineIjLm32ELm624ELm397ELm31ELj2567483615ELm11ELj4294967295ELm7ELj2636928640ELm15ELj4022730752ELm18ELj1812433253EEclEv, symObjAddr: 0x1D914, symBinAddr: 0x10001EEC8, symSize: 0x14C }
  - { offsetInCU: 0x3C73C, offset: 0x3C73C, size: 0x8, addend: 0x0, symName: __ZNSt3__123mersenne_twister_engineIjLm32ELm624ELm397ELm31ELj2567483615ELm11ELj4294967295ELm7ELj2636928640ELm15ELj4022730752ELm18ELj1812433253EE8__rshiftB8ue170006ILm1EEENS_9enable_ifIXltT_L_ZNS1_3_DtEEEjE4typeEj, symObjAddr: 0x1DA60, symBinAddr: 0x10001F014, symSize: 0x18 }
  - { offsetInCU: 0x3C769, offset: 0x3C769, size: 0x8, addend: 0x0, symName: __ZNSt3__123mersenne_twister_engineIjLm32ELm624ELm397ELm31ELj2567483615ELm11ELj4294967295ELm7ELj2636928640ELm15ELj4022730752ELm18ELj1812433253EE8__rshiftB8ue170006ILm11EEENS_9enable_ifIXltT_L_ZNS1_3_DtEEEjE4typeEj, symObjAddr: 0x1DA78, symBinAddr: 0x10001F02C, symSize: 0x18 }
  - { offsetInCU: 0x3C796, offset: 0x3C796, size: 0x8, addend: 0x0, symName: __ZNSt3__123mersenne_twister_engineIjLm32ELm624ELm397ELm31ELj2567483615ELm11ELj4294967295ELm7ELj2636928640ELm15ELj4022730752ELm18ELj1812433253EE8__lshiftB8ue170006ILm7EEENS_9enable_ifIXltT_Lm32EEjE4typeEj, symObjAddr: 0x1DA90, symBinAddr: 0x10001F044, symSize: 0x1C }
  - { offsetInCU: 0x3C7C3, offset: 0x3C7C3, size: 0x8, addend: 0x0, symName: __ZNSt3__123mersenne_twister_engineIjLm32ELm624ELm397ELm31ELj2567483615ELm11ELj4294967295ELm7ELj2636928640ELm15ELj4022730752ELm18ELj1812433253EE8__lshiftB8ue170006ILm15EEENS_9enable_ifIXltT_Lm32EEjE4typeEj, symObjAddr: 0x1DAAC, symBinAddr: 0x10001F060, symSize: 0x1C }
  - { offsetInCU: 0x3C7F0, offset: 0x3C7F0, size: 0x8, addend: 0x0, symName: __ZNSt3__123mersenne_twister_engineIjLm32ELm624ELm397ELm31ELj2567483615ELm11ELj4294967295ELm7ELj2636928640ELm15ELj4022730752ELm18ELj1812433253EE8__rshiftB8ue170006ILm18EEENS_9enable_ifIXltT_L_ZNS1_3_DtEEEjE4typeEj, symObjAddr: 0x1DAC8, symBinAddr: 0x10001F07C, symSize: 0x18 }
  - { offsetInCU: 0x3C81D, offset: 0x3C81D, size: 0x8, addend: 0x0, symName: __ZNSt3__123__libcpp_numeric_limitsIjLb1EE3maxB8ue170006Ev, symObjAddr: 0x1DAF8, symBinAddr: 0x10001F0AC, symSize: 0x8 }
  - { offsetInCU: 0x3C831, offset: 0x3C831, size: 0x8, addend: 0x0, symName: __ZNSt3__113unordered_mapINS_12basic_stringIcNS_11char_traitsIcEENS_9allocatorIcEEEES6_NS_4hashIS6_EENS_8equal_toIS6_EENS4_INS_4pairIKS6_S6_EEEEEC2B8ue170006Ev, symObjAddr: 0x1DB00, symBinAddr: 0x10001F0B4, symSize: 0x2C }
  - { offsetInCU: 0x3C85B, offset: 0x3C85B, size: 0x8, addend: 0x0, symName: __ZNSt3__112__hash_tableINS_17__hash_value_typeINS_12basic_stringIcNS_11char_traitsIcEENS_9allocatorIcEEEES7_EENS_22__unordered_map_hasherIS7_S8_NS_4hashIS7_EENS_8equal_toIS7_EELb1EEENS_21__unordered_map_equalIS7_S8_SD_SB_Lb1EEENS5_IS8_EEEC1Ev, symObjAddr: 0x1DB2C, symBinAddr: 0x10001F0E0, symSize: 0x2C }
  - { offsetInCU: 0x3C887, offset: 0x3C887, size: 0x8, addend: 0x0, symName: __ZNSt3__112__hash_tableINS_17__hash_value_typeINS_12basic_stringIcNS_11char_traitsIcEENS_9allocatorIcEEEES7_EENS_22__unordered_map_hasherIS7_S8_NS_4hashIS7_EENS_8equal_toIS7_EELb1EEENS_21__unordered_map_equalIS7_S8_SD_SB_Lb1EEENS5_IS8_EEEC2Ev, symObjAddr: 0x1DB58, symBinAddr: 0x10001F10C, symSize: 0x7C }
  - { offsetInCU: 0x3C8B3, offset: 0x3C8B3, size: 0x8, addend: 0x0, symName: __ZNSt3__110unique_ptrIA_PNS_16__hash_node_baseIPNS_11__hash_nodeINS_17__hash_value_typeINS_12basic_stringIcNS_11char_traitsIcEENS_9allocatorIcEEEES9_EEPvEEEENS_25__bucket_list_deallocatorINS7_ISF_EEEEEC1B8ue170006ILb1EvEEv, symObjAddr: 0x1DBD4, symBinAddr: 0x10001F188, symSize: 0x2C }
  - { offsetInCU: 0x3C8E8, offset: 0x3C8E8, size: 0x8, addend: 0x0, symName: __ZNSt3__117__compressed_pairINS_16__hash_node_baseIPNS_11__hash_nodeINS_17__hash_value_typeINS_12basic_stringIcNS_11char_traitsIcEENS_9allocatorIcEEEES9_EEPvEEEENS7_ISC_EEEC1B8ue170006ILb1EvEEv, symObjAddr: 0x1DC00, symBinAddr: 0x10001F1B4, symSize: 0x2C }
  - { offsetInCU: 0x3C91D, offset: 0x3C91D, size: 0x8, addend: 0x0, symName: __ZNSt3__117__compressed_pairImNS_22__unordered_map_hasherINS_12basic_stringIcNS_11char_traitsIcEENS_9allocatorIcEEEENS_17__hash_value_typeIS7_S7_EENS_4hashIS7_EENS_8equal_toIS7_EELb1EEEEC1B8ue170006IiNS_18__default_init_tagEEEOT_OT0_, symObjAddr: 0x1DC2C, symBinAddr: 0x10001F1E0, symSize: 0x3C }
  - { offsetInCU: 0x3C975, offset: 0x3C975, size: 0x8, addend: 0x0, symName: __ZNSt3__117__compressed_pairIfNS_21__unordered_map_equalINS_12basic_stringIcNS_11char_traitsIcEENS_9allocatorIcEEEENS_17__hash_value_typeIS7_S7_EENS_8equal_toIS7_EENS_4hashIS7_EELb1EEEEC1B8ue170006IfNS_18__default_init_tagEEEOT_OT0_, symObjAddr: 0x1DC68, symBinAddr: 0x10001F21C, symSize: 0x3C }
  - { offsetInCU: 0x3C9CD, offset: 0x3C9CD, size: 0x8, addend: 0x0, symName: __ZNSt3__110unique_ptrIA_PNS_16__hash_node_baseIPNS_11__hash_nodeINS_17__hash_value_typeINS_12basic_stringIcNS_11char_traitsIcEENS_9allocatorIcEEEES9_EEPvEEEENS_25__bucket_list_deallocatorINS7_ISF_EEEEEC2B8ue170006ILb1EvEEv, symObjAddr: 0x1DCA4, symBinAddr: 0x10001F258, symSize: 0x3C }
  - { offsetInCU: 0x3CA02, offset: 0x3CA02, size: 0x8, addend: 0x0, symName: __ZNSt3__117__compressed_pairIPPNS_16__hash_node_baseIPNS_11__hash_nodeINS_17__hash_value_typeINS_12basic_stringIcNS_11char_traitsIcEENS_9allocatorIcEEEES9_EEPvEEEENS_25__bucket_list_deallocatorINS7_ISF_EEEEEC1B8ue170006INS_16__value_init_tagESM_EEOT_OT0_, symObjAddr: 0x1DCE0, symBinAddr: 0x10001F294, symSize: 0x3C }
  - { offsetInCU: 0x3CA5A, offset: 0x3CA5A, size: 0x8, addend: 0x0, symName: __ZNSt3__117__compressed_pairIPPNS_16__hash_node_baseIPNS_11__hash_nodeINS_17__hash_value_typeINS_12basic_stringIcNS_11char_traitsIcEENS_9allocatorIcEEEES9_EEPvEEEENS_25__bucket_list_deallocatorINS7_ISF_EEEEEC2B8ue170006INS_16__value_init_tagESM_EEOT_OT0_, symObjAddr: 0x1DD1C, symBinAddr: 0x10001F2D0, symSize: 0x40 }
  - { offsetInCU: 0x3CAB2, offset: 0x3CAB2, size: 0x8, addend: 0x0, symName: __ZNSt3__122__compressed_pair_elemIPPNS_16__hash_node_baseIPNS_11__hash_nodeINS_17__hash_value_typeINS_12basic_stringIcNS_11char_traitsIcEENS_9allocatorIcEEEES9_EEPvEEEELi0ELb0EEC2B8ue170006ENS_16__value_init_tagE, symObjAddr: 0x1DD5C, symBinAddr: 0x10001F310, symSize: 0x18 }
  - { offsetInCU: 0x3CAE6, offset: 0x3CAE6, size: 0x8, addend: 0x0, symName: __ZNSt3__122__compressed_pair_elemINS_25__bucket_list_deallocatorINS_9allocatorIPNS_16__hash_node_baseIPNS_11__hash_nodeINS_17__hash_value_typeINS_12basic_stringIcNS_11char_traitsIcEENS2_IcEEEESA_EEPvEEEEEEEELi1ELb0EEC2B8ue170006ENS_16__value_init_tagE, symObjAddr: 0x1DD74, symBinAddr: 0x10001F328, symSize: 0x2C }
  - { offsetInCU: 0x3CB1A, offset: 0x3CB1A, size: 0x8, addend: 0x0, symName: __ZNSt3__125__bucket_list_deallocatorINS_9allocatorIPNS_16__hash_node_baseIPNS_11__hash_nodeINS_17__hash_value_typeINS_12basic_stringIcNS_11char_traitsIcEENS1_IcEEEES9_EEPvEEEEEEEC1B8ue170006Ev, symObjAddr: 0x1DDA0, symBinAddr: 0x10001F354, symSize: 0x2C }
  - { offsetInCU: 0x3CB44, offset: 0x3CB44, size: 0x8, addend: 0x0, symName: __ZNSt3__125__bucket_list_deallocatorINS_9allocatorIPNS_16__hash_node_baseIPNS_11__hash_nodeINS_17__hash_value_typeINS_12basic_stringIcNS_11char_traitsIcEENS1_IcEEEES9_EEPvEEEEEEEC2B8ue170006Ev, symObjAddr: 0x1DDCC, symBinAddr: 0x10001F380, symSize: 0x40 }
  - { offsetInCU: 0x3CB6E, offset: 0x3CB6E, size: 0x8, addend: 0x0, symName: __ZNSt3__117__compressed_pairImNS_9allocatorIPNS_16__hash_node_baseIPNS_11__hash_nodeINS_17__hash_value_typeINS_12basic_stringIcNS_11char_traitsIcEENS1_IcEEEES9_EEPvEEEEEEEC1B8ue170006IiNS_18__default_init_tagEEEOT_OT0_, symObjAddr: 0x1DE0C, symBinAddr: 0x10001F3C0, symSize: 0x3C }
  - { offsetInCU: 0x3CBC6, offset: 0x3CBC6, size: 0x8, addend: 0x0, symName: __ZNSt3__117__compressed_pairImNS_9allocatorIPNS_16__hash_node_baseIPNS_11__hash_nodeINS_17__hash_value_typeINS_12basic_stringIcNS_11char_traitsIcEENS1_IcEEEES9_EEPvEEEEEEEC2B8ue170006IiNS_18__default_init_tagEEEOT_OT0_, symObjAddr: 0x1DE48, symBinAddr: 0x10001F3FC, symSize: 0x40 }
  - { offsetInCU: 0x3CC1E, offset: 0x3CC1E, size: 0x8, addend: 0x0, symName: __ZNSt3__122__compressed_pair_elemINS_9allocatorIPNS_16__hash_node_baseIPNS_11__hash_nodeINS_17__hash_value_typeINS_12basic_stringIcNS_11char_traitsIcEENS1_IcEEEES9_EEPvEEEEEELi1ELb1EEC2B8ue170006ENS_18__default_init_tagE, symObjAddr: 0x1DE88, symBinAddr: 0x10001F43C, symSize: 0x2C }
  - { offsetInCU: 0x3CC52, offset: 0x3CC52, size: 0x8, addend: 0x0, symName: __ZNSt3__19allocatorIPNS_16__hash_node_baseIPNS_11__hash_nodeINS_17__hash_value_typeINS_12basic_stringIcNS_11char_traitsIcEENS0_IcEEEES8_EEPvEEEEEC2B8ue170006Ev, symObjAddr: 0x1DEB4, symBinAddr: 0x10001F468, symSize: 0x2C }
  - { offsetInCU: 0x3CC7C, offset: 0x3CC7C, size: 0x8, addend: 0x0, symName: __ZNSt3__116__non_trivial_ifILb1ENS_9allocatorIPNS_16__hash_node_baseIPNS_11__hash_nodeINS_17__hash_value_typeINS_12basic_stringIcNS_11char_traitsIcEENS1_IcEEEES9_EEPvEEEEEEEC2B8ue170006Ev, symObjAddr: 0x1DEE0, symBinAddr: 0x10001F494, symSize: 0x14 }
  - { offsetInCU: 0x3CCA6, offset: 0x3CCA6, size: 0x8, addend: 0x0, symName: __ZNSt3__117__compressed_pairINS_16__hash_node_baseIPNS_11__hash_nodeINS_17__hash_value_typeINS_12basic_stringIcNS_11char_traitsIcEENS_9allocatorIcEEEES9_EEPvEEEENS7_ISC_EEEC2B8ue170006ILb1EvEEv, symObjAddr: 0x1DEF4, symBinAddr: 0x10001F4A8, symSize: 0x34 }
  - { offsetInCU: 0x3CCDB, offset: 0x3CCDB, size: 0x8, addend: 0x0, symName: __ZNSt3__122__compressed_pair_elemINS_16__hash_node_baseIPNS_11__hash_nodeINS_17__hash_value_typeINS_12basic_stringIcNS_11char_traitsIcEENS_9allocatorIcEEEES9_EEPvEEEELi0ELb0EEC2B8ue170006ENS_16__value_init_tagE, symObjAddr: 0x1DF28, symBinAddr: 0x10001F4DC, symSize: 0x2C }
  - { offsetInCU: 0x3CD0F, offset: 0x3CD0F, size: 0x8, addend: 0x0, symName: __ZNSt3__122__compressed_pair_elemINS_9allocatorINS_11__hash_nodeINS_17__hash_value_typeINS_12basic_stringIcNS_11char_traitsIcEENS1_IcEEEES8_EEPvEEEELi1ELb1EEC2B8ue170006ENS_16__value_init_tagE, symObjAddr: 0x1DF54, symBinAddr: 0x10001F508, symSize: 0x2C }
  - { offsetInCU: 0x3CD43, offset: 0x3CD43, size: 0x8, addend: 0x0, symName: __ZNSt3__116__hash_node_baseIPNS_11__hash_nodeINS_17__hash_value_typeINS_12basic_stringIcNS_11char_traitsIcEENS_9allocatorIcEEEES8_EEPvEEEC1B8ue170006Ev, symObjAddr: 0x1DF80, symBinAddr: 0x10001F534, symSize: 0x2C }
  - { offsetInCU: 0x3CD6D, offset: 0x3CD6D, size: 0x8, addend: 0x0, symName: __ZNSt3__116__hash_node_baseIPNS_11__hash_nodeINS_17__hash_value_typeINS_12basic_stringIcNS_11char_traitsIcEENS_9allocatorIcEEEES8_EEPvEEEC2B8ue170006Ev, symObjAddr: 0x1DFAC, symBinAddr: 0x10001F560, symSize: 0x18 }
  - { offsetInCU: 0x3CD97, offset: 0x3CD97, size: 0x8, addend: 0x0, symName: __ZNSt3__19allocatorINS_11__hash_nodeINS_17__hash_value_typeINS_12basic_stringIcNS_11char_traitsIcEENS0_IcEEEES7_EEPvEEEC2B8ue170006Ev, symObjAddr: 0x1DFC4, symBinAddr: 0x10001F578, symSize: 0x2C }
  - { offsetInCU: 0x3CDC1, offset: 0x3CDC1, size: 0x8, addend: 0x0, symName: __ZNSt3__116__non_trivial_ifILb1ENS_9allocatorINS_11__hash_nodeINS_17__hash_value_typeINS_12basic_stringIcNS_11char_traitsIcEENS1_IcEEEES8_EEPvEEEEEC2B8ue170006Ev, symObjAddr: 0x1DFF0, symBinAddr: 0x10001F5A4, symSize: 0x14 }
  - { offsetInCU: 0x3CDEB, offset: 0x3CDEB, size: 0x8, addend: 0x0, symName: __ZNSt3__117__compressed_pairImNS_22__unordered_map_hasherINS_12basic_stringIcNS_11char_traitsIcEENS_9allocatorIcEEEENS_17__hash_value_typeIS7_S7_EENS_4hashIS7_EENS_8equal_toIS7_EELb1EEEEC2B8ue170006IiNS_18__default_init_tagEEEOT_OT0_, symObjAddr: 0x1E004, symBinAddr: 0x10001F5B8, symSize: 0x40 }
  - { offsetInCU: 0x3CE43, offset: 0x3CE43, size: 0x8, addend: 0x0, symName: __ZNSt3__122__compressed_pair_elemINS_22__unordered_map_hasherINS_12basic_stringIcNS_11char_traitsIcEENS_9allocatorIcEEEENS_17__hash_value_typeIS7_S7_EENS_4hashIS7_EENS_8equal_toIS7_EELb1EEELi1ELb1EEC2B8ue170006ENS_18__default_init_tagE, symObjAddr: 0x1E044, symBinAddr: 0x10001F5F8, symSize: 0x2C }
  - { offsetInCU: 0x3CE77, offset: 0x3CE77, size: 0x8, addend: 0x0, symName: __ZNSt3__122__unordered_map_hasherINS_12basic_stringIcNS_11char_traitsIcEENS_9allocatorIcEEEENS_17__hash_value_typeIS6_S6_EENS_4hashIS6_EENS_8equal_toIS6_EELb1EEC2B8ue170006Ev, symObjAddr: 0x1E070, symBinAddr: 0x10001F624, symSize: 0x14 }
  - { offsetInCU: 0x3CEA1, offset: 0x3CEA1, size: 0x8, addend: 0x0, symName: __ZNSt3__117__compressed_pairIfNS_21__unordered_map_equalINS_12basic_stringIcNS_11char_traitsIcEENS_9allocatorIcEEEENS_17__hash_value_typeIS7_S7_EENS_8equal_toIS7_EENS_4hashIS7_EELb1EEEEC2B8ue170006IfNS_18__default_init_tagEEEOT_OT0_, symObjAddr: 0x1E084, symBinAddr: 0x10001F638, symSize: 0x40 }
  - { offsetInCU: 0x3CEF9, offset: 0x3CEF9, size: 0x8, addend: 0x0, symName: __ZNSt3__122__compressed_pair_elemINS_21__unordered_map_equalINS_12basic_stringIcNS_11char_traitsIcEENS_9allocatorIcEEEENS_17__hash_value_typeIS7_S7_EENS_8equal_toIS7_EENS_4hashIS7_EELb1EEELi1ELb1EEC2B8ue170006ENS_18__default_init_tagE, symObjAddr: 0x1E0C4, symBinAddr: 0x10001F678, symSize: 0x2C }
  - { offsetInCU: 0x3CF2D, offset: 0x3CF2D, size: 0x8, addend: 0x0, symName: __ZNSt3__121__unordered_map_equalINS_12basic_stringIcNS_11char_traitsIcEENS_9allocatorIcEEEENS_17__hash_value_typeIS6_S6_EENS_8equal_toIS6_EENS_4hashIS6_EELb1EEC2B8ue170006Ev, symObjAddr: 0x1E0F0, symBinAddr: 0x10001F6A4, symSize: 0x14 }
  - { offsetInCU: 0x3CF57, offset: 0x3CF57, size: 0x8, addend: 0x0, symName: __ZNSt3__113unordered_mapINS_12basic_stringIcNS_11char_traitsIcEENS_9allocatorIcEEEES6_NS_4hashIS6_EENS_8equal_toIS6_EENS4_INS_4pairIKS6_S6_EEEEED2B8ue170006Ev, symObjAddr: 0x1E104, symBinAddr: 0x10001F6B8, symSize: 0x2C }
  - { offsetInCU: 0x3CF81, offset: 0x3CF81, size: 0x8, addend: 0x0, symName: __ZNSt3__112__hash_tableINS_17__hash_value_typeINS_12basic_stringIcNS_11char_traitsIcEENS_9allocatorIcEEEES7_EENS_22__unordered_map_hasherIS7_S8_NS_4hashIS7_EENS_8equal_toIS7_EELb1EEENS_21__unordered_map_equalIS7_S8_SD_SB_Lb1EEENS5_IS8_EEED1Ev, symObjAddr: 0x1E130, symBinAddr: 0x10001F6E4, symSize: 0x2C }
  - { offsetInCU: 0x3CFAD, offset: 0x3CFAD, size: 0x8, addend: 0x0, symName: __ZNSt3__112__hash_tableINS_17__hash_value_typeINS_12basic_stringIcNS_11char_traitsIcEENS_9allocatorIcEEEES7_EENS_22__unordered_map_hasherIS7_S8_NS_4hashIS7_EENS_8equal_toIS7_EELb1EEENS_21__unordered_map_equalIS7_S8_SD_SB_Lb1EEENS5_IS8_EEED2Ev, symObjAddr: 0x1E15C, symBinAddr: 0x10001F710, symSize: 0x48 }
  - { offsetInCU: 0x3CFD9, offset: 0x3CFD9, size: 0x8, addend: 0x0, symName: __ZNSt3__112__hash_tableINS_17__hash_value_typeINS_12basic_stringIcNS_11char_traitsIcEENS_9allocatorIcEEEES7_EENS_22__unordered_map_hasherIS7_S8_NS_4hashIS7_EENS_8equal_toIS7_EELb1EEENS_21__unordered_map_equalIS7_S8_SD_SB_Lb1EEENS5_IS8_EEE17__deallocate_nodeEPNS_16__hash_node_baseIPNS_11__hash_nodeIS8_PvEEEE, symObjAddr: 0x1E1A4, symBinAddr: 0x10001F758, symSize: 0xA8 }
  - { offsetInCU: 0x3D043, offset: 0x3D043, size: 0x8, addend: 0x0, symName: __ZNSt3__117__compressed_pairINS_16__hash_node_baseIPNS_11__hash_nodeINS_17__hash_value_typeINS_12basic_stringIcNS_11char_traitsIcEENS_9allocatorIcEEEES9_EEPvEEEENS7_ISC_EEE5firstB8ue170006Ev, symObjAddr: 0x1E24C, symBinAddr: 0x10001F800, symSize: 0x24 }
  - { offsetInCU: 0x3D069, offset: 0x3D069, size: 0x8, addend: 0x0, symName: __ZNSt3__110unique_ptrIA_PNS_16__hash_node_baseIPNS_11__hash_nodeINS_17__hash_value_typeINS_12basic_stringIcNS_11char_traitsIcEENS_9allocatorIcEEEES9_EEPvEEEENS_25__bucket_list_deallocatorINS7_ISF_EEEEED1B8ue170006Ev, symObjAddr: 0x1E270, symBinAddr: 0x10001F824, symSize: 0x2C }
  - { offsetInCU: 0x3D093, offset: 0x3D093, size: 0x8, addend: 0x0, symName: __ZNSt3__112__hash_tableINS_17__hash_value_typeINS_12basic_stringIcNS_11char_traitsIcEENS_9allocatorIcEEEES7_EENS_22__unordered_map_hasherIS7_S8_NS_4hashIS7_EENS_8equal_toIS7_EELb1EEENS_21__unordered_map_equalIS7_S8_SD_SB_Lb1EEENS5_IS8_EEE12__node_allocB8ue170006Ev, symObjAddr: 0x1E29C, symBinAddr: 0x10001F850, symSize: 0x28 }
  - { offsetInCU: 0x3D0B9, offset: 0x3D0B9, size: 0x8, addend: 0x0, symName: __ZNSt3__116__hash_node_baseIPNS_11__hash_nodeINS_17__hash_value_typeINS_12basic_stringIcNS_11char_traitsIcEENS_9allocatorIcEEEES8_EEPvEEE8__upcastB8ue170006Ev, symObjAddr: 0x1E2C4, symBinAddr: 0x10001F878, symSize: 0x24 }
  - { offsetInCU: 0x3D0DF, offset: 0x3D0DF, size: 0x8, addend: 0x0, symName: __ZNSt3__116allocator_traitsINS_9allocatorINS_11__hash_nodeINS_17__hash_value_typeINS_12basic_stringIcNS_11char_traitsIcEENS1_IcEEEES8_EEPvEEEEE7destroyB8ue170006INS_4pairIKS8_S8_EEvvEEvRSC_PT_, symObjAddr: 0x1E2E8, symBinAddr: 0x10001F89C, symSize: 0x28 }
  - { offsetInCU: 0x3D119, offset: 0x3D119, size: 0x8, addend: 0x0, symName: __ZNSt3__122__hash_key_value_typesINS_17__hash_value_typeINS_12basic_stringIcNS_11char_traitsIcEENS_9allocatorIcEEEES7_EEE9__get_ptrB8ue170006ERS8_, symObjAddr: 0x1E310, symBinAddr: 0x10001F8C4, symSize: 0x24 }
  - { offsetInCU: 0x3D13C, offset: 0x3D13C, size: 0x8, addend: 0x0, symName: __ZNSt3__116allocator_traitsINS_9allocatorINS_11__hash_nodeINS_17__hash_value_typeINS_12basic_stringIcNS_11char_traitsIcEENS1_IcEEEES8_EEPvEEEEE10deallocateB8ue170006ERSC_PSB_m, symObjAddr: 0x1E334, symBinAddr: 0x10001F8E8, symSize: 0x34 }
  - { offsetInCU: 0x3D17E, offset: 0x3D17E, size: 0x8, addend: 0x0, symName: __ZNSt3__117__compressed_pairINS_16__hash_node_baseIPNS_11__hash_nodeINS_17__hash_value_typeINS_12basic_stringIcNS_11char_traitsIcEENS_9allocatorIcEEEES9_EEPvEEEENS7_ISC_EEE6secondB8ue170006Ev, symObjAddr: 0x1E368, symBinAddr: 0x10001F91C, symSize: 0x24 }
  - { offsetInCU: 0x3D1A4, offset: 0x3D1A4, size: 0x8, addend: 0x0, symName: __ZNSt3__122__compressed_pair_elemINS_9allocatorINS_11__hash_nodeINS_17__hash_value_typeINS_12basic_stringIcNS_11char_traitsIcEENS1_IcEEEES8_EEPvEEEELi1ELb1EE5__getB8ue170006Ev, symObjAddr: 0x1E38C, symBinAddr: 0x10001F940, symSize: 0x14 }
  - { offsetInCU: 0x3D1CA, offset: 0x3D1CA, size: 0x8, addend: 0x0, symName: __ZNSt3__114pointer_traitsIPNS_16__hash_node_baseIPNS_11__hash_nodeINS_17__hash_value_typeINS_12basic_stringIcNS_11char_traitsIcEENS_9allocatorIcEEEES9_EEPvEEEEE10pointer_toB8ue170006ERSE_, symObjAddr: 0x1E3A0, symBinAddr: 0x10001F954, symSize: 0x14 }
  - { offsetInCU: 0x3D1ED, offset: 0x3D1ED, size: 0x8, addend: 0x0, symName: __ZNSt3__14pairIKNS_12basic_stringIcNS_11char_traitsIcEENS_9allocatorIcEEEES6_ED1Ev, symObjAddr: 0x1E3FC, symBinAddr: 0x10001F9B0, symSize: 0x2C }
  - { offsetInCU: 0x3D219, offset: 0x3D219, size: 0x8, addend: 0x0, symName: __ZNSt3__14pairIKNS_12basic_stringIcNS_11char_traitsIcEENS_9allocatorIcEEEES6_ED2Ev, symObjAddr: 0x1E428, symBinAddr: 0x10001F9DC, symSize: 0x38 }
  - { offsetInCU: 0x3D245, offset: 0x3D245, size: 0x8, addend: 0x0, symName: __ZNSt3__117__hash_value_typeINS_12basic_stringIcNS_11char_traitsIcEENS_9allocatorIcEEEES6_E11__get_valueB8ue170006Ev, symObjAddr: 0x1E460, symBinAddr: 0x10001FA14, symSize: 0x24 }
  - { offsetInCU: 0x3D26B, offset: 0x3D26B, size: 0x8, addend: 0x0, symName: __ZNSt3__19allocatorINS_11__hash_nodeINS_17__hash_value_typeINS_12basic_stringIcNS_11char_traitsIcEENS0_IcEEEES7_EEPvEEE10deallocateB8ue170006EPSA_m, symObjAddr: 0x1E4BC, symBinAddr: 0x10001FA70, symSize: 0x40 }
  - { offsetInCU: 0x3D2AD, offset: 0x3D2AD, size: 0x8, addend: 0x0, symName: __ZNSt3__122__compressed_pair_elemINS_16__hash_node_baseIPNS_11__hash_nodeINS_17__hash_value_typeINS_12basic_stringIcNS_11char_traitsIcEENS_9allocatorIcEEEES9_EEPvEEEELi0ELb0EE5__getB8ue170006Ev, symObjAddr: 0x1E4FC, symBinAddr: 0x10001FAB0, symSize: 0x14 }
  - { offsetInCU: 0x3D2D3, offset: 0x3D2D3, size: 0x8, addend: 0x0, symName: __ZNSt3__110unique_ptrIA_PNS_16__hash_node_baseIPNS_11__hash_nodeINS_17__hash_value_typeINS_12basic_stringIcNS_11char_traitsIcEENS_9allocatorIcEEEES9_EEPvEEEENS_25__bucket_list_deallocatorINS7_ISF_EEEEED2B8ue170006Ev, symObjAddr: 0x1E510, symBinAddr: 0x10001FAC4, symSize: 0x30 }
  - { offsetInCU: 0x3D2FD, offset: 0x3D2FD, size: 0x8, addend: 0x0, symName: __ZNSt3__110unique_ptrIA_PNS_16__hash_node_baseIPNS_11__hash_nodeINS_17__hash_value_typeINS_12basic_stringIcNS_11char_traitsIcEENS_9allocatorIcEEEES9_EEPvEEEENS_25__bucket_list_deallocatorINS7_ISF_EEEEE5resetB8ue170006EDn, symObjAddr: 0x1E540, symBinAddr: 0x10001FAF4, symSize: 0x6C }
  - { offsetInCU: 0x3D33D, offset: 0x3D33D, size: 0x8, addend: 0x0, symName: __ZNSt3__117__compressed_pairIPPNS_16__hash_node_baseIPNS_11__hash_nodeINS_17__hash_value_typeINS_12basic_stringIcNS_11char_traitsIcEENS_9allocatorIcEEEES9_EEPvEEEENS_25__bucket_list_deallocatorINS7_ISF_EEEEE5firstB8ue170006Ev, symObjAddr: 0x1E5AC, symBinAddr: 0x10001FB60, symSize: 0x24 }
  - { offsetInCU: 0x3D363, offset: 0x3D363, size: 0x8, addend: 0x0, symName: __ZNSt3__117__compressed_pairIPPNS_16__hash_node_baseIPNS_11__hash_nodeINS_17__hash_value_typeINS_12basic_stringIcNS_11char_traitsIcEENS_9allocatorIcEEEES9_EEPvEEEENS_25__bucket_list_deallocatorINS7_ISF_EEEEE6secondB8ue170006Ev, symObjAddr: 0x1E5D0, symBinAddr: 0x10001FB84, symSize: 0x28 }
  - { offsetInCU: 0x3D389, offset: 0x3D389, size: 0x8, addend: 0x0, symName: __ZNSt3__125__bucket_list_deallocatorINS_9allocatorIPNS_16__hash_node_baseIPNS_11__hash_nodeINS_17__hash_value_typeINS_12basic_stringIcNS_11char_traitsIcEENS1_IcEEEES9_EEPvEEEEEEEclB8ue170006EPSF_, symObjAddr: 0x1E5F8, symBinAddr: 0x10001FBAC, symSize: 0x58 }
  - { offsetInCU: 0x3D3BE, offset: 0x3D3BE, size: 0x8, addend: 0x0, symName: __ZNSt3__122__compressed_pair_elemIPPNS_16__hash_node_baseIPNS_11__hash_nodeINS_17__hash_value_typeINS_12basic_stringIcNS_11char_traitsIcEENS_9allocatorIcEEEES9_EEPvEEEELi0ELb0EE5__getB8ue170006Ev, symObjAddr: 0x1E650, symBinAddr: 0x10001FC04, symSize: 0x14 }
  - { offsetInCU: 0x3D3E4, offset: 0x3D3E4, size: 0x8, addend: 0x0, symName: __ZNSt3__122__compressed_pair_elemINS_25__bucket_list_deallocatorINS_9allocatorIPNS_16__hash_node_baseIPNS_11__hash_nodeINS_17__hash_value_typeINS_12basic_stringIcNS_11char_traitsIcEENS2_IcEEEESA_EEPvEEEEEEEELi1ELb0EE5__getB8ue170006Ev, symObjAddr: 0x1E664, symBinAddr: 0x10001FC18, symSize: 0x14 }
  - { offsetInCU: 0x3D40A, offset: 0x3D40A, size: 0x8, addend: 0x0, symName: __ZNSt3__116allocator_traitsINS_9allocatorIPNS_16__hash_node_baseIPNS_11__hash_nodeINS_17__hash_value_typeINS_12basic_stringIcNS_11char_traitsIcEENS1_IcEEEES9_EEPvEEEEEEE10deallocateB8ue170006ERSG_PSF_m, symObjAddr: 0x1E678, symBinAddr: 0x10001FC2C, symSize: 0x34 }
  - { offsetInCU: 0x3D44C, offset: 0x3D44C, size: 0x8, addend: 0x0, symName: __ZNSt3__125__bucket_list_deallocatorINS_9allocatorIPNS_16__hash_node_baseIPNS_11__hash_nodeINS_17__hash_value_typeINS_12basic_stringIcNS_11char_traitsIcEENS1_IcEEEES9_EEPvEEEEEEE7__allocB8ue170006Ev, symObjAddr: 0x1E6AC, symBinAddr: 0x10001FC60, symSize: 0x24 }
  - { offsetInCU: 0x3D472, offset: 0x3D472, size: 0x8, addend: 0x0, symName: __ZNSt3__125__bucket_list_deallocatorINS_9allocatorIPNS_16__hash_node_baseIPNS_11__hash_nodeINS_17__hash_value_typeINS_12basic_stringIcNS_11char_traitsIcEENS1_IcEEEES9_EEPvEEEEEEE4sizeB8ue170006Ev, symObjAddr: 0x1E6D0, symBinAddr: 0x10001FC84, symSize: 0x24 }
  - { offsetInCU: 0x3D498, offset: 0x3D498, size: 0x8, addend: 0x0, symName: __ZNSt3__19allocatorIPNS_16__hash_node_baseIPNS_11__hash_nodeINS_17__hash_value_typeINS_12basic_stringIcNS_11char_traitsIcEENS0_IcEEEES8_EEPvEEEEE10deallocateB8ue170006EPSE_m, symObjAddr: 0x1E6F4, symBinAddr: 0x10001FCA8, symSize: 0x40 }
  - { offsetInCU: 0x3D4DA, offset: 0x3D4DA, size: 0x8, addend: 0x0, symName: __ZNSt3__117__compressed_pairImNS_9allocatorIPNS_16__hash_node_baseIPNS_11__hash_nodeINS_17__hash_value_typeINS_12basic_stringIcNS_11char_traitsIcEENS1_IcEEEES9_EEPvEEEEEEE6secondB8ue170006Ev, symObjAddr: 0x1E734, symBinAddr: 0x10001FCE8, symSize: 0x24 }
  - { offsetInCU: 0x3D500, offset: 0x3D500, size: 0x8, addend: 0x0, symName: __ZNSt3__122__compressed_pair_elemINS_9allocatorIPNS_16__hash_node_baseIPNS_11__hash_nodeINS_17__hash_value_typeINS_12basic_stringIcNS_11char_traitsIcEENS1_IcEEEES9_EEPvEEEEEELi1ELb1EE5__getB8ue170006Ev, symObjAddr: 0x1E758, symBinAddr: 0x10001FD0C, symSize: 0x14 }
  - { offsetInCU: 0x3D526, offset: 0x3D526, size: 0x8, addend: 0x0, symName: __ZNSt3__117__compressed_pairImNS_9allocatorIPNS_16__hash_node_baseIPNS_11__hash_nodeINS_17__hash_value_typeINS_12basic_stringIcNS_11char_traitsIcEENS1_IcEEEES9_EEPvEEEEEEE5firstB8ue170006Ev, symObjAddr: 0x1E76C, symBinAddr: 0x10001FD20, symSize: 0x24 }
  - { offsetInCU: 0x3D564, offset: 0x3D564, size: 0x8, addend: 0x0, symName: __ZNSt3__112__hash_tableINS_17__hash_value_typeINS_12basic_stringIcNS_11char_traitsIcEENS_9allocatorIcEEEES7_EENS_22__unordered_map_hasherIS7_S8_NS_4hashIS7_EENS_8equal_toIS7_EELb1EEENS_21__unordered_map_equalIS7_S8_SD_SB_Lb1EEENS5_IS8_EEE25__emplace_unique_key_argsIS7_JRKNS_21piecewise_construct_tENS_5tupleIJRKS7_EEENSN_IJEEEEEENS_4pairINS_15__hash_iteratorIPNS_11__hash_nodeIS8_PvEEEEbEERKT_DpOT0_, symObjAddr: 0x1E790, symBinAddr: 0x10001FD44, symSize: 0x4CC }
  - { offsetInCU: 0x3D66E, offset: 0x3D66E, size: 0x8, addend: 0x0, symName: __ZNKSt3__115__hash_iteratorIPNS_11__hash_nodeINS_17__hash_value_typeINS_12basic_stringIcNS_11char_traitsIcEENS_9allocatorIcEEEES8_EEPvEEEptB8ue170006Ev, symObjAddr: 0x1EC8C, symBinAddr: 0x100020240, symSize: 0x30 }
  - { offsetInCU: 0x3D694, offset: 0x3D694, size: 0x8, addend: 0x0, symName: __ZNSt3__112__hash_tableINS_17__hash_value_typeINS_12basic_stringIcNS_11char_traitsIcEENS_9allocatorIcEEEES7_EENS_22__unordered_map_hasherIS7_S8_NS_4hashIS7_EENS_8equal_toIS7_EELb1EEENS_21__unordered_map_equalIS7_S8_SD_SB_Lb1EEENS5_IS8_EEE13hash_functionB8ue170006Ev, symObjAddr: 0x1ECBC, symBinAddr: 0x100020270, symSize: 0x28 }
  - { offsetInCU: 0x3D6BA, offset: 0x3D6BA, size: 0x8, addend: 0x0, symName: __ZNKSt3__122__unordered_map_hasherINS_12basic_stringIcNS_11char_traitsIcEENS_9allocatorIcEEEENS_17__hash_value_typeIS6_S6_EENS_4hashIS6_EENS_8equal_toIS6_EELb1EEclB8ue170006ERKS6_, symObjAddr: 0x1ECE4, symBinAddr: 0x100020298, symSize: 0x2C }
  - { offsetInCU: 0x3D6EF, offset: 0x3D6EF, size: 0x8, addend: 0x0, symName: __ZNKSt3__112__hash_tableINS_17__hash_value_typeINS_12basic_stringIcNS_11char_traitsIcEENS_9allocatorIcEEEES7_EENS_22__unordered_map_hasherIS7_S8_NS_4hashIS7_EENS_8equal_toIS7_EELb1EEENS_21__unordered_map_equalIS7_S8_SD_SB_Lb1EEENS5_IS8_EEE12bucket_countB8ue170006Ev, symObjAddr: 0x1ED10, symBinAddr: 0x1000202C4, symSize: 0x28 }
  - { offsetInCU: 0x3D715, offset: 0x3D715, size: 0x8, addend: 0x0, symName: __ZNKSt3__110unique_ptrIA_PNS_16__hash_node_baseIPNS_11__hash_nodeINS_17__hash_value_typeINS_12basic_stringIcNS_11char_traitsIcEENS_9allocatorIcEEEES9_EEPvEEEENS_25__bucket_list_deallocatorINS7_ISF_EEEEEixB8ue170006Em, symObjAddr: 0x1ED38, symBinAddr: 0x1000202EC, symSize: 0x34 }
  - { offsetInCU: 0x3D74A, offset: 0x3D74A, size: 0x8, addend: 0x0, symName: __ZNKSt3__116__hash_node_baseIPNS_11__hash_nodeINS_17__hash_value_typeINS_12basic_stringIcNS_11char_traitsIcEENS_9allocatorIcEEEES8_EEPvEEE6__hashB8ue170006Ev, symObjAddr: 0x1ED6C, symBinAddr: 0x100020320, symSize: 0x18 }
  - { offsetInCU: 0x3D770, offset: 0x3D770, size: 0x8, addend: 0x0, symName: __ZNSt3__112__hash_tableINS_17__hash_value_typeINS_12basic_stringIcNS_11char_traitsIcEENS_9allocatorIcEEEES7_EENS_22__unordered_map_hasherIS7_S8_NS_4hashIS7_EENS_8equal_toIS7_EELb1EEENS_21__unordered_map_equalIS7_S8_SD_SB_Lb1EEENS5_IS8_EEE6key_eqB8ue170006Ev, symObjAddr: 0x1ED84, symBinAddr: 0x100020338, symSize: 0x28 }
  - { offsetInCU: 0x3D796, offset: 0x3D796, size: 0x8, addend: 0x0, symName: __ZNKSt3__121__unordered_map_equalINS_12basic_stringIcNS_11char_traitsIcEENS_9allocatorIcEEEENS_17__hash_value_typeIS6_S6_EENS_8equal_toIS6_EENS_4hashIS6_EELb1EEclB8ue170006ERKS8_RKS6_, symObjAddr: 0x1EDAC, symBinAddr: 0x100020360, symSize: 0x48 }
  - { offsetInCU: 0x3D7DA, offset: 0x3D7DA, size: 0x8, addend: 0x0, symName: __ZNSt3__112__hash_tableINS_17__hash_value_typeINS_12basic_stringIcNS_11char_traitsIcEENS_9allocatorIcEEEES7_EENS_22__unordered_map_hasherIS7_S8_NS_4hashIS7_EENS_8equal_toIS7_EELb1EEENS_21__unordered_map_equalIS7_S8_SD_SB_Lb1EEENS5_IS8_EEE21__construct_node_hashIRKNS_21piecewise_construct_tEJNS_5tupleIJRKS7_EEENSN_IJEEEEEENS_10unique_ptrINS_11__hash_nodeIS8_PvEENS_22__hash_node_destructorINS5_ISV_EEEEEEmOT_DpOT0_, symObjAddr: 0x1EDF4, symBinAddr: 0x1000203A8, symSize: 0x150 }
  - { offsetInCU: 0x3D876, offset: 0x3D876, size: 0x8, addend: 0x0, symName: __ZNSt3__112__hash_tableINS_17__hash_value_typeINS_12basic_stringIcNS_11char_traitsIcEENS_9allocatorIcEEEES7_EENS_22__unordered_map_hasherIS7_S8_NS_4hashIS7_EENS_8equal_toIS7_EELb1EEENS_21__unordered_map_equalIS7_S8_SD_SB_Lb1EEENS5_IS8_EEE4sizeB8ue170006Ev, symObjAddr: 0x1EF44, symBinAddr: 0x1000204F8, symSize: 0x28 }
  - { offsetInCU: 0x3D89C, offset: 0x3D89C, size: 0x8, addend: 0x0, symName: __ZNSt3__112__hash_tableINS_17__hash_value_typeINS_12basic_stringIcNS_11char_traitsIcEENS_9allocatorIcEEEES7_EENS_22__unordered_map_hasherIS7_S8_NS_4hashIS7_EENS_8equal_toIS7_EELb1EEENS_21__unordered_map_equalIS7_S8_SD_SB_Lb1EEENS5_IS8_EEE15max_load_factorB8ue170006Ev, symObjAddr: 0x1EF6C, symBinAddr: 0x100020520, symSize: 0x28 }
  - { offsetInCU: 0x3D8C2, offset: 0x3D8C2, size: 0x8, addend: 0x0, symName: __ZNSt3__112__hash_tableINS_17__hash_value_typeINS_12basic_stringIcNS_11char_traitsIcEENS_9allocatorIcEEEES7_EENS_22__unordered_map_hasherIS7_S8_NS_4hashIS7_EENS_8equal_toIS7_EELb1EEENS_21__unordered_map_equalIS7_S8_SD_SB_Lb1EEENS5_IS8_EEE15__rehash_uniqueB8ue170006Em, symObjAddr: 0x1EF94, symBinAddr: 0x100020548, symSize: 0x2C }
  - { offsetInCU: 0x3D8F7, offset: 0x3D8F7, size: 0x8, addend: 0x0, symName: __ZNSt3__116__hash_node_baseIPNS_11__hash_nodeINS_17__hash_value_typeINS_12basic_stringIcNS_11char_traitsIcEENS_9allocatorIcEEEES8_EEPvEEE5__ptrB8ue170006Ev, symObjAddr: 0x1EFC0, symBinAddr: 0x100020574, symSize: 0x24 }
  - { offsetInCU: 0x3D91D, offset: 0x3D91D, size: 0x8, addend: 0x0, symName: __ZNKSt3__110unique_ptrINS_11__hash_nodeINS_17__hash_value_typeINS_12basic_stringIcNS_11char_traitsIcEENS_9allocatorIcEEEES8_EEPvEENS_22__hash_node_destructorINS6_ISB_EEEEEptB8ue170006Ev, symObjAddr: 0x1EFE4, symBinAddr: 0x100020598, symSize: 0x28 }
  - { offsetInCU: 0x3D943, offset: 0x3D943, size: 0x8, addend: 0x0, symName: __ZNKSt3__110unique_ptrINS_11__hash_nodeINS_17__hash_value_typeINS_12basic_stringIcNS_11char_traitsIcEENS_9allocatorIcEEEES8_EEPvEENS_22__hash_node_destructorINS6_ISB_EEEEE3getB8ue170006Ev, symObjAddr: 0x1F00C, symBinAddr: 0x1000205C0, symSize: 0x28 }
  - { offsetInCU: 0x3D969, offset: 0x3D969, size: 0x8, addend: 0x0, symName: __ZNSt3__110unique_ptrINS_11__hash_nodeINS_17__hash_value_typeINS_12basic_stringIcNS_11char_traitsIcEENS_9allocatorIcEEEES8_EEPvEENS_22__hash_node_destructorINS6_ISB_EEEEE7releaseB8ue170006Ev, symObjAddr: 0x1F034, symBinAddr: 0x1000205E8, symSize: 0x44 }
  - { offsetInCU: 0x3D99E, offset: 0x3D99E, size: 0x8, addend: 0x0, symName: __ZNSt3__110unique_ptrINS_11__hash_nodeINS_17__hash_value_typeINS_12basic_stringIcNS_11char_traitsIcEENS_9allocatorIcEEEES8_EEPvEENS_22__hash_node_destructorINS6_ISB_EEEEED1B8ue170006Ev, symObjAddr: 0x1F078, symBinAddr: 0x10002062C, symSize: 0x2C }
  - { offsetInCU: 0x3D9C8, offset: 0x3D9C8, size: 0x8, addend: 0x0, symName: __ZNSt3__115__hash_iteratorIPNS_11__hash_nodeINS_17__hash_value_typeINS_12basic_stringIcNS_11char_traitsIcEENS_9allocatorIcEEEES8_EEPvEEEC1B8ue170006EPNS_16__hash_node_baseISC_EE, symObjAddr: 0x1F0A4, symBinAddr: 0x100020658, symSize: 0x34 }
  - { offsetInCU: 0x3DA07, offset: 0x3DA07, size: 0x8, addend: 0x0, symName: __ZNSt3__14pairINS_15__hash_iteratorIPNS_11__hash_nodeINS_17__hash_value_typeINS_12basic_stringIcNS_11char_traitsIcEENS_9allocatorIcEEEES9_EEPvEEEEbEC1B8ue170006ISE_RbLSB_0EEEOT_OT0_, symObjAddr: 0x1F0D8, symBinAddr: 0x10002068C, symSize: 0x3C }
  - { offsetInCU: 0x3DA65, offset: 0x3DA65, size: 0x8, addend: 0x0, symName: __ZNSt3__117__compressed_pairImNS_22__unordered_map_hasherINS_12basic_stringIcNS_11char_traitsIcEENS_9allocatorIcEEEENS_17__hash_value_typeIS7_S7_EENS_4hashIS7_EENS_8equal_toIS7_EELb1EEEE6secondB8ue170006Ev, symObjAddr: 0x1F114, symBinAddr: 0x1000206C8, symSize: 0x24 }
  - { offsetInCU: 0x3DA8B, offset: 0x3DA8B, size: 0x8, addend: 0x0, symName: __ZNSt3__122__compressed_pair_elemINS_22__unordered_map_hasherINS_12basic_stringIcNS_11char_traitsIcEENS_9allocatorIcEEEENS_17__hash_value_typeIS7_S7_EENS_4hashIS7_EENS_8equal_toIS7_EELb1EEELi1ELb1EE5__getB8ue170006Ev, symObjAddr: 0x1F138, symBinAddr: 0x1000206EC, symSize: 0x14 }
  - { offsetInCU: 0x3DAB1, offset: 0x3DAB1, size: 0x8, addend: 0x0, symName: __ZNKSt3__110unique_ptrIA_PNS_16__hash_node_baseIPNS_11__hash_nodeINS_17__hash_value_typeINS_12basic_stringIcNS_11char_traitsIcEENS_9allocatorIcEEEES9_EEPvEEEENS_25__bucket_list_deallocatorINS7_ISF_EEEEE11get_deleterB8ue170006Ev, symObjAddr: 0x1F14C, symBinAddr: 0x100020700, symSize: 0x24 }
  - { offsetInCU: 0x3DAD7, offset: 0x3DAD7, size: 0x8, addend: 0x0, symName: __ZNKSt3__125__bucket_list_deallocatorINS_9allocatorIPNS_16__hash_node_baseIPNS_11__hash_nodeINS_17__hash_value_typeINS_12basic_stringIcNS_11char_traitsIcEENS1_IcEEEES9_EEPvEEEEEEE4sizeB8ue170006Ev, symObjAddr: 0x1F170, symBinAddr: 0x100020724, symSize: 0x28 }
  - { offsetInCU: 0x3DAFD, offset: 0x3DAFD, size: 0x8, addend: 0x0, symName: __ZNKSt3__117__compressed_pairIPPNS_16__hash_node_baseIPNS_11__hash_nodeINS_17__hash_value_typeINS_12basic_stringIcNS_11char_traitsIcEENS_9allocatorIcEEEES9_EEPvEEEENS_25__bucket_list_deallocatorINS7_ISF_EEEEE6secondB8ue170006Ev, symObjAddr: 0x1F198, symBinAddr: 0x10002074C, symSize: 0x28 }
  - { offsetInCU: 0x3DB23, offset: 0x3DB23, size: 0x8, addend: 0x0, symName: __ZNKSt3__122__compressed_pair_elemINS_25__bucket_list_deallocatorINS_9allocatorIPNS_16__hash_node_baseIPNS_11__hash_nodeINS_17__hash_value_typeINS_12basic_stringIcNS_11char_traitsIcEENS2_IcEEEESA_EEPvEEEEEEEELi1ELb0EE5__getB8ue170006Ev, symObjAddr: 0x1F1C0, symBinAddr: 0x100020774, symSize: 0x14 }
  - { offsetInCU: 0x3DB49, offset: 0x3DB49, size: 0x8, addend: 0x0, symName: __ZNKSt3__117__compressed_pairImNS_9allocatorIPNS_16__hash_node_baseIPNS_11__hash_nodeINS_17__hash_value_typeINS_12basic_stringIcNS_11char_traitsIcEENS1_IcEEEES9_EEPvEEEEEEE5firstB8ue170006Ev, symObjAddr: 0x1F1D4, symBinAddr: 0x100020788, symSize: 0x24 }
  - { offsetInCU: 0x3DB6F, offset: 0x3DB6F, size: 0x8, addend: 0x0, symName: __ZNKSt3__117__compressed_pairIPPNS_16__hash_node_baseIPNS_11__hash_nodeINS_17__hash_value_typeINS_12basic_stringIcNS_11char_traitsIcEENS_9allocatorIcEEEES9_EEPvEEEENS_25__bucket_list_deallocatorINS7_ISF_EEEEE5firstB8ue170006Ev, symObjAddr: 0x1F1F8, symBinAddr: 0x1000207AC, symSize: 0x24 }
  - { offsetInCU: 0x3DB95, offset: 0x3DB95, size: 0x8, addend: 0x0, symName: __ZNKSt3__122__compressed_pair_elemIPPNS_16__hash_node_baseIPNS_11__hash_nodeINS_17__hash_value_typeINS_12basic_stringIcNS_11char_traitsIcEENS_9allocatorIcEEEES9_EEPvEEEELi0ELb0EE5__getB8ue170006Ev, symObjAddr: 0x1F21C, symBinAddr: 0x1000207D0, symSize: 0x14 }
  - { offsetInCU: 0x3DBBB, offset: 0x3DBBB, size: 0x8, addend: 0x0, symName: __ZNSt3__117__compressed_pairIfNS_21__unordered_map_equalINS_12basic_stringIcNS_11char_traitsIcEENS_9allocatorIcEEEENS_17__hash_value_typeIS7_S7_EENS_8equal_toIS7_EENS_4hashIS7_EELb1EEEE6secondB8ue170006Ev, symObjAddr: 0x1F230, symBinAddr: 0x1000207E4, symSize: 0x24 }
  - { offsetInCU: 0x3DBE1, offset: 0x3DBE1, size: 0x8, addend: 0x0, symName: __ZNSt3__122__compressed_pair_elemINS_21__unordered_map_equalINS_12basic_stringIcNS_11char_traitsIcEENS_9allocatorIcEEEENS_17__hash_value_typeIS7_S7_EENS_8equal_toIS7_EENS_4hashIS7_EELb1EEELi1ELb1EE5__getB8ue170006Ev, symObjAddr: 0x1F254, symBinAddr: 0x100020808, symSize: 0x14 }
  - { offsetInCU: 0x3DC07, offset: 0x3DC07, size: 0x8, addend: 0x0, symName: __ZNKSt3__117__hash_value_typeINS_12basic_stringIcNS_11char_traitsIcEENS_9allocatorIcEEEES6_E11__get_valueB8ue170006Ev, symObjAddr: 0x1F268, symBinAddr: 0x10002081C, symSize: 0x24 }
  - { offsetInCU: 0x3DC2D, offset: 0x3DC2D, size: 0x8, addend: 0x0, symName: __ZNSt3__116allocator_traitsINS_9allocatorINS_11__hash_nodeINS_17__hash_value_typeINS_12basic_stringIcNS_11char_traitsIcEENS1_IcEEEES8_EEPvEEEEE8allocateB8ue170006ERSC_m, symObjAddr: 0x1F2C4, symBinAddr: 0x100020878, symSize: 0x2C }
  - { offsetInCU: 0x3DC60, offset: 0x3DC60, size: 0x8, addend: 0x0, symName: __ZNSt3__122__hash_node_destructorINS_9allocatorINS_11__hash_nodeINS_17__hash_value_typeINS_12basic_stringIcNS_11char_traitsIcEENS1_IcEEEES8_EEPvEEEEEC1B8ue170006ERSC_b, symObjAddr: 0x1F2F0, symBinAddr: 0x1000208A4, symSize: 0x48 }
  - { offsetInCU: 0x3DCAE, offset: 0x3DCAE, size: 0x8, addend: 0x0, symName: __ZNSt3__110unique_ptrINS_11__hash_nodeINS_17__hash_value_typeINS_12basic_stringIcNS_11char_traitsIcEENS_9allocatorIcEEEES8_EEPvEENS_22__hash_node_destructorINS6_ISB_EEEEEC1B8ue170006ILb1EvEEPSB_NS_16__dependent_typeINS_27__unique_ptr_deleter_sfinaeISE_EEXT_EE20__good_rval_ref_typeE, symObjAddr: 0x1F338, symBinAddr: 0x1000208EC, symSize: 0x3C }
  - { offsetInCU: 0x3DCFF, offset: 0x3DCFF, size: 0x8, addend: 0x0, symName: __ZNSt3__116allocator_traitsINS_9allocatorINS_11__hash_nodeINS_17__hash_value_typeINS_12basic_stringIcNS_11char_traitsIcEENS1_IcEEEES8_EEPvEEEEE9constructB8ue170006INS_4pairIKS8_S8_EEJRKNS_21piecewise_construct_tENS_5tupleIJRSG_EEENSL_IJEEEEvvEEvRSC_PT_DpOT0_, symObjAddr: 0x1F374, symBinAddr: 0x100020928, symSize: 0x40 }
  - { offsetInCU: 0x3DD7B, offset: 0x3DD7B, size: 0x8, addend: 0x0, symName: __ZNSt3__110unique_ptrINS_11__hash_nodeINS_17__hash_value_typeINS_12basic_stringIcNS_11char_traitsIcEENS_9allocatorIcEEEES8_EEPvEENS_22__hash_node_destructorINS6_ISB_EEEEE11get_deleterB8ue170006Ev, symObjAddr: 0x1F3B4, symBinAddr: 0x100020968, symSize: 0x24 }
  - { offsetInCU: 0x3DDA1, offset: 0x3DDA1, size: 0x8, addend: 0x0, symName: __ZNSt3__19allocatorINS_11__hash_nodeINS_17__hash_value_typeINS_12basic_stringIcNS_11char_traitsIcEENS0_IcEEEES7_EEPvEEE8allocateB8ue170006Em, symObjAddr: 0x1F3D8, symBinAddr: 0x10002098C, symSize: 0x58 }
  - { offsetInCU: 0x3DDE0, offset: 0x3DDE0, size: 0x8, addend: 0x0, symName: __ZNSt3__116allocator_traitsINS_9allocatorINS_11__hash_nodeINS_17__hash_value_typeINS_12basic_stringIcNS_11char_traitsIcEENS1_IcEEEES8_EEPvEEEEE8max_sizeB8ue170006ISC_vvEEmRKSC_, symObjAddr: 0x1F430, symBinAddr: 0x1000209E4, symSize: 0x28 }
  - { offsetInCU: 0x3DE0B, offset: 0x3DE0B, size: 0x8, addend: 0x0, symName: __ZNSt3__122__hash_node_destructorINS_9allocatorINS_11__hash_nodeINS_17__hash_value_typeINS_12basic_stringIcNS_11char_traitsIcEENS1_IcEEEES8_EEPvEEEEEC2B8ue170006ERSC_b, symObjAddr: 0x1F458, symBinAddr: 0x100020A0C, symSize: 0x38 }
  - { offsetInCU: 0x3DE53, offset: 0x3DE53, size: 0x8, addend: 0x0, symName: __ZNSt3__110unique_ptrINS_11__hash_nodeINS_17__hash_value_typeINS_12basic_stringIcNS_11char_traitsIcEENS_9allocatorIcEEEES8_EEPvEENS_22__hash_node_destructorINS6_ISB_EEEEEC2B8ue170006ILb1EvEEPSB_NS_16__dependent_typeINS_27__unique_ptr_deleter_sfinaeISE_EEXT_EE20__good_rval_ref_typeE, symObjAddr: 0x1F490, symBinAddr: 0x100020A44, symSize: 0x48 }
  - { offsetInCU: 0x3DEA4, offset: 0x3DEA4, size: 0x8, addend: 0x0, symName: __ZNSt3__117__compressed_pairIPNS_11__hash_nodeINS_17__hash_value_typeINS_12basic_stringIcNS_11char_traitsIcEENS_9allocatorIcEEEES8_EEPvEENS_22__hash_node_destructorINS6_ISB_EEEEEC1B8ue170006IRSC_SF_EEOT_OT0_, symObjAddr: 0x1F4D8, symBinAddr: 0x100020A8C, symSize: 0x3C }
  - { offsetInCU: 0x3DEFC, offset: 0x3DEFC, size: 0x8, addend: 0x0, symName: __ZNSt3__117__compressed_pairIPNS_11__hash_nodeINS_17__hash_value_typeINS_12basic_stringIcNS_11char_traitsIcEENS_9allocatorIcEEEES8_EEPvEENS_22__hash_node_destructorINS6_ISB_EEEEEC2B8ue170006IRSC_SF_EEOT_OT0_, symObjAddr: 0x1F514, symBinAddr: 0x100020AC8, symSize: 0x48 }
  - { offsetInCU: 0x3DF54, offset: 0x3DF54, size: 0x8, addend: 0x0, symName: __ZNSt3__122__compressed_pair_elemIPNS_11__hash_nodeINS_17__hash_value_typeINS_12basic_stringIcNS_11char_traitsIcEENS_9allocatorIcEEEES8_EEPvEELi0ELb0EEC2B8ue170006IRSC_vEEOT_, symObjAddr: 0x1F55C, symBinAddr: 0x100020B10, symSize: 0x24 }
  - { offsetInCU: 0x3DF96, offset: 0x3DF96, size: 0x8, addend: 0x0, symName: __ZNSt3__122__compressed_pair_elemINS_22__hash_node_destructorINS_9allocatorINS_11__hash_nodeINS_17__hash_value_typeINS_12basic_stringIcNS_11char_traitsIcEENS2_IcEEEES9_EEPvEEEEEELi1ELb0EEC2B8ue170006ISE_vEEOT_, symObjAddr: 0x1F580, symBinAddr: 0x100020B34, symSize: 0x24 }
  - { offsetInCU: 0x3DFD8, offset: 0x3DFD8, size: 0x8, addend: 0x0, symName: __ZNSt3__14pairIKNS_12basic_stringIcNS_11char_traitsIcEENS_9allocatorIcEEEES6_EC1B8ue170006IJRS7_EJEEENS_21piecewise_construct_tENS_5tupleIJDpT_EEENSC_IJDpT0_EEE, symObjAddr: 0x1F5F4, symBinAddr: 0x100020BA8, symSize: 0x3C }
  - { offsetInCU: 0x3E03F, offset: 0x3E03F, size: 0x8, addend: 0x0, symName: __ZNSt3__14pairIKNS_12basic_stringIcNS_11char_traitsIcEENS_9allocatorIcEEEES6_EC1B8ue170006IJRS7_EJEJLm0EEJEEENS_21piecewise_construct_tERNS_5tupleIJDpT_EEERNSC_IJDpT0_EEENS_15__tuple_indicesIJXspT1_EEEENSL_IJXspT2_EEEE, symObjAddr: 0x1F630, symBinAddr: 0x100020BE4, symSize: 0x3C }
  - { offsetInCU: 0x3E0CC, offset: 0x3E0CC, size: 0x8, addend: 0x0, symName: __ZNSt3__14pairIKNS_12basic_stringIcNS_11char_traitsIcEENS_9allocatorIcEEEES6_EC2B8ue170006IJRS7_EJEJLm0EEJEEENS_21piecewise_construct_tERNS_5tupleIJDpT_EEERNSC_IJDpT0_EEENS_15__tuple_indicesIJXspT1_EEEENSL_IJXspT2_EEEE, symObjAddr: 0x1F66C, symBinAddr: 0x100020C20, symSize: 0x50 }
  - { offsetInCU: 0x3E159, offset: 0x3E159, size: 0x8, addend: 0x0, symName: __ZNSt3__112__tuple_leafILm0ERKNS_12basic_stringIcNS_11char_traitsIcEENS_9allocatorIcEEEELb0EE3getB8ue170006Ev, symObjAddr: 0x1F6E0, symBinAddr: 0x100020C94, symSize: 0x18 }
  - { offsetInCU: 0x3E17F, offset: 0x3E17F, size: 0x8, addend: 0x0, symName: __ZNSt3__117__compressed_pairIPNS_11__hash_nodeINS_17__hash_value_typeINS_12basic_stringIcNS_11char_traitsIcEENS_9allocatorIcEEEES8_EEPvEENS_22__hash_node_destructorINS6_ISB_EEEEE6secondB8ue170006Ev, symObjAddr: 0x1F6F8, symBinAddr: 0x100020CAC, symSize: 0x28 }
  - { offsetInCU: 0x3E1A5, offset: 0x3E1A5, size: 0x8, addend: 0x0, symName: __ZNSt3__122__compressed_pair_elemINS_22__hash_node_destructorINS_9allocatorINS_11__hash_nodeINS_17__hash_value_typeINS_12basic_stringIcNS_11char_traitsIcEENS2_IcEEEES9_EEPvEEEEEELi1ELb0EE5__getB8ue170006Ev, symObjAddr: 0x1F720, symBinAddr: 0x100020CD4, symSize: 0x14 }
  - { offsetInCU: 0x3E1CB, offset: 0x3E1CB, size: 0x8, addend: 0x0, symName: __ZNSt3__117__compressed_pairImNS_22__unordered_map_hasherINS_12basic_stringIcNS_11char_traitsIcEENS_9allocatorIcEEEENS_17__hash_value_typeIS7_S7_EENS_4hashIS7_EENS_8equal_toIS7_EELb1EEEE5firstB8ue170006Ev, symObjAddr: 0x1F734, symBinAddr: 0x100020CE8, symSize: 0x24 }
  - { offsetInCU: 0x3E1F1, offset: 0x3E1F1, size: 0x8, addend: 0x0, symName: __ZNSt3__117__compressed_pairIfNS_21__unordered_map_equalINS_12basic_stringIcNS_11char_traitsIcEENS_9allocatorIcEEEENS_17__hash_value_typeIS7_S7_EENS_8equal_toIS7_EENS_4hashIS7_EELb1EEEE5firstB8ue170006Ev, symObjAddr: 0x1F758, symBinAddr: 0x100020D0C, symSize: 0x24 }
  - { offsetInCU: 0x3E217, offset: 0x3E217, size: 0x8, addend: 0x0, symName: __ZNSt3__112__hash_tableINS_17__hash_value_typeINS_12basic_stringIcNS_11char_traitsIcEENS_9allocatorIcEEEES7_EENS_22__unordered_map_hasherIS7_S8_NS_4hashIS7_EENS_8equal_toIS7_EELb1EEENS_21__unordered_map_equalIS7_S8_SD_SB_Lb1EEENS5_IS8_EEE8__rehashILb1EEEvm, symObjAddr: 0x1F77C, symBinAddr: 0x100020D30, symSize: 0x1A8 }
  - { offsetInCU: 0x3E267, offset: 0x3E267, size: 0x8, addend: 0x0, symName: __ZNSt3__112__hash_tableINS_17__hash_value_typeINS_12basic_stringIcNS_11char_traitsIcEENS_9allocatorIcEEEES7_EENS_22__unordered_map_hasherIS7_S8_NS_4hashIS7_EENS_8equal_toIS7_EELb1EEENS_21__unordered_map_equalIS7_S8_SD_SB_Lb1EEENS5_IS8_EEE11__do_rehashILb1EEEvm, symObjAddr: 0x1F924, symBinAddr: 0x100020ED8, symSize: 0x288 }
  - { offsetInCU: 0x3E34A, offset: 0x3E34A, size: 0x8, addend: 0x0, symName: __ZNSt3__110unique_ptrIA_PNS_16__hash_node_baseIPNS_11__hash_nodeINS_17__hash_value_typeINS_12basic_stringIcNS_11char_traitsIcEENS_9allocatorIcEEEES9_EEPvEEEENS_25__bucket_list_deallocatorINS7_ISF_EEEEE11get_deleterB8ue170006Ev, symObjAddr: 0x1FBAC, symBinAddr: 0x100021160, symSize: 0x24 }
  - { offsetInCU: 0x3E370, offset: 0x3E370, size: 0x8, addend: 0x0, symName: __ZNSt3__110unique_ptrIA_PNS_16__hash_node_baseIPNS_11__hash_nodeINS_17__hash_value_typeINS_12basic_stringIcNS_11char_traitsIcEENS_9allocatorIcEEEES9_EEPvEEEENS_25__bucket_list_deallocatorINS7_ISF_EEEEE5resetB8ue170006IPSF_EENS_9enable_ifIXsr28_CheckArrayPointerConversionIT_EE5valueEvE4typeESO_, symObjAddr: 0x1FBD0, symBinAddr: 0x100021184, symSize: 0x78 }
  - { offsetInCU: 0x3E3BD, offset: 0x3E3BD, size: 0x8, addend: 0x0, symName: __ZNSt3__116allocator_traitsINS_9allocatorIPNS_16__hash_node_baseIPNS_11__hash_nodeINS_17__hash_value_typeINS_12basic_stringIcNS_11char_traitsIcEENS1_IcEEEES9_EEPvEEEEEEE8allocateB8ue170006ERSG_m, symObjAddr: 0x1FC48, symBinAddr: 0x1000211FC, symSize: 0x2C }
  - { offsetInCU: 0x3E3F0, offset: 0x3E3F0, size: 0x8, addend: 0x0, symName: __ZNSt3__19allocatorIPNS_16__hash_node_baseIPNS_11__hash_nodeINS_17__hash_value_typeINS_12basic_stringIcNS_11char_traitsIcEENS0_IcEEEES8_EEPvEEEEE8allocateB8ue170006Em, symObjAddr: 0x1FC74, symBinAddr: 0x100021228, symSize: 0x58 }
  - { offsetInCU: 0x3E42F, offset: 0x3E42F, size: 0x8, addend: 0x0, symName: __ZNSt3__116allocator_traitsINS_9allocatorIPNS_16__hash_node_baseIPNS_11__hash_nodeINS_17__hash_value_typeINS_12basic_stringIcNS_11char_traitsIcEENS1_IcEEEES9_EEPvEEEEEEE8max_sizeB8ue170006ISG_vvEEmRKSG_, symObjAddr: 0x1FCCC, symBinAddr: 0x100021280, symSize: 0x28 }
  - { offsetInCU: 0x3E45A, offset: 0x3E45A, size: 0x8, addend: 0x0, symName: __ZNKSt3__117__compressed_pairIPNS_11__hash_nodeINS_17__hash_value_typeINS_12basic_stringIcNS_11char_traitsIcEENS_9allocatorIcEEEES8_EEPvEENS_22__hash_node_destructorINS6_ISB_EEEEE5firstB8ue170006Ev, symObjAddr: 0x1FCF4, symBinAddr: 0x1000212A8, symSize: 0x24 }
  - { offsetInCU: 0x3E480, offset: 0x3E480, size: 0x8, addend: 0x0, symName: __ZNKSt3__122__compressed_pair_elemIPNS_11__hash_nodeINS_17__hash_value_typeINS_12basic_stringIcNS_11char_traitsIcEENS_9allocatorIcEEEES8_EEPvEELi0ELb0EE5__getB8ue170006Ev, symObjAddr: 0x1FD18, symBinAddr: 0x1000212CC, symSize: 0x14 }
  - { offsetInCU: 0x3E4A6, offset: 0x3E4A6, size: 0x8, addend: 0x0, symName: __ZNSt3__117__compressed_pairIPNS_11__hash_nodeINS_17__hash_value_typeINS_12basic_stringIcNS_11char_traitsIcEENS_9allocatorIcEEEES8_EEPvEENS_22__hash_node_destructorINS6_ISB_EEEEE5firstB8ue170006Ev, symObjAddr: 0x1FD2C, symBinAddr: 0x1000212E0, symSize: 0x24 }
  - { offsetInCU: 0x3E4CC, offset: 0x3E4CC, size: 0x8, addend: 0x0, symName: __ZNSt3__122__compressed_pair_elemIPNS_11__hash_nodeINS_17__hash_value_typeINS_12basic_stringIcNS_11char_traitsIcEENS_9allocatorIcEEEES8_EEPvEELi0ELb0EE5__getB8ue170006Ev, symObjAddr: 0x1FD50, symBinAddr: 0x100021304, symSize: 0x14 }
  - { offsetInCU: 0x3E4F2, offset: 0x3E4F2, size: 0x8, addend: 0x0, symName: __ZNSt3__110unique_ptrINS_11__hash_nodeINS_17__hash_value_typeINS_12basic_stringIcNS_11char_traitsIcEENS_9allocatorIcEEEES8_EEPvEENS_22__hash_node_destructorINS6_ISB_EEEEED2B8ue170006Ev, symObjAddr: 0x1FD64, symBinAddr: 0x100021318, symSize: 0x30 }
  - { offsetInCU: 0x3E51C, offset: 0x3E51C, size: 0x8, addend: 0x0, symName: __ZNSt3__110unique_ptrINS_11__hash_nodeINS_17__hash_value_typeINS_12basic_stringIcNS_11char_traitsIcEENS_9allocatorIcEEEES8_EEPvEENS_22__hash_node_destructorINS6_ISB_EEEEE5resetB8ue170006EPSB_, symObjAddr: 0x1FD94, symBinAddr: 0x100021348, symSize: 0x78 }
  - { offsetInCU: 0x3E560, offset: 0x3E560, size: 0x8, addend: 0x0, symName: __ZNSt3__122__hash_node_destructorINS_9allocatorINS_11__hash_nodeINS_17__hash_value_typeINS_12basic_stringIcNS_11char_traitsIcEENS1_IcEEEES8_EEPvEEEEEclB8ue170006EPSB_, symObjAddr: 0x1FE0C, symBinAddr: 0x1000213C0, symSize: 0x98 }
  - { offsetInCU: 0x3E595, offset: 0x3E595, size: 0x8, addend: 0x0, symName: __ZNSt3__115__hash_iteratorIPNS_11__hash_nodeINS_17__hash_value_typeINS_12basic_stringIcNS_11char_traitsIcEENS_9allocatorIcEEEES8_EEPvEEEC2B8ue170006EPNS_16__hash_node_baseISC_EE, symObjAddr: 0x1FEA4, symBinAddr: 0x100021458, symSize: 0x20 }
  - { offsetInCU: 0x3E5CE, offset: 0x3E5CE, size: 0x8, addend: 0x0, symName: __ZNSt3__14pairINS_15__hash_iteratorIPNS_11__hash_nodeINS_17__hash_value_typeINS_12basic_stringIcNS_11char_traitsIcEENS_9allocatorIcEEEES9_EEPvEEEEbEC2B8ue170006ISE_RbLSB_0EEEOT_OT0_, symObjAddr: 0x1FEC4, symBinAddr: 0x100021478, symSize: 0x38 }
  - { offsetInCU: 0x3E62C, offset: 0x3E62C, size: 0x8, addend: 0x0, symName: __ZNSt3__15tupleIJRKNS_12basic_stringIcNS_11char_traitsIcEENS_9allocatorIcEEEEEEC1B8ue170006INS_4_AndELi0EEES8_, symObjAddr: 0x1FEFC, symBinAddr: 0x1000214B0, symSize: 0x34 }
  - { offsetInCU: 0x3E674, offset: 0x3E674, size: 0x8, addend: 0x0, symName: __ZNSt3__15tupleIJRKNS_12basic_stringIcNS_11char_traitsIcEENS_9allocatorIcEEEEEEC2B8ue170006INS_4_AndELi0EEES8_, symObjAddr: 0x1FF30, symBinAddr: 0x1000214E4, symSize: 0x34 }
  - { offsetInCU: 0x3E6BC, offset: 0x3E6BC, size: 0x8, addend: 0x0, symName: __ZNSt3__112__tuple_implINS_15__tuple_indicesIJLm0EEEEJRKNS_12basic_stringIcNS_11char_traitsIcEENS_9allocatorIcEEEEEEC1B8ue170006IJLm0EEJSA_EJEJEJSA_EEENS1_IJXspT_EEEENS_13__tuple_typesIJDpT0_EEENS1_IJXspT1_EEEENSE_IJDpT2_EEEDpOT3_, symObjAddr: 0x1FF64, symBinAddr: 0x100021518, symSize: 0x34 }
  - { offsetInCU: 0x3E74D, offset: 0x3E74D, size: 0x8, addend: 0x0, symName: __ZNSt3__112__tuple_implINS_15__tuple_indicesIJLm0EEEEJRKNS_12basic_stringIcNS_11char_traitsIcEENS_9allocatorIcEEEEEEC2B8ue170006IJLm0EEJSA_EJEJEJSA_EEENS1_IJXspT_EEEENS_13__tuple_typesIJDpT0_EEENS1_IJXspT1_EEEENSE_IJDpT2_EEEDpOT3_, symObjAddr: 0x1FF98, symBinAddr: 0x10002154C, symSize: 0x34 }
  - { offsetInCU: 0x3E7DE, offset: 0x3E7DE, size: 0x8, addend: 0x0, symName: __ZNSt3__112__tuple_leafILm0ERKNS_12basic_stringIcNS_11char_traitsIcEENS_9allocatorIcEEEELb0EEC2B8ue170006IS8_vEEOT_, symObjAddr: 0x1FFCC, symBinAddr: 0x100021580, symSize: 0x20 }
  - { offsetInCU: 0x3E821, offset: 0x3E821, size: 0x8, addend: 0x0, symName: __ZNSt3__114pointer_traitsIPNS_17__hash_value_typeINS_12basic_stringIcNS_11char_traitsIcEENS_9allocatorIcEEEES7_EEE10pointer_toB8ue170006ERS8_, symObjAddr: 0x1FFEC, symBinAddr: 0x1000215A0, symSize: 0x14 }
...
